ARM GAS  C:\Users\seeho\AppData\Local\Temp\ccUkk7Dc.s 			page 1


   1              		.syntax unified
   2              		.cpu cortex-m4
   3              		.eabi_attribute 27, 1
   4              		.fpu fpv4-sp-d16
   5              		.eabi_attribute 20, 1
   6              		.eabi_attribute 21, 1
   7              		.eabi_attribute 23, 3
   8              		.eabi_attribute 24, 1
   9              		.eabi_attribute 25, 1
  10              		.eabi_attribute 26, 1
  11              		.eabi_attribute 30, 1
  12              		.eabi_attribute 34, 1
  13              		.eabi_attribute 18, 4
  14              		.thumb
  15              		.syntax unified
  16              		.file	"main_cm4.c"
  17              		.text
  18              	.Ltext0:
  19              		.cfi_sections	.debug_frame
  20              		.section	.text.vTimerCallback,"ax",%progbits
  21              		.align	2
  22              		.global	vTimerCallback
  23              		.thumb
  24              		.thumb_func
  25              		.type	vTimerCallback, %function
  26              	vTimerCallback:
  27              	.LFB639:
  28              		.file 1 "main_cm4.c"
   1:main_cm4.c    **** /*******************************************************************************
   2:main_cm4.c    **** * File Name: main_cm4.c
   3:main_cm4.c    **** * Version: 1.20
   4:main_cm4.c    **** * Description:
   5:main_cm4.c    **** *   This is source code for the PSoC 6 MCU with BLE:
   6:main_cm4.c    **** *           1) PA   control WRITE
   7:main_cm4.c    **** *           1) MUX  control WRITE
   8:main_cm4.c    **** *           1) OSC  control WRITE
   9:main_cm4.c    **** *           1) MISC control WRITE
  10:main_cm4.c    **** *******************************************************************************/
  11:main_cm4.c    **** #include "project.h"
  12:main_cm4.c    **** #include "FreeRTOS.h"
  13:main_cm4.c    **** #include "task.h"
  14:main_cm4.c    **** #include <stdio.h>
  15:main_cm4.c    **** #include <limits.h>
  16:main_cm4.c    **** #include "semphr.h"
  17:main_cm4.c    **** #include "timers.h"
  18:main_cm4.c    **** 
  19:main_cm4.c    **** #define LED_ON  0UL
  20:main_cm4.c    **** #define LED_OFF 1UL
  21:main_cm4.c    **** #define HEAP_SIZE_1 8*1024
  22:main_cm4.c    **** #define COUNTER_BLOCK_TIME 0
  23:main_cm4.c    **** 
  24:main_cm4.c    **** /********************************************************************/
  25:main_cm4.c    **** /* Default for four(4) interal registers                            */
  26:main_cm4.c    **** /********************************************************************/
  27:main_cm4.c    **** #define DEFAULT_PA      0x01 /* Gain:1                              */
  28:main_cm4.c    **** #define DEFAULT_MUX     0x00 /* Ch.1                                */
  29:main_cm4.c    **** #define DEFAULT_OSC     0x10 /* 100-5KHz                            */
ARM GAS  C:\Users\seeho\AppData\Local\Temp\ccUkk7Dc.s 			page 2


  30:main_cm4.c    **** #define DEFAULT_MUX_ON  0x01 /* MUX Disabled                        */
  31:main_cm4.c    **** #define DEFAULT_MUX_OFF 0x00 /* MUX Enabled                         */
  32:main_cm4.c    **** /********************************************************************/
  33:main_cm4.c    **** 
  34:main_cm4.c    **** /*********************************************************************
  35:main_cm4.c    **** * Gobal Variables                                                    *
  36:main_cm4.c    **** *   val                                                              *
  37:main_cm4.c    **** *   PA                                                               *
  38:main_cm4.c    **** *   MUX                                                              *
  39:main_cm4.c    **** *   OSC                                                              *
  40:main_cm4.c    **** *   MISC                                                             *
  41:main_cm4.c    **** **********************************************************************/
  42:main_cm4.c    **** uint32_t  val     = 0x00;             /*BLE-LED  written into GATT   */
  43:main_cm4.c    **** uint32_t  valPA   = DEFAULT_PA;       /*PA       written into GATT   */  
  44:main_cm4.c    **** uint32_t  valMUX  = DEFAULT_MUX;      /*MUX      written into GATT   */
  45:main_cm4.c    **** uint32_t  valOSC  = DEFAULT_OSC;      /*OSC      written into GATT   */
  46:main_cm4.c    **** uint32_t  valMISC = DEFAULT_MUX_OFF;  /*MISC     written into GATT   */
  47:main_cm4.c    **** /*********************************************************************/
  48:main_cm4.c    **** 
  49:main_cm4.c    **** // This is used to lock and unlock the BLE Task
  50:main_cm4.c    **** SemaphoreHandle_t bleSemaphore;
  51:main_cm4.c    **** 
  52:main_cm4.c    **** // This is used to lock and unlock the val printf
  53:main_cm4.c    **** SemaphoreHandle_t bleSemaphoreval;
  54:main_cm4.c    **** 
  55:main_cm4.c    **** // This is used to create a counter handle
  56:main_cm4.c    **** TimerHandle_t xtimer;
  57:main_cm4.c    **** 
  58:main_cm4.c    **** /********************************************************************
  59:main_cm4.c    ****   Define a callback function that will be used by timer instance.  
  60:main_cm4.c    ****   The callback function does nothing but printf
  61:main_cm4.c    **** *********************************************************************/
  62:main_cm4.c    ****  void vTimerCallback( TimerHandle_t xTimer )
  63:main_cm4.c    ****  {
  29              		.loc 1 63 0
  30              		.cfi_startproc
  31              		@ args = 0, pretend = 0, frame = 0
  32              		@ frame_needed = 0, uses_anonymous_args = 0
  33              	.LVL0:
  34 0000 30B5     		push	{r4, r5, lr}
  35              		.cfi_def_cfa_offset 12
  36              		.cfi_offset 4, -12
  37              		.cfi_offset 5, -8
  38              		.cfi_offset 14, -4
  39 0002 83B0     		sub	sp, sp, #12
  40              		.cfi_def_cfa_offset 24
  41 0004 0546     		mov	r5, r0
  42              	.LVL1:
  64:main_cm4.c    ****  const uint32_t ulMaxExpiryCountBeforeStopping = 10;
  65:main_cm4.c    ****  uint32_t ulCount;
  66:main_cm4.c    **** 
  67:main_cm4.c    ****     /* The number of times this timer has expired is saved as the
  68:main_cm4.c    ****     timer's ID.  Obtain the count. */
  69:main_cm4.c    ****     ulCount = ( uint32_t ) pvTimerGetTimerID( xTimer );
  43              		.loc 1 69 0
  44 0006 FFF7FEFF 		bl	pvTimerGetTimerID
  45              	.LVL2:
ARM GAS  C:\Users\seeho\AppData\Local\Temp\ccUkk7Dc.s 			page 3


  46 000a 0446     		mov	r4, r0
  47              	.LVL3:
  70:main_cm4.c    ****     printf("%d ", ulCount);
  48              		.loc 1 70 0
  49 000c 0146     		mov	r1, r0
  50 000e 1C48     		ldr	r0, .L5
  51              	.LVL4:
  52 0010 FFF7FEFF 		bl	printf
  53              	.LVL5:
  71:main_cm4.c    **** 
  72:main_cm4.c    ****     /* Increment the count, then test to see if the timer has expired */
  73:main_cm4.c    ****     ulCount++;
  54              		.loc 1 73 0
  55 0014 0134     		adds	r4, r4, #1
  56              	.LVL6:
  74:main_cm4.c    **** 
  75:main_cm4.c    ****     /* If the timer has expired 10 times then stop it from running. */
  76:main_cm4.c    ****     if( ulCount >= ulMaxExpiryCountBeforeStopping ) {
  57              		.loc 1 76 0
  58 0016 092C     		cmp	r4, #9
  59 0018 22D9     		bls	.L2
  60              	.LBB254:
  77:main_cm4.c    ****         /* Do not use a block time if calling a timer API function
  78:main_cm4.c    ****         from a timer callback function, as doing so could cause a
  79:main_cm4.c    ****         deadlock! */
  80:main_cm4.c    ****         const char *timerName = pcTimerGetName(xtimer);
  61              		.loc 1 80 0
  62 001a 1A4B     		ldr	r3, .L5+4
  63 001c 1868     		ldr	r0, [r3]
  64 001e FFF7FEFF 		bl	pcTimerGetName
  65              	.LVL7:
  81:main_cm4.c    ****         printf("\n(%s) expired at count: %d, \r\n", timerName , ulCount);
  66              		.loc 1 81 0
  67 0022 2246     		mov	r2, r4
  68 0024 0146     		mov	r1, r0
  69 0026 1848     		ldr	r0, .L5+8
  70              	.LVL8:
  71 0028 FFF7FEFF 		bl	printf
  72              	.LVL9:
  82:main_cm4.c    ****         
  83:main_cm4.c    ****         /* Dump all parameters at count (10) */
  84:main_cm4.c    ****         printf("\r\nval:[%x] PA:[%x] MUX:[%x] OSC:[%x] MISC:[%x]\r\n", val, valPA, valMUX, valOSC, 
  73              		.loc 1 84 0
  74 002c 1748     		ldr	r0, .L5+12
  75 002e 0368     		ldr	r3, [r0]
  76 0030 174C     		ldr	r4, .L5+16
  77              	.LVL10:
  78 0032 2268     		ldr	r2, [r4]
  79 0034 4168     		ldr	r1, [r0, #4]
  80 0036 8068     		ldr	r0, [r0, #8]
  81 0038 0190     		str	r0, [sp, #4]
  82 003a 6068     		ldr	r0, [r4, #4]
  83 003c 0090     		str	r0, [sp]
  84 003e 1548     		ldr	r0, .L5+20
  85 0040 FFF7FEFF 		bl	printf
  86              	.LVL11:
  85:main_cm4.c    ****         
ARM GAS  C:\Users\seeho\AppData\Local\Temp\ccUkk7Dc.s 			page 4


  86:main_cm4.c    ****         vTimerSetTimerID( xTimer, ( void * ) 0 );
  87              		.loc 1 86 0
  88 0044 0021     		movs	r1, #0
  89 0046 2846     		mov	r0, r5
  90 0048 FFF7FEFF 		bl	vTimerSetTimerID
  91              	.LVL12:
  87:main_cm4.c    ****         xTimerReset( xTimer, 0 );
  92              		.loc 1 87 0
  93 004c FFF7FEFF 		bl	xTaskGetTickCount
  94              	.LVL13:
  95 0050 0023     		movs	r3, #0
  96 0052 0093     		str	r3, [sp]
  97 0054 0246     		mov	r2, r0
  98 0056 0221     		movs	r1, #2
  99 0058 2846     		mov	r0, r5
 100 005a FFF7FEFF 		bl	xTimerGenericCommand
 101              	.LVL14:
 102              	.LBE254:
 103 005e 0CE0     		b	.L1
 104              	.LVL15:
 105              	.L2:
  88:main_cm4.c    ****     }
  89:main_cm4.c    ****     else {
  90:main_cm4.c    ****        /* Store the incremented count back into the timer's ID field
  91:main_cm4.c    ****        so it can be read back again the next time this software timer
  92:main_cm4.c    ****        expires. */
  93:main_cm4.c    ****        vTimerSetTimerID( xTimer, ( void * ) ulCount );
 106              		.loc 1 93 0
 107 0060 2146     		mov	r1, r4
 108 0062 2846     		mov	r0, r5
 109 0064 FFF7FEFF 		bl	vTimerSetTimerID
 110              	.LVL16:
  94:main_cm4.c    ****     
  95:main_cm4.c    ****        /* increasing the counter period per each count (x2)
  96:main_cm4.c    ****         * This is just for debugging to see printf() slowing down from 0->9.
  97:main_cm4.c    ****         *
  98:main_cm4.c    ****                                      2xthe last period                    */
  99:main_cm4.c    ****        xTimerChangePeriod( xTimer, (100*ulCount), COUNTER_BLOCK_TIME);
 111              		.loc 1 99 0
 112 0068 0023     		movs	r3, #0
 113 006a 0093     		str	r3, [sp]
 114 006c 6422     		movs	r2, #100
 115 006e 02FB04F2 		mul	r2, r2, r4
 116 0072 0421     		movs	r1, #4
 117 0074 2846     		mov	r0, r5
 118 0076 FFF7FEFF 		bl	xTimerGenericCommand
 119              	.LVL17:
 120              	.L1:
 100:main_cm4.c    ****     }
 101:main_cm4.c    ****  }
 121              		.loc 1 101 0
 122 007a 03B0     		add	sp, sp, #12
 123              		.cfi_def_cfa_offset 12
 124              		@ sp needed
 125 007c 30BD     		pop	{r4, r5, pc}
 126              	.LVL18:
 127              	.L6:
ARM GAS  C:\Users\seeho\AppData\Local\Temp\ccUkk7Dc.s 			page 5


 128 007e 00BF     		.align	2
 129              	.L5:
 130 0080 00000000 		.word	.LC0
 131 0084 00000000 		.word	xtimer
 132 0088 04000000 		.word	.LC1
 133 008c 00000000 		.word	.LANCHOR0
 134 0090 00000000 		.word	.LANCHOR1
 135 0094 24000000 		.word	.LC2
 136              		.cfi_endproc
 137              	.LFE639:
 138              		.size	vTimerCallback, .-vTimerCallback
 139              		.section	.text.bleInterruptNotify,"ax",%progbits
 140              		.align	2
 141              		.global	bleInterruptNotify
 142              		.thumb
 143              		.thumb_func
 144              		.type	bleInterruptNotify, %function
 145              	bleInterruptNotify:
 146              	.LFB648:
 102:main_cm4.c    **** 
 103:main_cm4.c    **** /*******************************************************************************
 104:main_cm4.c    **** * Function: CreateTimer_1
 105:main_cm4.c    **** * Input:    void
 106:main_cm4.c    **** * Return:   void
 107:main_cm4.c    **** * Description:
 108:main_cm4.c    **** *    This function is to create a timer configuration
 109:main_cm4.c    **** *******************************************************************************/
 110:main_cm4.c    **** 
 111:main_cm4.c    **** void CreateTimer_1(void)
 112:main_cm4.c    **** {
 113:main_cm4.c    **** printf("Creating one RTOS timer \r\n");
 114:main_cm4.c    **** 
 115:main_cm4.c    **** xtimer = xTimerCreate
 116:main_cm4.c    ****    ( /* Just a text name, not used by the RTOS
 117:main_cm4.c    ****      kernel. */
 118:main_cm4.c    ****      "Timer_1",
 119:main_cm4.c    ****      /* The timer period in ticks, must be
 120:main_cm4.c    ****      greater than 0. Default: 100ms */
 121:main_cm4.c    ****      pdMS_TO_TICKS(100),
 122:main_cm4.c    ****      /* Timer will auto-reload */
 123:main_cm4.c    ****      pdTRUE,
 124:main_cm4.c    ****      /* The ID is used to store a count of the
 125:main_cm4.c    ****      number of times the timer has expired, which
 126:main_cm4.c    ****      is initialised to 0. */
 127:main_cm4.c    ****      ( void * ) 0,
 128:main_cm4.c    ****      /* Timer calls the same callback when it expires. */
 129:main_cm4.c    ****      vTimerCallback
 130:main_cm4.c    ****    );
 131:main_cm4.c    ****                 
 132:main_cm4.c    **** if( xtimer == NULL )
 133:main_cm4.c    ****      {
 134:main_cm4.c    ****          printf("The timer was not created\r\n");
 135:main_cm4.c    ****      }
 136:main_cm4.c    **** else{
 137:main_cm4.c    ****  /* Start the timer.  No block time is specified, and
 138:main_cm4.c    ****  even if one was it would be ignored because the RTOS
 139:main_cm4.c    ****  scheduler has not yet been started. */
ARM GAS  C:\Users\seeho\AppData\Local\Temp\ccUkk7Dc.s 			page 6


 140:main_cm4.c    ****  if( xTimerStart( xtimer, 0 ) != pdPASS )
 141:main_cm4.c    ****  {
 142:main_cm4.c    ****      printf("The timer could not be set into the Active state\r\n");
 143:main_cm4.c    ****  }
 144:main_cm4.c    **** }
 145:main_cm4.c    **** } 
 146:main_cm4.c    **** 
 147:main_cm4.c    **** /*******************************************************************************
 148:main_cm4.c    **** * Function: writeDisplayEventHandler
 149:main_cm4.c    **** * Input:    void
 150:main_cm4.c    **** * Return:   void
 151:main_cm4.c    **** * Description:
 152:main_cm4.c    **** *    This function is the BLE write to the server function - printf
 153:main_cm4.c    **** *******************************************************************************/
 154:main_cm4.c    **** 
 155:main_cm4.c    **** void writeDisplayEventHandler(void)
 156:main_cm4.c    **** {
 157:main_cm4.c    ****     printf("'Semaphored' HEX Value received for the GATT Client: %x \r\n", val);
 158:main_cm4.c    ****     xSemaphoreGive(bleSemaphoreval);
 159:main_cm4.c    **** } 
 160:main_cm4.c    **** 
 161:main_cm4.c    **** /*******************************************************************************
 162:main_cm4.c    **** * Function: GPIOInit_1
 163:main_cm4.c    **** * Input:    void
 164:main_cm4.c    **** * Return:   void
 165:main_cm4.c    **** * Description:
 166:main_cm4.c    **** *    This function is the golbal GPIO Init
 167:main_cm4.c    **** *******************************************************************************/
 168:main_cm4.c    **** 
 169:main_cm4.c    **** void GPIOInit_1(void)
 170:main_cm4.c    **** {
 171:main_cm4.c    ****     /* PA */
 172:main_cm4.c    ****     Cy_GPIO_Pin_Init(PA0_0_PORT, PA0_0_NUM, 0UL);
 173:main_cm4.c    ****     Cy_GPIO_Pin_Init(PA1_0_PORT, PA1_0_NUM, 0UL);
 174:main_cm4.c    ****     Cy_GPIO_Pin_Init(PA2_0_PORT, PA2_0_NUM, 0UL);
 175:main_cm4.c    ****     Cy_GPIO_Pin_Init(PA3_0_PORT, PA3_0_NUM, 0UL);
 176:main_cm4.c    ****     
 177:main_cm4.c    ****     /* MUX */
 178:main_cm4.c    ****     Cy_GPIO_Pin_Init(MUX0_0_PORT, MUX0_0_NUM, 0UL);
 179:main_cm4.c    ****     Cy_GPIO_Pin_Init(MUX1_0_PORT, MUX1_0_NUM, 0UL);
 180:main_cm4.c    ****     Cy_GPIO_Pin_Init(MUX2_0_PORT, MUX2_0_NUM, 0UL);
 181:main_cm4.c    ****     Cy_GPIO_Pin_Init(MUX3_0_PORT, MUX3_0_NUM, 0UL);
 182:main_cm4.c    ****     Cy_GPIO_Pin_Init(MUX_EN_0_PORT, MUX_EN_0_NUM, 0UL);
 183:main_cm4.c    ****     
 184:main_cm4.c    ****     /* OSC */
 185:main_cm4.c    ****     Cy_GPIO_Pin_Init(OSC0_0_PORT, OSC0_0_NUM, 0UL);
 186:main_cm4.c    ****     Cy_GPIO_Pin_Init(OSC1_0_PORT, OSC1_0_NUM, 0UL);
 187:main_cm4.c    ****     Cy_GPIO_Pin_Init(OSC2_0_PORT, OSC2_0_NUM, 0UL);
 188:main_cm4.c    ****     
 189:main_cm4.c    ****     /* MISC */
 190:main_cm4.c    ****     Cy_GPIO_Pin_Init(MISC0_0_PORT, MISC0_0_NUM, 0UL);
 191:main_cm4.c    ****     Cy_GPIO_Pin_Init(MISC1_0_PORT, MISC1_0_NUM, 0UL);
 192:main_cm4.c    ****     Cy_GPIO_Pin_Init(MISC2_0_PORT, MISC2_0_NUM, 0UL);
 193:main_cm4.c    ****     Cy_GPIO_Pin_Init(MISC3_0_PORT, MISC3_0_NUM, 0UL);
 194:main_cm4.c    ****     
 195:main_cm4.c    ****     /* User SW1 */
 196:main_cm4.c    ****     Cy_GPIO_Pin_Init(SW1_0_PORT, SW1_0_NUM, 0UL);       
ARM GAS  C:\Users\seeho\AppData\Local\Temp\ccUkk7Dc.s 			page 7


 197:main_cm4.c    **** }   
 198:main_cm4.c    ****     // Cy_GPIO_Pin_Init(RED_0_PORT, RED_0_NUM, 0UL);
 199:main_cm4.c    ****     // Cy_GPIO_Write(PA0_0_PORT, PA0_0_NUM, 0UL);
 200:main_cm4.c    **** 
 201:main_cm4.c    **** 
 202:main_cm4.c    **** /*******************************************************************************
 203:main_cm4.c    **** * Function: writeDisplayPA
 204:main_cm4.c    **** * Input:    void
 205:main_cm4.c    **** * Return:   void
 206:main_cm4.c    **** * Description:
 207:main_cm4.c    **** *    This function is the BLE write to PA GATT register
 208:main_cm4.c    **** *******************************************************************************/
 209:main_cm4.c    **** void writeDisplayPA(void)
 210:main_cm4.c    **** {   
 211:main_cm4.c    ****     printf("PA GATT Client: %x \r\n", valPA);
 212:main_cm4.c    ****     
 213:main_cm4.c    ****     switch (valPA)
 214:main_cm4.c    **** 	{
 215:main_cm4.c    ****         case 0x00:        
 216:main_cm4.c    ****             printf("Gain:0 \r\n");
 217:main_cm4.c    ****             Cy_GPIO_Write(PA0_0_PORT, PA0_0_NUM, 0UL);
 218:main_cm4.c    ****             Cy_GPIO_Write(PA1_0_PORT, PA1_0_NUM, 0UL);
 219:main_cm4.c    ****             Cy_GPIO_Write(PA2_0_PORT, PA2_0_NUM, 0UL);
 220:main_cm4.c    ****             Cy_GPIO_Write(PA3_0_PORT, PA3_0_NUM, 0UL);
 221:main_cm4.c    ****             break;
 222:main_cm4.c    ****         
 223:main_cm4.c    ****         case 0x01:        
 224:main_cm4.c    ****             printf("Gain:1 \r\n");
 225:main_cm4.c    ****             Cy_GPIO_Write(PA0_0_PORT, PA0_0_NUM, 1UL);
 226:main_cm4.c    ****             Cy_GPIO_Write(PA1_0_PORT, PA1_0_NUM, 0UL);
 227:main_cm4.c    ****             Cy_GPIO_Write(PA2_0_PORT, PA2_0_NUM, 0UL);
 228:main_cm4.c    ****             Cy_GPIO_Write(PA3_0_PORT, PA3_0_NUM, 0UL);
 229:main_cm4.c    ****             break;
 230:main_cm4.c    **** 
 231:main_cm4.c    ****         case 0x02:        
 232:main_cm4.c    ****             printf("Gain:2 \r\n");
 233:main_cm4.c    ****             Cy_GPIO_Write(PA0_0_PORT, PA0_0_NUM, 0UL);
 234:main_cm4.c    ****             Cy_GPIO_Write(PA1_0_PORT, PA1_0_NUM, 1UL);
 235:main_cm4.c    ****             Cy_GPIO_Write(PA2_0_PORT, PA2_0_NUM, 0UL);
 236:main_cm4.c    ****             Cy_GPIO_Write(PA3_0_PORT, PA3_0_NUM, 0UL);
 237:main_cm4.c    ****             break;
 238:main_cm4.c    ****         
 239:main_cm4.c    ****         case 0x03:        
 240:main_cm4.c    ****             printf("Gain:4 \r\n");
 241:main_cm4.c    ****             Cy_GPIO_Write(PA0_0_PORT, PA0_0_NUM, 1UL);
 242:main_cm4.c    ****             Cy_GPIO_Write(PA1_0_PORT, PA1_0_NUM, 1UL);
 243:main_cm4.c    ****             Cy_GPIO_Write(PA2_0_PORT, PA2_0_NUM, 0UL);
 244:main_cm4.c    ****             Cy_GPIO_Write(PA3_0_PORT, PA3_0_NUM, 0UL);
 245:main_cm4.c    ****             break;
 246:main_cm4.c    **** 
 247:main_cm4.c    ****         case 0x04:        
 248:main_cm4.c    ****             printf("Gain:8 \r\n");
 249:main_cm4.c    ****             Cy_GPIO_Write(PA0_0_PORT, PA0_0_NUM, 0UL);
 250:main_cm4.c    ****             Cy_GPIO_Write(PA1_0_PORT, PA1_0_NUM, 0UL);
 251:main_cm4.c    ****             Cy_GPIO_Write(PA2_0_PORT, PA2_0_NUM, 1UL);
 252:main_cm4.c    ****             Cy_GPIO_Write(PA3_0_PORT, PA3_0_NUM, 0UL);
 253:main_cm4.c    ****             break;
ARM GAS  C:\Users\seeho\AppData\Local\Temp\ccUkk7Dc.s 			page 8


 254:main_cm4.c    ****         
 255:main_cm4.c    ****         case 0x05:        
 256:main_cm4.c    ****             printf("Gain:16 \r\n");
 257:main_cm4.c    ****             Cy_GPIO_Write(PA0_0_PORT, PA0_0_NUM, 1UL);
 258:main_cm4.c    ****             Cy_GPIO_Write(PA1_0_PORT, PA1_0_NUM, 0UL);
 259:main_cm4.c    ****             Cy_GPIO_Write(PA2_0_PORT, PA2_0_NUM, 1UL);
 260:main_cm4.c    ****             Cy_GPIO_Write(PA3_0_PORT, PA3_0_NUM, 0UL);
 261:main_cm4.c    ****             break;
 262:main_cm4.c    **** 
 263:main_cm4.c    ****         case 0x06:        
 264:main_cm4.c    ****             printf("Gain:32 \r\n");
 265:main_cm4.c    ****             Cy_GPIO_Write(PA0_0_PORT, PA0_0_NUM, 0UL);
 266:main_cm4.c    ****             Cy_GPIO_Write(PA1_0_PORT, PA1_0_NUM, 1UL);
 267:main_cm4.c    ****             Cy_GPIO_Write(PA2_0_PORT, PA2_0_NUM, 1UL);
 268:main_cm4.c    ****             Cy_GPIO_Write(PA3_0_PORT, PA3_0_NUM, 0UL);
 269:main_cm4.c    ****             break;
 270:main_cm4.c    ****         
 271:main_cm4.c    ****         case 0x07:        
 272:main_cm4.c    ****             printf("Gain:64 \r\n");
 273:main_cm4.c    ****             Cy_GPIO_Write(PA0_0_PORT, PA0_0_NUM, 1UL);
 274:main_cm4.c    ****             Cy_GPIO_Write(PA1_0_PORT, PA1_0_NUM, 1UL);
 275:main_cm4.c    ****             Cy_GPIO_Write(PA2_0_PORT, PA2_0_NUM, 1UL);
 276:main_cm4.c    ****             Cy_GPIO_Write(PA3_0_PORT, PA3_0_NUM, 0UL);
 277:main_cm4.c    ****             break;
 278:main_cm4.c    ****             
 279:main_cm4.c    ****         case 0x08:        
 280:main_cm4.c    ****             printf("Gain128 \r\n");
 281:main_cm4.c    ****             Cy_GPIO_Write(PA0_0_PORT, PA0_0_NUM, 0UL);
 282:main_cm4.c    ****             Cy_GPIO_Write(PA1_0_PORT, PA1_0_NUM, 0UL);
 283:main_cm4.c    ****             Cy_GPIO_Write(PA2_0_PORT, PA2_0_NUM, 0UL);
 284:main_cm4.c    ****             Cy_GPIO_Write(PA3_0_PORT, PA3_0_NUM, 1UL);
 285:main_cm4.c    ****             break;
 286:main_cm4.c    ****         
 287:main_cm4.c    ****         case 0x09:        
 288:main_cm4.c    ****             printf("Gain:256 \r\n");
 289:main_cm4.c    ****             Cy_GPIO_Write(PA0_0_PORT, PA0_0_NUM, 1UL);
 290:main_cm4.c    ****             Cy_GPIO_Write(PA1_0_PORT, PA1_0_NUM, 0UL);
 291:main_cm4.c    ****             Cy_GPIO_Write(PA2_0_PORT, PA2_0_NUM, 0UL);
 292:main_cm4.c    ****             Cy_GPIO_Write(PA3_0_PORT, PA3_0_NUM, 1UL);
 293:main_cm4.c    ****             break;
 294:main_cm4.c    **** 
 295:main_cm4.c    ****         case 0x0A:        
 296:main_cm4.c    ****             printf("Gain:512 \r\n");
 297:main_cm4.c    ****             Cy_GPIO_Write(PA0_0_PORT, PA0_0_NUM, 0UL);
 298:main_cm4.c    ****             Cy_GPIO_Write(PA1_0_PORT, PA1_0_NUM, 1UL);
 299:main_cm4.c    ****             Cy_GPIO_Write(PA2_0_PORT, PA2_0_NUM, 0UL);
 300:main_cm4.c    ****             Cy_GPIO_Write(PA3_0_PORT, PA3_0_NUM, 1UL);
 301:main_cm4.c    ****             break;
 302:main_cm4.c    ****         
 303:main_cm4.c    ****         case 0x0B:        
 304:main_cm4.c    ****             printf("Gain:1024 \r\n");
 305:main_cm4.c    ****             Cy_GPIO_Write(PA0_0_PORT, PA0_0_NUM, 1UL);
 306:main_cm4.c    ****             Cy_GPIO_Write(PA1_0_PORT, PA1_0_NUM, 1UL);
 307:main_cm4.c    ****             Cy_GPIO_Write(PA2_0_PORT, PA2_0_NUM, 0UL);
 308:main_cm4.c    ****             Cy_GPIO_Write(PA3_0_PORT, PA3_0_NUM, 1UL);
 309:main_cm4.c    ****             break;
 310:main_cm4.c    **** 
ARM GAS  C:\Users\seeho\AppData\Local\Temp\ccUkk7Dc.s 			page 9


 311:main_cm4.c    ****         case 0x0C:        
 312:main_cm4.c    ****             printf("Gain:2048 \r\n");
 313:main_cm4.c    ****             Cy_GPIO_Write(PA0_0_PORT, PA0_0_NUM, 0UL);
 314:main_cm4.c    ****             Cy_GPIO_Write(PA1_0_PORT, PA1_0_NUM, 0UL);
 315:main_cm4.c    ****             Cy_GPIO_Write(PA2_0_PORT, PA2_0_NUM, 1UL);
 316:main_cm4.c    ****             Cy_GPIO_Write(PA3_0_PORT, PA3_0_NUM, 1UL);
 317:main_cm4.c    ****             break;
 318:main_cm4.c    ****             
 319:main_cm4.c    ****         default:
 320:main_cm4.c    ****             printf("Gain:4096 \r\n");
 321:main_cm4.c    ****             Cy_GPIO_Write(PA0_0_PORT, PA0_0_NUM, 1UL);
 322:main_cm4.c    ****             Cy_GPIO_Write(PA1_0_PORT, PA1_0_NUM, 1UL);
 323:main_cm4.c    ****             Cy_GPIO_Write(PA2_0_PORT, PA2_0_NUM, 1UL);
 324:main_cm4.c    ****             Cy_GPIO_Write(PA3_0_PORT, PA3_0_NUM, 1UL);
 325:main_cm4.c    ****             break;            
 326:main_cm4.c    ****     }
 327:main_cm4.c    **** }
 328:main_cm4.c    **** 
 329:main_cm4.c    **** /*******************************************************************************
 330:main_cm4.c    **** * Function: writeDisplayMUX
 331:main_cm4.c    **** * Input:    void
 332:main_cm4.c    **** * Return:   void
 333:main_cm4.c    **** * Description:
 334:main_cm4.c    **** *    This function is the BLE write to MUX GATT register
 335:main_cm4.c    **** *******************************************************************************/
 336:main_cm4.c    **** void writeDisplayMUX(void)
 337:main_cm4.c    **** { 
 338:main_cm4.c    ****     printf("MUX GATT Client: %x \r\n", valMUX);
 339:main_cm4.c    ****     
 340:main_cm4.c    **** switch (valMUX)
 341:main_cm4.c    **** 	{
 342:main_cm4.c    ****         case 0x00:        
 343:main_cm4.c    ****             printf("ON Switch:0 \r\n");
 344:main_cm4.c    ****             Cy_GPIO_Write(MUX0_0_PORT, MUX0_0_NUM, 0UL);
 345:main_cm4.c    ****             Cy_GPIO_Write(MUX1_0_PORT, MUX1_0_NUM, 0UL);
 346:main_cm4.c    ****             Cy_GPIO_Write(MUX2_0_PORT, MUX2_0_NUM, 0UL);            
 347:main_cm4.c    ****             Cy_GPIO_Write(MUX3_0_PORT, MUX3_0_NUM, 0UL);          
 348:main_cm4.c    ****             break;
 349:main_cm4.c    ****         
 350:main_cm4.c    ****         case 0x01:        
 351:main_cm4.c    ****             printf("ON Switch:1 \r\n");
 352:main_cm4.c    ****             Cy_GPIO_Write(MUX0_0_PORT, MUX0_0_NUM, 1UL);
 353:main_cm4.c    ****             Cy_GPIO_Write(MUX1_0_PORT, MUX1_0_NUM, 0UL);
 354:main_cm4.c    ****             Cy_GPIO_Write(MUX2_0_PORT, MUX2_0_NUM, 0UL);            
 355:main_cm4.c    ****             Cy_GPIO_Write(MUX3_0_PORT, MUX3_0_NUM, 0UL); 
 356:main_cm4.c    ****             break;
 357:main_cm4.c    **** 
 358:main_cm4.c    ****         case 0x02:        
 359:main_cm4.c    ****             printf("ON Switch:2 \r\n");
 360:main_cm4.c    ****             Cy_GPIO_Write(MUX0_0_PORT, MUX0_0_NUM, 0UL);
 361:main_cm4.c    ****             Cy_GPIO_Write(MUX1_0_PORT, MUX1_0_NUM, 1UL);
 362:main_cm4.c    ****             Cy_GPIO_Write(MUX2_0_PORT, MUX2_0_NUM, 0UL);            
 363:main_cm4.c    ****             Cy_GPIO_Write(MUX3_0_PORT, MUX3_0_NUM, 0UL); 
 364:main_cm4.c    ****             break;
 365:main_cm4.c    ****         
 366:main_cm4.c    ****         case 0x03:        
 367:main_cm4.c    ****             printf("ON Switch:3 \r\n");
ARM GAS  C:\Users\seeho\AppData\Local\Temp\ccUkk7Dc.s 			page 10


 368:main_cm4.c    ****             Cy_GPIO_Write(MUX0_0_PORT, MUX0_0_NUM, 1UL);
 369:main_cm4.c    ****             Cy_GPIO_Write(MUX1_0_PORT, MUX1_0_NUM, 1UL);
 370:main_cm4.c    ****             Cy_GPIO_Write(MUX2_0_PORT, MUX2_0_NUM, 0UL);            
 371:main_cm4.c    ****             Cy_GPIO_Write(MUX3_0_PORT, MUX3_0_NUM, 0UL); 
 372:main_cm4.c    ****             break;
 373:main_cm4.c    **** 
 374:main_cm4.c    ****         case 0x04:        
 375:main_cm4.c    ****             printf("ON Switch:4 \r\n");
 376:main_cm4.c    ****             Cy_GPIO_Write(MUX0_0_PORT, MUX0_0_NUM, 0UL);
 377:main_cm4.c    ****             Cy_GPIO_Write(MUX1_0_PORT, MUX1_0_NUM, 0UL);
 378:main_cm4.c    ****             Cy_GPIO_Write(MUX2_0_PORT, MUX2_0_NUM, 1UL);            
 379:main_cm4.c    ****             Cy_GPIO_Write(MUX3_0_PORT, MUX3_0_NUM, 0UL); 
 380:main_cm4.c    ****             break;
 381:main_cm4.c    ****         
 382:main_cm4.c    ****         case 0x05:        
 383:main_cm4.c    ****             printf("ON Switch:5 \r\n");
 384:main_cm4.c    ****             Cy_GPIO_Write(MUX0_0_PORT, MUX0_0_NUM, 1UL);
 385:main_cm4.c    ****             Cy_GPIO_Write(MUX1_0_PORT, MUX1_0_NUM, 0UL);
 386:main_cm4.c    ****             Cy_GPIO_Write(MUX2_0_PORT, MUX2_0_NUM, 1UL);            
 387:main_cm4.c    ****             Cy_GPIO_Write(MUX3_0_PORT, MUX3_0_NUM, 0UL); 
 388:main_cm4.c    ****             break;
 389:main_cm4.c    **** 
 390:main_cm4.c    ****         case 0x06:        
 391:main_cm4.c    ****             printf("ON Switch:6 \r\n");
 392:main_cm4.c    ****             Cy_GPIO_Write(MUX0_0_PORT, MUX0_0_NUM, 0UL);
 393:main_cm4.c    ****             Cy_GPIO_Write(MUX1_0_PORT, MUX1_0_NUM, 1UL);
 394:main_cm4.c    ****             Cy_GPIO_Write(MUX2_0_PORT, MUX2_0_NUM, 1UL);            
 395:main_cm4.c    ****             Cy_GPIO_Write(MUX3_0_PORT, MUX3_0_NUM, 0UL); 
 396:main_cm4.c    ****             break;
 397:main_cm4.c    ****         
 398:main_cm4.c    ****         case 0x07:        
 399:main_cm4.c    ****             printf("ON Switch:7 \r\n");
 400:main_cm4.c    ****             Cy_GPIO_Write(MUX0_0_PORT, MUX0_0_NUM, 1UL);
 401:main_cm4.c    ****             Cy_GPIO_Write(MUX1_0_PORT, MUX1_0_NUM, 1UL);
 402:main_cm4.c    ****             Cy_GPIO_Write(MUX2_0_PORT, MUX2_0_NUM, 1UL);            
 403:main_cm4.c    ****             Cy_GPIO_Write(MUX3_0_PORT, MUX3_0_NUM, 0UL); 
 404:main_cm4.c    ****             break;
 405:main_cm4.c    ****             
 406:main_cm4.c    ****         case 0x08:        
 407:main_cm4.c    ****             printf("ON Switch:8 \r\n");
 408:main_cm4.c    ****             Cy_GPIO_Write(MUX0_0_PORT, MUX0_0_NUM, 0UL);
 409:main_cm4.c    ****             Cy_GPIO_Write(MUX1_0_PORT, MUX1_0_NUM, 0UL);
 410:main_cm4.c    ****             Cy_GPIO_Write(MUX2_0_PORT, MUX2_0_NUM, 0UL);            
 411:main_cm4.c    ****             Cy_GPIO_Write(MUX3_0_PORT, MUX3_0_NUM, 1UL); 
 412:main_cm4.c    ****             break;
 413:main_cm4.c    ****         
 414:main_cm4.c    ****         case 0x09:        
 415:main_cm4.c    ****             printf("ON Switch:9 \r\n");
 416:main_cm4.c    ****             Cy_GPIO_Write(MUX0_0_PORT, MUX0_0_NUM, 1UL);
 417:main_cm4.c    ****             Cy_GPIO_Write(MUX1_0_PORT, MUX1_0_NUM, 0UL);
 418:main_cm4.c    ****             Cy_GPIO_Write(MUX2_0_PORT, MUX2_0_NUM, 0UL);            
 419:main_cm4.c    ****             Cy_GPIO_Write(MUX3_0_PORT, MUX3_0_NUM, 1UL); 
 420:main_cm4.c    ****             break;
 421:main_cm4.c    **** 
 422:main_cm4.c    ****         case 0x0A:        
 423:main_cm4.c    ****             printf("ON Switch:A \r\n");
 424:main_cm4.c    ****             Cy_GPIO_Write(MUX0_0_PORT, MUX0_0_NUM, 0UL);
ARM GAS  C:\Users\seeho\AppData\Local\Temp\ccUkk7Dc.s 			page 11


 425:main_cm4.c    ****             Cy_GPIO_Write(MUX1_0_PORT, MUX1_0_NUM, 1UL);
 426:main_cm4.c    ****             Cy_GPIO_Write(MUX2_0_PORT, MUX2_0_NUM, 0UL);            
 427:main_cm4.c    ****             Cy_GPIO_Write(MUX3_0_PORT, MUX3_0_NUM, 1UL); 
 428:main_cm4.c    ****             break;
 429:main_cm4.c    ****         
 430:main_cm4.c    ****         case 0x0B:        
 431:main_cm4.c    ****             printf("ON Switch:B \r\n");
 432:main_cm4.c    ****             Cy_GPIO_Write(MUX0_0_PORT, MUX0_0_NUM, 1UL);
 433:main_cm4.c    ****             Cy_GPIO_Write(MUX1_0_PORT, MUX1_0_NUM, 1UL);
 434:main_cm4.c    ****             Cy_GPIO_Write(MUX2_0_PORT, MUX2_0_NUM, 0UL);            
 435:main_cm4.c    ****             Cy_GPIO_Write(MUX3_0_PORT, MUX3_0_NUM, 1UL); 
 436:main_cm4.c    ****             break;
 437:main_cm4.c    **** 
 438:main_cm4.c    ****         case 0x0C:        
 439:main_cm4.c    ****             printf("ON Switch:C \r\n");
 440:main_cm4.c    ****             Cy_GPIO_Write(MUX0_0_PORT, MUX0_0_NUM, 0UL);
 441:main_cm4.c    ****             Cy_GPIO_Write(MUX1_0_PORT, MUX1_0_NUM, 0UL);
 442:main_cm4.c    ****             Cy_GPIO_Write(MUX2_0_PORT, MUX2_0_NUM, 1UL);            
 443:main_cm4.c    ****             Cy_GPIO_Write(MUX3_0_PORT, MUX3_0_NUM, 1UL); 
 444:main_cm4.c    ****             break;
 445:main_cm4.c    ****             
 446:main_cm4.c    ****         case 0x0D:        
 447:main_cm4.c    ****             printf("ON Switch:D \r\n");
 448:main_cm4.c    ****             Cy_GPIO_Write(MUX0_0_PORT, MUX0_0_NUM, 1UL);
 449:main_cm4.c    ****             Cy_GPIO_Write(MUX1_0_PORT, MUX1_0_NUM, 0UL);
 450:main_cm4.c    ****             Cy_GPIO_Write(MUX2_0_PORT, MUX2_0_NUM, 1UL);            
 451:main_cm4.c    ****             Cy_GPIO_Write(MUX3_0_PORT, MUX3_0_NUM, 1UL); 
 452:main_cm4.c    ****             break;
 453:main_cm4.c    ****             
 454:main_cm4.c    ****         case 0x0E:        
 455:main_cm4.c    ****             printf("ON Switch:E \r\n");
 456:main_cm4.c    ****             Cy_GPIO_Write(MUX0_0_PORT, MUX0_0_NUM, 0UL);
 457:main_cm4.c    ****             Cy_GPIO_Write(MUX1_0_PORT, MUX1_0_NUM, 1UL);
 458:main_cm4.c    ****             Cy_GPIO_Write(MUX2_0_PORT, MUX2_0_NUM, 1UL);            
 459:main_cm4.c    ****             Cy_GPIO_Write(MUX3_0_PORT, MUX3_0_NUM, 1UL); 
 460:main_cm4.c    ****             break;
 461:main_cm4.c    ****             
 462:main_cm4.c    ****         default:
 463:main_cm4.c    ****             printf("ON Switch:F \r\n");
 464:main_cm4.c    ****             Cy_GPIO_Write(MUX0_0_PORT, MUX0_0_NUM, 1UL);
 465:main_cm4.c    ****             Cy_GPIO_Write(MUX1_0_PORT, MUX1_0_NUM, 1UL);
 466:main_cm4.c    ****             Cy_GPIO_Write(MUX2_0_PORT, MUX2_0_NUM, 1UL);            
 467:main_cm4.c    ****             Cy_GPIO_Write(MUX3_0_PORT, MUX3_0_NUM, 1UL); 
 468:main_cm4.c    ****             break;            
 469:main_cm4.c    ****     }
 470:main_cm4.c    **** }
 471:main_cm4.c    **** 
 472:main_cm4.c    **** /*******************************************************************************
 473:main_cm4.c    **** * Function: writeDisplayOSC
 474:main_cm4.c    **** * Input:    void
 475:main_cm4.c    **** * Return:   void
 476:main_cm4.c    **** * Description:
 477:main_cm4.c    **** *    This function is the BLE write to OSC GATT register
 478:main_cm4.c    **** *******************************************************************************/
 479:main_cm4.c    **** void writeDisplayOSC(void)
 480:main_cm4.c    **** {   
 481:main_cm4.c    ****     printf("OSC Client: %x \r\n", valOSC);
ARM GAS  C:\Users\seeho\AppData\Local\Temp\ccUkk7Dc.s 			page 12


 482:main_cm4.c    ****     /* Empty for now */
 483:main_cm4.c    ****     /* Missing Case switch */
 484:main_cm4.c    **** }
 485:main_cm4.c    **** 
 486:main_cm4.c    **** /*******************************************************************************
 487:main_cm4.c    **** * Function: writeDisplayMISC
 488:main_cm4.c    **** * Input:    void
 489:main_cm4.c    **** * Return:   void
 490:main_cm4.c    **** * Description:
 491:main_cm4.c    **** *    This function is the BLE write to MISC GATT register
 492:main_cm4.c    **** *******************************************************************************/
 493:main_cm4.c    **** 
 494:main_cm4.c    **** void writeDisplayMISC(void)
 495:main_cm4.c    **** {   
 496:main_cm4.c    ****     printf("MISC GATT Client: %x \r\n", valMISC);
 497:main_cm4.c    ****     /* Empty for now */
 498:main_cm4.c    ****     /* Missing Case switch */
 499:main_cm4.c    **** }
 500:main_cm4.c    **** 
 501:main_cm4.c    **** /*******************************************************************************
 502:main_cm4.c    **** * Function: genericEventHandler
 503:main_cm4.c    **** * Input:    CY_BLE Event Handler event and eventParameter
 504:main_cm4.c    **** * Return:   void
 505:main_cm4.c    **** * Description:
 506:main_cm4.c    **** *    This function is the BLE event handler function. It's called by the BLE
 507:main_cm4.c    **** *    stack when and event occures
 508:main_cm4.c    **** *******************************************************************************/
 509:main_cm4.c    **** 
 510:main_cm4.c    **** void genericEventHandler(uint32_t event, void *eventParameter)
 511:main_cm4.c    **** {
 512:main_cm4.c    ****     cy_stc_ble_gatts_write_cmd_req_param_t *writeReqParameter;
 513:main_cm4.c    ****     uint8 i;
 514:main_cm4.c    ****     
 515:main_cm4.c    ****     switch (event)
 516:main_cm4.c    **** 	{
 517:main_cm4.c    ****         /* There are some events generated by the BLE component
 518:main_cm4.c    ****         *  that are not required for this code example.
 519:main_cm4.c    ****         *  Don't edit them as they might be relevant later on
 520:main_cm4.c    ****         */
 521:main_cm4.c    ****         
 522:main_cm4.c    ****         /**********************************************************
 523:main_cm4.c    ****         *                       General Events
 524:main_cm4.c    ****         ***********************************************************/
 525:main_cm4.c    **** 		/* This event is received when the BLE stack is started */
 526:main_cm4.c    ****         case CY_BLE_EVT_STACK_ON:       
 527:main_cm4.c    ****             printf("CY_BLE_EVT_STACK_ON: \r\n"); 
 528:main_cm4.c    ****             
 529:main_cm4.c    ****         case CY_BLE_EVT_GAP_DEVICE_DISCONNECTED:
 530:main_cm4.c    ****             PWM_BLINK_Start();
 531:main_cm4.c    ****             Cy_BLE_GAPP_StartAdvertisement(CY_BLE_ADVERTISING_FAST, CY_BLE_PERIPHERAL_CONFIGURATION
 532:main_cm4.c    ****             Cy_TCPWM_TriggerReloadOrIndex(PWM_DIM_HW,PWM_DIM_CNT_NUM);
 533:main_cm4.c    ****             Cy_TCPWM_PWM_Disable(PWM_DIM_HW,PWM_DIM_CNT_NUM); 
 534:main_cm4.c    ****             printf("Start Advertising: \r\n");
 535:main_cm4.c    ****             printf("RED_LED is blinking till paired: \r\n");
 536:main_cm4.c    ****             break;
 537:main_cm4.c    ****             
 538:main_cm4.c    ****         /* This event is received when there is a timeout */
ARM GAS  C:\Users\seeho\AppData\Local\Temp\ccUkk7Dc.s 			page 13


 539:main_cm4.c    ****         case CY_BLE_EVT_TIMEOUT:
 540:main_cm4.c    ****             printf("CY_BLE_EVT_TIMEOUT \r\n"); 
 541:main_cm4.c    ****             break;
 542:main_cm4.c    ****             
 543:main_cm4.c    ****         /* This event indicates that some internal HW error has occurred */    
 544:main_cm4.c    **** 		case CY_BLE_EVT_HARDWARE_ERROR: 
 545:main_cm4.c    ****             printf("CY_BLE_EVT_HARDWARE_ERROR \r\n");
 546:main_cm4.c    **** 			break;
 547:main_cm4.c    ****             
 548:main_cm4.c    ****         /*  This event will be triggered by host stack if BLE stack is busy or 
 549:main_cm4.c    ****          *  not busy. Parameter corresponding to this event will be the state 
 550:main_cm4.c    ****     	 *  of BLE stack.
 551:main_cm4.c    ****          *  BLE stack busy = CYBLE_STACK_STATE_BUSY,
 552:main_cm4.c    ****     	 *  BLE stack not busy = CYBLE_STACK_STATE_FREE 
 553:main_cm4.c    ****          */
 554:main_cm4.c    ****     	case CY_BLE_EVT_STACK_BUSY_STATUS:
 555:main_cm4.c    ****             printf("CY_BLE_EVT_STACK_BUSY_STATUS: %x\r\n", *(uint8 *)eventParameter);
 556:main_cm4.c    ****             break;
 557:main_cm4.c    ****             
 558:main_cm4.c    ****         /* This event indicates set device address command completed */
 559:main_cm4.c    ****         case CY_BLE_EVT_SET_DEVICE_ADDR_COMPLETE:
 560:main_cm4.c    ****             printf("CY_BLE_EVT_SET_DEVICE_ADDR_COMPLETE \r\n");
 561:main_cm4.c    ****             break;
 562:main_cm4.c    ****             
 563:main_cm4.c    ****         /* This event indicates get device address command completed
 564:main_cm4.c    ****            successfully */
 565:main_cm4.c    ****         case CY_BLE_EVT_GET_DEVICE_ADDR_COMPLETE:
 566:main_cm4.c    ****             printf("CY_BLE_EVT_GET_DEVICE_ADDR_COMPLETE: ");
 567:main_cm4.c    ****             for(i = CY_BLE_GAP_BD_ADDR_SIZE; i > 0u; i--)
 568:main_cm4.c    ****             {
 569:main_cm4.c    ****                 /* Public Bluetooth device address of size 6 bytes in little endian format. */
 570:main_cm4.c    ****                 printf("%2.2x", ((cy_stc_ble_bd_addrs_t *)((cy_stc_ble_events_param_generic_t *)eve
 571:main_cm4.c    ****                 
 572:main_cm4.c    ****                 /* Private Bluetooth device address of size 6 bytes in little endian format. */
 573:main_cm4.c    ****                 printf("%2.2x", ((cy_stc_ble_bd_addrs_t *)((cy_stc_ble_events_param_generic_t *)eve
 574:main_cm4.c    ****             }
 575:main_cm4.c    ****             printf("\r\n");          
 576:main_cm4.c    ****             break;
 577:main_cm4.c    ****          
 578:main_cm4.c    ****         /* This event indicates set Tx Power command completed */
 579:main_cm4.c    ****         case CY_BLE_EVT_SET_TX_PWR_COMPLETE:
 580:main_cm4.c    ****             printf("CY_BLE_EVT_SET_TX_PWR_COMPLETE \r\n");
 581:main_cm4.c    ****             break;
 582:main_cm4.c    ****                         
 583:main_cm4.c    ****         /**********************************************************
 584:main_cm4.c    ****         *                       GAP Events
 585:main_cm4.c    ****         ***********************************************************/
 586:main_cm4.c    ****        
 587:main_cm4.c    ****         /* This event indicates peripheral device has started/stopped
 588:main_cm4.c    ****            advertising */
 589:main_cm4.c    ****         case CY_BLE_EVT_GAPP_ADVERTISEMENT_START_STOP:
 590:main_cm4.c    ****             printf("CY_BLE_EVT_GAPP_ADVERTISEMENT_START_STOP: ");
 591:main_cm4.c    ****             break;
 592:main_cm4.c    ****             
 593:main_cm4.c    ****         /* This event is generated at the GAP Peripheral end after connection 
 594:main_cm4.c    ****            is completed with peer Central device */
 595:main_cm4.c    ****         case CY_BLE_EVT_GAP_DEVICE_CONNECTED:
ARM GAS  C:\Users\seeho\AppData\Local\Temp\ccUkk7Dc.s 			page 14


 596:main_cm4.c    ****             printf("CY_BLE_EVT_GAP_DEVICE_CONNECTED \r\n");
 597:main_cm4.c    ****             break;
 598:main_cm4.c    ****         
 599:main_cm4.c    ****         /* This event is generated at the GAP Central and the peripheral end 
 600:main_cm4.c    ****            after connection parameter update is requested from the host to 
 601:main_cm4.c    ****            the controller */
 602:main_cm4.c    ****         case CY_BLE_EVT_GAP_CONNECTION_UPDATE_COMPLETE:
 603:main_cm4.c    ****             printf("CY_BLE_EVT_GAP_CONNECTION_UPDATE_COMPLETE \r\n");
 604:main_cm4.c    ****             break;
 605:main_cm4.c    ****                      
 606:main_cm4.c    ****         /**********************************************************
 607:main_cm4.c    ****         *                       GATT Events
 608:main_cm4.c    ****         ***********************************************************/
 609:main_cm4.c    ****             
 610:main_cm4.c    ****         /* This event is generated at the GAP Peripheral end after connection 
 611:main_cm4.c    ****            is completed with peer Central device */
 612:main_cm4.c    ****        case CY_BLE_EVT_GATT_CONNECT_IND:
 613:main_cm4.c    ****             printf("CY_BLE_EVT_GATT_CONNECT_IND: %x, %x \r\n", 
 614:main_cm4.c    ****                         (*(cy_stc_ble_conn_handle_t *)eventParameter).attId, 
 615:main_cm4.c    ****                         (*(cy_stc_ble_conn_handle_t *)eventParameter).bdHandle);
 616:main_cm4.c    ****              printf("Active Connection Instance: %x \r\n", 
 617:main_cm4.c    ****                         (*(cy_stc_ble_conn_handle_t *)eventParameter).attId);
 618:main_cm4.c    ****             
 619:main_cm4.c    ****             /* Stop blinking LED: Client->Server connection is 'ON' */
 620:main_cm4.c    ****             Cy_TCPWM_TriggerReloadOrIndex(PWM_BLINK_HW,PWM_BLINK_CNT_NUM);
 621:main_cm4.c    ****             Cy_TCPWM_PWM_Disable(PWM_BLINK_HW,PWM_BLINK_CNT_NUM);
 622:main_cm4.c    ****             
 623:main_cm4.c    ****             /* Start dimming LED with default compare */ 
 624:main_cm4.c    ****             PWM_DIM_Start();        
 625:main_cm4.c    ****             break;
 626:main_cm4.c    ****             
 627:main_cm4.c    ****         /* This event is generated at the GAP Peripheral end after 
 628:main_cm4.c    ****            disconnection */
 629:main_cm4.c    ****         case CY_BLE_EVT_GATT_DISCONNECT_IND:
 630:main_cm4.c    ****             printf("CY_BLE_EVT_GATT_DISCONNECT_IND \r\n");
 631:main_cm4.c    ****             break;
 632:main_cm4.c    ****             
 633:main_cm4.c    ****         /*********************************************************************************
 634:main_cm4.c    ****          * This event is generated when the phone side send a write request
 635:main_cm4.c    ****          * Probe which GATT service/characteristic is called
 636:main_cm4.c    ****          *********************************************************************************/
 637:main_cm4.c    ****         case CY_BLE_EVT_GATTS_WRITE_REQ:
 638:main_cm4.c    ****             
 639:main_cm4.c    ****             printf("CY_BLE_EVT_GATTS_WRITE_REQ\r\n");
 640:main_cm4.c    ****             writeReqParameter = (cy_stc_ble_gatts_write_cmd_req_param_t *)eventParameter; 
 641:main_cm4.c    ****             
 642:main_cm4.c    ****             if(CY_BLE_LED_GREEN_CHAR_HANDLE == writeReqParameter->handleValPair.attrHandle)
 643:main_cm4.c    ****             {
 644:main_cm4.c    ****                 /*************************************************************************/
 645:main_cm4.c    ****                 /*        Read the handle and value
 646:main_cm4.c    ****                  *
 647:main_cm4.c    ****                  *        Attribute Value    
 648:main_cm4.c    ****                  *           cy_stc_ble_gatt_value_t              value;
 649:main_cm4.c    ****                  *
 650:main_cm4.c    ****                  *        Attribute Handle of GATT DB
 651:main_cm4.c    ****                  *           cy_ble_gatt_db_attr_handle_t         attrHandle;               
 652:main_cm4.c    ****                 *************************************************************************/
ARM GAS  C:\Users\seeho\AppData\Local\Temp\ccUkk7Dc.s 			page 15


 653:main_cm4.c    ****                 if( xSemaphoreTake( bleSemaphoreval, (TickType_t ) 10 ) == pdTRUE)
 654:main_cm4.c    ****                 {
 655:main_cm4.c    ****                     val = writeReqParameter->handleValPair.value.val[0];
 656:main_cm4.c    ****                     if(val>100) val = 100;
 657:main_cm4.c    ****                     
 658:main_cm4.c    ****                     xSemaphoreGive(bleSemaphoreval);               
 659:main_cm4.c    ****                 }
 660:main_cm4.c    ****                 else
 661:main_cm4.c    ****                 {
 662:main_cm4.c    ****                     /* We could not obtain the semaphore and can therefore not access
 663:main_cm4.c    ****                     the shared resource safely. */   
 664:main_cm4.c    ****                     printf("bleSemaphoreval error\r\n");
 665:main_cm4.c    ****                 }               
 666:main_cm4.c    ****                 
 667:main_cm4.c    ****                 Cy_TCPWM_PWM_SetCompare0(PWM_DIM_HW,PWM_DIM_CNT_NUM, val);
 668:main_cm4.c    ****                 
 669:main_cm4.c    ****             /* printf function call */
 670:main_cm4.c    ****             xSemaphoreTake( bleSemaphoreval, (TickType_t ) 10 );
 671:main_cm4.c    ****             writeDisplayEventHandler();
 672:main_cm4.c    ****             }
 673:main_cm4.c    ****             
 674:main_cm4.c    ****             //Cy_BLE_GATTS_WriteRsp(writeReqParameter->connHandle);
 675:main_cm4.c    ****             /* printf function call */
 676:main_cm4.c    ****             //xSemaphoreTake( bleSemaphoreval, (TickType_t ) 10 );
 677:main_cm4.c    ****             //writeDisplayEventHandler();
 678:main_cm4.c    ****             
 679:main_cm4.c    ****             /*************************************************************************
 680:main_cm4.c    ****              *        WRITE to the 'PA' Characteristic
 681:main_cm4.c    ****              *
 682:main_cm4.c    ****              *        Do nothing, just printf() for now                
 683:main_cm4.c    ****              *************************************************************************/
 684:main_cm4.c    ****             if(CY_BLE_LED_PA_CHAR_HANDLE == writeReqParameter->handleValPair.attrHandle)
 685:main_cm4.c    ****             {
 686:main_cm4.c    ****                 valPA = writeReqParameter->handleValPair.value.val[0];
 687:main_cm4.c    ****                 writeDisplayPA(); /* Actual function for future use */    
 688:main_cm4.c    ****             }
 689:main_cm4.c    ****             
 690:main_cm4.c    ****             /*************************************************************************
 691:main_cm4.c    ****              *        WRITE to the 'MUX' Characteristic
 692:main_cm4.c    ****              *
 693:main_cm4.c    ****              *        Do nothing, just printf() for now                
 694:main_cm4.c    ****              *************************************************************************/
 695:main_cm4.c    ****             if(CY_BLE_LED_MUX_CHAR_HANDLE == writeReqParameter->handleValPair.attrHandle)
 696:main_cm4.c    ****             {
 697:main_cm4.c    ****                 valMUX = writeReqParameter->handleValPair.value.val[0];
 698:main_cm4.c    ****                 writeDisplayMUX(); /* Actual function for future use */  
 699:main_cm4.c    ****             }
 700:main_cm4.c    ****             
 701:main_cm4.c    ****             /*************************************************************************
 702:main_cm4.c    ****              *        WRITE to the 'OSC' Characteristic
 703:main_cm4.c    ****              *
 704:main_cm4.c    ****              *        Do nothing, just printf() for now                
 705:main_cm4.c    ****              *************************************************************************/
 706:main_cm4.c    ****             if(CY_BLE_LED_OSC_CHAR_HANDLE == writeReqParameter->handleValPair.attrHandle)
 707:main_cm4.c    ****             {
 708:main_cm4.c    ****                 valOSC = writeReqParameter->handleValPair.value.val[0];
 709:main_cm4.c    ****                 writeDisplayOSC(); /* Actual function for future use */  
ARM GAS  C:\Users\seeho\AppData\Local\Temp\ccUkk7Dc.s 			page 16


 710:main_cm4.c    ****             }
 711:main_cm4.c    ****             
 712:main_cm4.c    ****             /*************************************************************************
 713:main_cm4.c    ****              *        WRITE to the 'MISC' Characteristic
 714:main_cm4.c    ****              *
 715:main_cm4.c    ****              *        Do nothing, just printf() for now                
 716:main_cm4.c    ****              *************************************************************************/
 717:main_cm4.c    ****             if(CY_BLE_LED_MISC_CHAR_HANDLE == writeReqParameter->handleValPair.attrHandle)
 718:main_cm4.c    ****             {
 719:main_cm4.c    ****                 valMISC = writeReqParameter->handleValPair.value.val[0];
 720:main_cm4.c    ****                 writeDisplayMISC(); /* Actual function for future use */   
 721:main_cm4.c    ****             }  
 722:main_cm4.c    ****             
 723:main_cm4.c    ****             /**************************************************************************
 724:main_cm4.c    ****             * Since this is the GATT service with WRITE + response..the end of that call
 725:main_cm4.c    ****             ***************************************************************************/
 726:main_cm4.c    ****             Cy_BLE_GATTS_WriteRsp(writeReqParameter->connHandle);     
 727:main_cm4.c    ****             break;
 728:main_cm4.c    ****          
 729:main_cm4.c    ****         /* This event is triggered when 'GATT MTU Exchange Request' 
 730:main_cm4.c    ****            received from GATT client device */
 731:main_cm4.c    ****         case CY_BLE_EVT_GATTS_XCNHG_MTU_REQ:
 732:main_cm4.c    ****             printf("CY_BLE_EVT_GATTS_XCNHG_MTU_REQ \r\n");
 733:main_cm4.c    ****             break;
 734:main_cm4.c    ****         
 735:main_cm4.c    ****         /* This event is triggered when a read received from GATT 
 736:main_cm4.c    ****            client device */
 737:main_cm4.c    ****         case CY_BLE_EVT_GATTS_READ_CHAR_VAL_ACCESS_REQ:
 738:main_cm4.c    ****             printf("CY_BLE_EVT_GATTS_READ_CHAR_VAL_ACCESS_REQ \r\n");
 739:main_cm4.c    ****             break;
 740:main_cm4.c    **** 
 741:main_cm4.c    ****         /**********************************************************
 742:main_cm4.c    ****         *                       Other Events
 743:main_cm4.c    ****         ***********************************************************/
 744:main_cm4.c    ****         default:
 745:main_cm4.c    ****             printf("Other event: %lx \r\n", (unsigned long) event);
 746:main_cm4.c    **** 			break;
 747:main_cm4.c    **** 	}
 748:main_cm4.c    **** }
 749:main_cm4.c    **** 
 750:main_cm4.c    **** /*****************************************************************************\
 751:main_cm4.c    ****  * Function:    bleInterruptNotify
 752:main_cm4.c    ****  * Input:       void (it is called inside of the ISR)
 753:main_cm4.c    ****  * Returns:     void
 754:main_cm4.c    ****  * Description: 
 755:main_cm4.c    ****  *   This is called back in the BLE ISR when an event has occured and needs to
 756:main_cm4.c    ****  *   be processed.  It will then set/give the sempahore to tell the BLE task to
 757:main_cm4.c    ****  *   process events.
 758:main_cm4.c    **** \*****************************************************************************/
 759:main_cm4.c    **** void bleInterruptNotify()
 760:main_cm4.c    **** {
 147              		.loc 1 760 0
 148              		.cfi_startproc
 149              		@ args = 0, pretend = 0, frame = 8
 150              		@ frame_needed = 0, uses_anonymous_args = 0
 151 0000 00B5     		push	{lr}
 152              		.cfi_def_cfa_offset 4
ARM GAS  C:\Users\seeho\AppData\Local\Temp\ccUkk7Dc.s 			page 17


 153              		.cfi_offset 14, -4
 154 0002 83B0     		sub	sp, sp, #12
 155              		.cfi_def_cfa_offset 16
 761:main_cm4.c    ****     BaseType_t xHigherPriorityTaskWoken;
 762:main_cm4.c    ****     xHigherPriorityTaskWoken = pdFALSE;
 156              		.loc 1 762 0
 157 0004 02A9     		add	r1, sp, #8
 158 0006 0023     		movs	r3, #0
 159 0008 41F8043D 		str	r3, [r1, #-4]!
 763:main_cm4.c    ****     xSemaphoreGiveFromISR(bleSemaphore, &xHigherPriorityTaskWoken); 
 160              		.loc 1 763 0
 161 000c 084B     		ldr	r3, .L10
 162 000e 1868     		ldr	r0, [r3]
 163 0010 FFF7FEFF 		bl	xQueueGiveFromISR
 164              	.LVL19:
 764:main_cm4.c    ****     portYIELD_FROM_ISR( xHigherPriorityTaskWoken );
 165              		.loc 1 764 0
 166 0014 019B     		ldr	r3, [sp, #4]
 167 0016 3BB1     		cbz	r3, .L7
 168              		.loc 1 764 0 is_stmt 0 discriminator 1
 169 0018 4FF08052 		mov	r2, #268435456
 170 001c 054B     		ldr	r3, .L10+4
 171 001e 1A60     		str	r2, [r3]
 172              		.syntax unified
 173              	@ 764 "main_cm4.c" 1
 174 0020 BFF34F8F 		dsb
 175              	@ 0 "" 2
 176              	@ 764 "main_cm4.c" 1
 177 0024 BFF36F8F 		isb
 178              	@ 0 "" 2
 179              		.thumb
 180              		.syntax unified
 181              	.L7:
 765:main_cm4.c    **** }
 182              		.loc 1 765 0 is_stmt 1
 183 0028 03B0     		add	sp, sp, #12
 184              		.cfi_def_cfa_offset 4
 185              		@ sp needed
 186 002a 5DF804FB 		ldr	pc, [sp], #4
 187              	.L11:
 188 002e 00BF     		.align	2
 189              	.L10:
 190 0030 00000000 		.word	bleSemaphore
 191 0034 04ED00E0 		.word	-536810236
 192              		.cfi_endproc
 193              	.LFE648:
 194              		.size	bleInterruptNotify, .-bleInterruptNotify
 195              		.section	.text.bleTask,"ax",%progbits
 196              		.align	2
 197              		.global	bleTask
 198              		.thumb
 199              		.thumb_func
 200              		.type	bleTask, %function
 201              	bleTask:
 202              	.LFB649:
 766:main_cm4.c    **** 
 767:main_cm4.c    **** /*****************************************************************************\
ARM GAS  C:\Users\seeho\AppData\Local\Temp\ccUkk7Dc.s 			page 18


 768:main_cm4.c    ****  * Function:    bleTask
 769:main_cm4.c    ****  * Input:       A FreeRTOS Task - void * that is unused
 770:main_cm4.c    ****  * Returns:     void
 771:main_cm4.c    ****  * Description: 
 772:main_cm4.c    ****  *  This task starts the BLE stack... and processes events when the bleSempahore
 773:main_cm4.c    ****  *  is set by the ISR.
 774:main_cm4.c    **** \*****************************************************************************/
 775:main_cm4.c    **** void bleTask(void *arg)
 776:main_cm4.c    **** {
 203              		.loc 1 776 0
 204              		.cfi_startproc
 205              		@ Volatile: function does not return.
 206              		@ args = 0, pretend = 0, frame = 0
 207              		@ frame_needed = 0, uses_anonymous_args = 0
 208              	.LVL20:
 209 0000 08B5     		push	{r3, lr}
 210              		.cfi_def_cfa_offset 8
 211              		.cfi_offset 3, -8
 212              		.cfi_offset 14, -4
 777:main_cm4.c    ****     (void)arg;
 778:main_cm4.c    ****     
 779:main_cm4.c    ****     printf("BLE Task Started\r\n");
 213              		.loc 1 779 0
 214 0002 1848     		ldr	r0, .L19
 215              	.LVL21:
 216 0004 FFF7FEFF 		bl	puts
 217              	.LVL22:
 780:main_cm4.c    ****     
 781:main_cm4.c    ****     /******************************************************************
 782:main_cm4.c    ****     * Create a counting semaphore that has a maximum count of 10 and an
 783:main_cm4.c    ****     initial count of 0. 
 784:main_cm4.c    ****     *******************************************************************/
 785:main_cm4.c    ****     /*                                      max     ,intial           */
 786:main_cm4.c    ****     bleSemaphore = xSemaphoreCreateCounting(UINT_MAX,0);
 218              		.loc 1 786 0
 219 0008 0021     		movs	r1, #0
 220 000a 4FF0FF30 		mov	r0, #-1
 221 000e FFF7FEFF 		bl	xQueueCreateCountingSemaphore
 222              	.LVL23:
 223 0012 154C     		ldr	r4, .L19+4
 224 0014 2060     		str	r0, [r4]
 787:main_cm4.c    ****     
 788:main_cm4.c    ****     /* Simple semaphore for the 'val' printf */
 789:main_cm4.c    ****     bleSemaphoreval = xSemaphoreCreateMutex();
 225              		.loc 1 789 0
 226 0016 0120     		movs	r0, #1
 227 0018 FFF7FEFF 		bl	xQueueCreateMutex
 228              	.LVL24:
 229 001c 134B     		ldr	r3, .L19+8
 230 001e 1860     		str	r0, [r3]
 790:main_cm4.c    ****     
 791:main_cm4.c    ****     /* The semaphore was created successfully. */
 792:main_cm4.c    ****     if(bleSemaphore != NULL) {
 231              		.loc 1 792 0
 232 0020 2368     		ldr	r3, [r4]
 233 0022 13B1     		cbz	r3, .L13
 793:main_cm4.c    ****         printf("'bleSemaphore' was created successfully \r\n");      
ARM GAS  C:\Users\seeho\AppData\Local\Temp\ccUkk7Dc.s 			page 19


 234              		.loc 1 793 0
 235 0024 1248     		ldr	r0, .L19+12
 236 0026 FFF7FEFF 		bl	puts
 237              	.LVL25:
 238              	.L13:
 794:main_cm4.c    ****     }
 795:main_cm4.c    ****     
 796:main_cm4.c    ****     /* The val printf semaphore was created successfully. */
 797:main_cm4.c    ****     if(bleSemaphoreval != NULL) {
 239              		.loc 1 797 0
 240 002a 104B     		ldr	r3, .L19+8
 241 002c 1B68     		ldr	r3, [r3]
 242 002e 13B1     		cbz	r3, .L14
 798:main_cm4.c    ****         printf("'bleSemaphoreval' was created successfully \r\n");      
 243              		.loc 1 798 0
 244 0030 1048     		ldr	r0, .L19+16
 245 0032 FFF7FEFF 		bl	puts
 246              	.LVL26:
 247              	.L14:
 799:main_cm4.c    ****     }
 800:main_cm4.c    ****     
 801:main_cm4.c    ****     
 802:main_cm4.c    ****     Cy_BLE_Start(genericEventHandler);
 248              		.loc 1 802 0
 249 0036 1048     		ldr	r0, .L19+20
 250 0038 FFF7FEFF 		bl	Cy_BLE_Start
 251              	.LVL27:
 803:main_cm4.c    ****     
 804:main_cm4.c    ****     while (Cy_BLE_GetState() != CY_BLE_STATE_ON)
 252              		.loc 1 804 0
 253 003c 01E0     		b	.L15
 254              	.L16:
 805:main_cm4.c    ****     {
 806:main_cm4.c    ****         Cy_BLE_ProcessEvents();    
 255              		.loc 1 806 0
 256 003e FFF7FEFF 		bl	Cy_BLE_ProcessEvents
 257              	.LVL28:
 258              	.L15:
 804:main_cm4.c    ****     {
 259              		.loc 1 804 0
 260 0042 0E4B     		ldr	r3, .L19+24
 261 0044 1B78     		ldrb	r3, [r3]	@ zero_extendqisi2
 262 0046 022B     		cmp	r3, #2
 263 0048 F9D1     		bne	.L16
 807:main_cm4.c    ****     }
 808:main_cm4.c    ****     
 809:main_cm4.c    ****     Cy_BLE_RegisterAppHostCallback(bleInterruptNotify);
 264              		.loc 1 809 0
 265 004a 0D48     		ldr	r0, .L19+28
 266 004c FFF7FEFF 		bl	Cy_BLE_RegisterAppHostCallback
 267              	.LVL29:
 268              	.L17:
 810:main_cm4.c    ****     
 811:main_cm4.c    ****     for(;;)
 812:main_cm4.c    ****     {
 813:main_cm4.c    ****         xSemaphoreTake(bleSemaphore, portMAX_DELAY);
 269              		.loc 1 813 0 discriminator 1
ARM GAS  C:\Users\seeho\AppData\Local\Temp\ccUkk7Dc.s 			page 20


 270 0050 4FF0FF31 		mov	r1, #-1
 271 0054 044B     		ldr	r3, .L19+4
 272 0056 1868     		ldr	r0, [r3]
 273 0058 FFF7FEFF 		bl	xQueueSemaphoreTake
 274              	.LVL30:
 814:main_cm4.c    ****         Cy_BLE_ProcessEvents();   
 275              		.loc 1 814 0 discriminator 1
 276 005c FFF7FEFF 		bl	Cy_BLE_ProcessEvents
 277              	.LVL31:
 278 0060 F6E7     		b	.L17
 279              	.L20:
 280 0062 00BF     		.align	2
 281              	.L19:
 282 0064 58000000 		.word	.LC3
 283 0068 00000000 		.word	bleSemaphore
 284 006c 00000000 		.word	bleSemaphoreval
 285 0070 6C000000 		.word	.LC4
 286 0074 98000000 		.word	.LC5
 287 0078 00000000 		.word	genericEventHandler
 288 007c 00000000 		.word	cy_ble_state
 289 0080 00000000 		.word	bleInterruptNotify
 290              		.cfi_endproc
 291              	.LFE649:
 292              		.size	bleTask, .-bleTask
 293              		.section	.text.CreateTimer_1,"ax",%progbits
 294              		.align	2
 295              		.global	CreateTimer_1
 296              		.thumb
 297              		.thumb_func
 298              		.type	CreateTimer_1, %function
 299              	CreateTimer_1:
 300              	.LFB640:
 112:main_cm4.c    **** printf("Creating one RTOS timer \r\n");
 301              		.loc 1 112 0
 302              		.cfi_startproc
 303              		@ args = 0, pretend = 0, frame = 0
 304              		@ frame_needed = 0, uses_anonymous_args = 0
 305 0000 10B5     		push	{r4, lr}
 306              		.cfi_def_cfa_offset 8
 307              		.cfi_offset 4, -8
 308              		.cfi_offset 14, -4
 309 0002 82B0     		sub	sp, sp, #8
 310              		.cfi_def_cfa_offset 16
 113:main_cm4.c    **** 
 311              		.loc 1 113 0
 312 0004 1148     		ldr	r0, .L25
 313 0006 FFF7FEFF 		bl	puts
 314              	.LVL32:
 115:main_cm4.c    ****    ( /* Just a text name, not used by the RTOS
 315              		.loc 1 115 0
 316 000a 114B     		ldr	r3, .L25+4
 317 000c 0093     		str	r3, [sp]
 318 000e 0023     		movs	r3, #0
 319 0010 0122     		movs	r2, #1
 320 0012 6421     		movs	r1, #100
 321 0014 0F48     		ldr	r0, .L25+8
 322 0016 FFF7FEFF 		bl	xTimerCreate
ARM GAS  C:\Users\seeho\AppData\Local\Temp\ccUkk7Dc.s 			page 21


 323              	.LVL33:
 324 001a 0F4B     		ldr	r3, .L25+12
 325 001c 1860     		str	r0, [r3]
 132:main_cm4.c    ****      {
 326              		.loc 1 132 0
 327 001e 18B9     		cbnz	r0, .L22
 134:main_cm4.c    ****      }
 328              		.loc 1 134 0
 329 0020 0E48     		ldr	r0, .L25+16
 330 0022 FFF7FEFF 		bl	puts
 331              	.LVL34:
 332 0026 0EE0     		b	.L21
 333              	.L22:
 334 0028 0446     		mov	r4, r0
 140:main_cm4.c    ****  {
 335              		.loc 1 140 0
 336 002a FFF7FEFF 		bl	xTaskGetTickCount
 337              	.LVL35:
 338 002e 0023     		movs	r3, #0
 339 0030 0093     		str	r3, [sp]
 340 0032 0246     		mov	r2, r0
 341 0034 0121     		movs	r1, #1
 342 0036 2046     		mov	r0, r4
 343 0038 FFF7FEFF 		bl	xTimerGenericCommand
 344              	.LVL36:
 345 003c 0128     		cmp	r0, #1
 346 003e 02D0     		beq	.L21
 142:main_cm4.c    ****  }
 347              		.loc 1 142 0
 348 0040 0748     		ldr	r0, .L25+20
 349 0042 FFF7FEFF 		bl	puts
 350              	.LVL37:
 351              	.L21:
 145:main_cm4.c    **** 
 352              		.loc 1 145 0
 353 0046 02B0     		add	sp, sp, #8
 354              		.cfi_def_cfa_offset 8
 355              		@ sp needed
 356 0048 10BD     		pop	{r4, pc}
 357              	.L26:
 358 004a 00BF     		.align	2
 359              	.L25:
 360 004c C8000000 		.word	.LC6
 361 0050 00000000 		.word	vTimerCallback
 362 0054 E4000000 		.word	.LC7
 363 0058 00000000 		.word	xtimer
 364 005c EC000000 		.word	.LC8
 365 0060 08010000 		.word	.LC9
 366              		.cfi_endproc
 367              	.LFE640:
 368              		.size	CreateTimer_1, .-CreateTimer_1
 369              		.section	.text.writeDisplayEventHandler,"ax",%progbits
 370              		.align	2
 371              		.global	writeDisplayEventHandler
 372              		.thumb
 373              		.thumb_func
 374              		.type	writeDisplayEventHandler, %function
ARM GAS  C:\Users\seeho\AppData\Local\Temp\ccUkk7Dc.s 			page 22


 375              	writeDisplayEventHandler:
 376              	.LFB641:
 156:main_cm4.c    ****     printf("'Semaphored' HEX Value received for the GATT Client: %x \r\n", val);
 377              		.loc 1 156 0
 378              		.cfi_startproc
 379              		@ args = 0, pretend = 0, frame = 0
 380              		@ frame_needed = 0, uses_anonymous_args = 0
 381 0000 08B5     		push	{r3, lr}
 382              		.cfi_def_cfa_offset 8
 383              		.cfi_offset 3, -8
 384              		.cfi_offset 14, -4
 157:main_cm4.c    ****     xSemaphoreGive(bleSemaphoreval);
 385              		.loc 1 157 0
 386 0002 064B     		ldr	r3, .L29
 387 0004 5968     		ldr	r1, [r3, #4]
 388 0006 0648     		ldr	r0, .L29+4
 389 0008 FFF7FEFF 		bl	printf
 390              	.LVL38:
 158:main_cm4.c    **** } 
 391              		.loc 1 158 0
 392 000c 0023     		movs	r3, #0
 393 000e 1A46     		mov	r2, r3
 394 0010 1946     		mov	r1, r3
 395 0012 0448     		ldr	r0, .L29+8
 396 0014 0068     		ldr	r0, [r0]
 397 0016 FFF7FEFF 		bl	xQueueGenericSend
 398              	.LVL39:
 399 001a 08BD     		pop	{r3, pc}
 400              	.L30:
 401              		.align	2
 402              	.L29:
 403 001c 00000000 		.word	.LANCHOR0
 404 0020 3C010000 		.word	.LC10
 405 0024 00000000 		.word	bleSemaphoreval
 406              		.cfi_endproc
 407              	.LFE641:
 408              		.size	writeDisplayEventHandler, .-writeDisplayEventHandler
 409              		.section	.text.GPIOInit_1,"ax",%progbits
 410              		.align	2
 411              		.global	GPIOInit_1
 412              		.thumb
 413              		.thumb_func
 414              		.type	GPIOInit_1, %function
 415              	GPIOInit_1:
 416              	.LFB642:
 170:main_cm4.c    ****     /* PA */
 417              		.loc 1 170 0
 418              		.cfi_startproc
 419              		@ args = 0, pretend = 0, frame = 0
 420              		@ frame_needed = 0, uses_anonymous_args = 0
 421 0000 38B5     		push	{r3, r4, r5, lr}
 422              		.cfi_def_cfa_offset 16
 423              		.cfi_offset 3, -16
 424              		.cfi_offset 4, -12
 425              		.cfi_offset 5, -8
 426              		.cfi_offset 14, -4
 172:main_cm4.c    ****     Cy_GPIO_Pin_Init(PA1_0_PORT, PA1_0_NUM, 0UL);
ARM GAS  C:\Users\seeho\AppData\Local\Temp\ccUkk7Dc.s 			page 23


 427              		.loc 1 172 0
 428 0002 2C4C     		ldr	r4, .L33
 429 0004 0022     		movs	r2, #0
 430 0006 0321     		movs	r1, #3
 431 0008 2046     		mov	r0, r4
 432 000a FFF7FEFF 		bl	Cy_GPIO_Pin_Init
 433              	.LVL40:
 173:main_cm4.c    ****     Cy_GPIO_Pin_Init(PA2_0_PORT, PA2_0_NUM, 0UL);
 434              		.loc 1 173 0
 435 000e 0022     		movs	r2, #0
 436 0010 0221     		movs	r1, #2
 437 0012 2046     		mov	r0, r4
 438 0014 FFF7FEFF 		bl	Cy_GPIO_Pin_Init
 439              	.LVL41:
 174:main_cm4.c    ****     Cy_GPIO_Pin_Init(PA3_0_PORT, PA3_0_NUM, 0UL);
 440              		.loc 1 174 0
 441 0018 0022     		movs	r2, #0
 442 001a 0121     		movs	r1, #1
 443 001c 2046     		mov	r0, r4
 444 001e FFF7FEFF 		bl	Cy_GPIO_Pin_Init
 445              	.LVL42:
 175:main_cm4.c    ****     
 446              		.loc 1 175 0
 447 0022 0022     		movs	r2, #0
 448 0024 1146     		mov	r1, r2
 449 0026 2046     		mov	r0, r4
 450 0028 FFF7FEFF 		bl	Cy_GPIO_Pin_Init
 451              	.LVL43:
 178:main_cm4.c    ****     Cy_GPIO_Pin_Init(MUX1_0_PORT, MUX1_0_NUM, 0UL);
 452              		.loc 1 178 0
 453 002c 224D     		ldr	r5, .L33+4
 454 002e 0022     		movs	r2, #0
 455 0030 0221     		movs	r1, #2
 456 0032 2846     		mov	r0, r5
 457 0034 FFF7FEFF 		bl	Cy_GPIO_Pin_Init
 458              	.LVL44:
 179:main_cm4.c    ****     Cy_GPIO_Pin_Init(MUX2_0_PORT, MUX2_0_NUM, 0UL);
 459              		.loc 1 179 0
 460 0038 0022     		movs	r2, #0
 461 003a 0321     		movs	r1, #3
 462 003c 2846     		mov	r0, r5
 463 003e FFF7FEFF 		bl	Cy_GPIO_Pin_Init
 464              	.LVL45:
 180:main_cm4.c    ****     Cy_GPIO_Pin_Init(MUX3_0_PORT, MUX3_0_NUM, 0UL);
 465              		.loc 1 180 0
 466 0042 0022     		movs	r2, #0
 467 0044 0421     		movs	r1, #4
 468 0046 2846     		mov	r0, r5
 469 0048 FFF7FEFF 		bl	Cy_GPIO_Pin_Init
 470              	.LVL46:
 181:main_cm4.c    ****     Cy_GPIO_Pin_Init(MUX_EN_0_PORT, MUX_EN_0_NUM, 0UL);
 471              		.loc 1 181 0
 472 004c 0022     		movs	r2, #0
 473 004e 0521     		movs	r1, #5
 474 0050 2846     		mov	r0, r5
 475 0052 FFF7FEFF 		bl	Cy_GPIO_Pin_Init
 476              	.LVL47:
ARM GAS  C:\Users\seeho\AppData\Local\Temp\ccUkk7Dc.s 			page 24


 182:main_cm4.c    ****     
 477              		.loc 1 182 0
 478 0056 0022     		movs	r2, #0
 479 0058 0621     		movs	r1, #6
 480 005a 2846     		mov	r0, r5
 481 005c FFF7FEFF 		bl	Cy_GPIO_Pin_Init
 482              	.LVL48:
 185:main_cm4.c    ****     Cy_GPIO_Pin_Init(OSC1_0_PORT, OSC1_0_NUM, 0UL);
 483              		.loc 1 185 0
 484 0060 0022     		movs	r2, #0
 485 0062 0421     		movs	r1, #4
 486 0064 2046     		mov	r0, r4
 487 0066 FFF7FEFF 		bl	Cy_GPIO_Pin_Init
 488              	.LVL49:
 186:main_cm4.c    ****     Cy_GPIO_Pin_Init(OSC2_0_PORT, OSC2_0_NUM, 0UL);
 489              		.loc 1 186 0
 490 006a 0022     		movs	r2, #0
 491 006c 0521     		movs	r1, #5
 492 006e 2046     		mov	r0, r4
 493 0070 FFF7FEFF 		bl	Cy_GPIO_Pin_Init
 494              	.LVL50:
 187:main_cm4.c    ****     
 495              		.loc 1 187 0
 496 0074 0022     		movs	r2, #0
 497 0076 0621     		movs	r1, #6
 498 0078 2046     		mov	r0, r4
 499 007a FFF7FEFF 		bl	Cy_GPIO_Pin_Init
 500              	.LVL51:
 190:main_cm4.c    ****     Cy_GPIO_Pin_Init(MISC1_0_PORT, MISC1_0_NUM, 0UL);
 501              		.loc 1 190 0
 502 007e 8034     		adds	r4, r4, #128
 503 0080 0022     		movs	r2, #0
 504 0082 1146     		mov	r1, r2
 505 0084 2046     		mov	r0, r4
 506 0086 FFF7FEFF 		bl	Cy_GPIO_Pin_Init
 507              	.LVL52:
 191:main_cm4.c    ****     Cy_GPIO_Pin_Init(MISC2_0_PORT, MISC2_0_NUM, 0UL);
 508              		.loc 1 191 0
 509 008a 0022     		movs	r2, #0
 510 008c 0121     		movs	r1, #1
 511 008e 2046     		mov	r0, r4
 512 0090 FFF7FEFF 		bl	Cy_GPIO_Pin_Init
 513              	.LVL53:
 192:main_cm4.c    ****     Cy_GPIO_Pin_Init(MISC3_0_PORT, MISC3_0_NUM, 0UL);
 514              		.loc 1 192 0
 515 0094 0022     		movs	r2, #0
 516 0096 0221     		movs	r1, #2
 517 0098 2046     		mov	r0, r4
 518 009a FFF7FEFF 		bl	Cy_GPIO_Pin_Init
 519              	.LVL54:
 193:main_cm4.c    ****     
 520              		.loc 1 193 0
 521 009e 0022     		movs	r2, #0
 522 00a0 0321     		movs	r1, #3
 523 00a2 2046     		mov	r0, r4
 524 00a4 FFF7FEFF 		bl	Cy_GPIO_Pin_Init
 525              	.LVL55:
ARM GAS  C:\Users\seeho\AppData\Local\Temp\ccUkk7Dc.s 			page 25


 196:main_cm4.c    **** }   
 526              		.loc 1 196 0
 527 00a8 0022     		movs	r2, #0
 528 00aa 0421     		movs	r1, #4
 529 00ac 0348     		ldr	r0, .L33+8
 530 00ae FFF7FEFF 		bl	Cy_GPIO_Pin_Init
 531              	.LVL56:
 532 00b2 38BD     		pop	{r3, r4, r5, pc}
 533              	.L34:
 534              		.align	2
 535              	.L33:
 536 00b4 80043240 		.word	1077019776
 537 00b8 80023240 		.word	1077019264
 538 00bc 00003240 		.word	1077018624
 539              		.cfi_endproc
 540              	.LFE642:
 541              		.size	GPIOInit_1, .-GPIOInit_1
 542              		.section	.text.writeDisplayPA,"ax",%progbits
 543              		.align	2
 544              		.global	writeDisplayPA
 545              		.thumb
 546              		.thumb_func
 547              		.type	writeDisplayPA, %function
 548              	writeDisplayPA:
 549              	.LFB643:
 210:main_cm4.c    ****     printf("PA GATT Client: %x \r\n", valPA);
 550              		.loc 1 210 0
 551              		.cfi_startproc
 552              		@ args = 0, pretend = 0, frame = 0
 553              		@ frame_needed = 0, uses_anonymous_args = 0
 554 0000 10B5     		push	{r4, lr}
 555              		.cfi_def_cfa_offset 8
 556              		.cfi_offset 4, -8
 557              		.cfi_offset 14, -4
 211:main_cm4.c    ****     
 558              		.loc 1 211 0
 559 0002 644C     		ldr	r4, .L53
 560 0004 2168     		ldr	r1, [r4]
 561 0006 6448     		ldr	r0, .L53+4
 562 0008 FFF7FEFF 		bl	printf
 563              	.LVL57:
 213:main_cm4.c    **** 	{
 564              		.loc 1 213 0
 565 000c 2368     		ldr	r3, [r4]
 566 000e 0C2B     		cmp	r3, #12
 567 0010 00F2B280 		bhi	.L36
 568 0014 DFE803F0 		tbb	[pc, r3]
 569              	.L38:
 570 0018 07       		.byte	(.L37-.L38)/2
 571 0019 14       		.byte	(.L39-.L38)/2
 572 001a 21       		.byte	(.L40-.L38)/2
 573 001b 2E       		.byte	(.L41-.L38)/2
 574 001c 3B       		.byte	(.L42-.L38)/2
 575 001d 48       		.byte	(.L43-.L38)/2
 576 001e 55       		.byte	(.L44-.L38)/2
 577 001f 62       		.byte	(.L45-.L38)/2
 578 0020 6F       		.byte	(.L46-.L38)/2
ARM GAS  C:\Users\seeho\AppData\Local\Temp\ccUkk7Dc.s 			page 26


 579 0021 7C       		.byte	(.L47-.L38)/2
 580 0022 89       		.byte	(.L48-.L38)/2
 581 0023 96       		.byte	(.L49-.L38)/2
 582 0024 A3       		.byte	(.L50-.L38)/2
 583 0025 00       		.p2align 1
 584              	.L37:
 216:main_cm4.c    ****             Cy_GPIO_Write(PA0_0_PORT, PA0_0_NUM, 0UL);
 585              		.loc 1 216 0
 586 0026 5D48     		ldr	r0, .L53+8
 587 0028 FFF7FEFF 		bl	puts
 588              	.LVL58:
 589              	.LBB255:
 590              	.LBB256:
 591              		.file 2 "Generated_Source\\PSoC6\\pdl\\drivers/peripheral/gpio/cy_gpio.h"
   1:Generated_Source\PSoC6\pdl\drivers/peripheral/gpio/cy_gpio.h **** /***************************************************************************//**
   2:Generated_Source\PSoC6\pdl\drivers/peripheral/gpio/cy_gpio.h **** * \file cy_gpio.h
   3:Generated_Source\PSoC6\pdl\drivers/peripheral/gpio/cy_gpio.h **** * \version 1.20
   4:Generated_Source\PSoC6\pdl\drivers/peripheral/gpio/cy_gpio.h **** *
   5:Generated_Source\PSoC6\pdl\drivers/peripheral/gpio/cy_gpio.h **** * Provides an API declaration of the GPIO driver
   6:Generated_Source\PSoC6\pdl\drivers/peripheral/gpio/cy_gpio.h **** *
   7:Generated_Source\PSoC6\pdl\drivers/peripheral/gpio/cy_gpio.h **** ********************************************************************************
   8:Generated_Source\PSoC6\pdl\drivers/peripheral/gpio/cy_gpio.h **** * \copyright
   9:Generated_Source\PSoC6\pdl\drivers/peripheral/gpio/cy_gpio.h **** * Copyright 2016-2018, Cypress Semiconductor Corporation. All rights reserved.
  10:Generated_Source\PSoC6\pdl\drivers/peripheral/gpio/cy_gpio.h **** * You may use this file only in accordance with the license, terms, conditions,
  11:Generated_Source\PSoC6\pdl\drivers/peripheral/gpio/cy_gpio.h **** * disclaimers, and limitations in the end user license agreement accompanying
  12:Generated_Source\PSoC6\pdl\drivers/peripheral/gpio/cy_gpio.h **** * the software package with which this file was provided.
  13:Generated_Source\PSoC6\pdl\drivers/peripheral/gpio/cy_gpio.h **** *******************************************************************************/
  14:Generated_Source\PSoC6\pdl\drivers/peripheral/gpio/cy_gpio.h **** 
  15:Generated_Source\PSoC6\pdl\drivers/peripheral/gpio/cy_gpio.h **** /**
  16:Generated_Source\PSoC6\pdl\drivers/peripheral/gpio/cy_gpio.h **** * \addtogroup group_gpio
  17:Generated_Source\PSoC6\pdl\drivers/peripheral/gpio/cy_gpio.h **** * \{
  18:Generated_Source\PSoC6\pdl\drivers/peripheral/gpio/cy_gpio.h **** * The GPIO driver provides an API to configure and access device Input/Output pins.
  19:Generated_Source\PSoC6\pdl\drivers/peripheral/gpio/cy_gpio.h **** *
  20:Generated_Source\PSoC6\pdl\drivers/peripheral/gpio/cy_gpio.h **** * The functions and other declarations used in this driver are in cy_gpio.h. 
  21:Generated_Source\PSoC6\pdl\drivers/peripheral/gpio/cy_gpio.h **** * You can include cy_pdl.h (ModusToolbox only) to get access to all functions 
  22:Generated_Source\PSoC6\pdl\drivers/peripheral/gpio/cy_gpio.h **** * and declarations in the PDL.
  23:Generated_Source\PSoC6\pdl\drivers/peripheral/gpio/cy_gpio.h **** *
  24:Generated_Source\PSoC6\pdl\drivers/peripheral/gpio/cy_gpio.h **** * IO pins include all general purpose types such as GPIO, SIO, HSIO, AUXIO, and
  25:Generated_Source\PSoC6\pdl\drivers/peripheral/gpio/cy_gpio.h **** * their variants.
  26:Generated_Source\PSoC6\pdl\drivers/peripheral/gpio/cy_gpio.h **** *
  27:Generated_Source\PSoC6\pdl\drivers/peripheral/gpio/cy_gpio.h **** * Initialization can be performed either at the port level or by configuring the
  28:Generated_Source\PSoC6\pdl\drivers/peripheral/gpio/cy_gpio.h **** * individual pins. For efficient use of code space, port
  29:Generated_Source\PSoC6\pdl\drivers/peripheral/gpio/cy_gpio.h **** * configuration should be used in the field. Refer to the product device header files 
  30:Generated_Source\PSoC6\pdl\drivers/peripheral/gpio/cy_gpio.h **** * for the list of supported ports and pins.
  31:Generated_Source\PSoC6\pdl\drivers/peripheral/gpio/cy_gpio.h **** * 
  32:Generated_Source\PSoC6\pdl\drivers/peripheral/gpio/cy_gpio.h **** * - Single pin configuration is performed by using \ref Cy_GPIO_Pin_FastInit 
  33:Generated_Source\PSoC6\pdl\drivers/peripheral/gpio/cy_gpio.h **** *   (provide specific values) or \ref Cy_GPIO_Pin_Init (provide a filled
  34:Generated_Source\PSoC6\pdl\drivers/peripheral/gpio/cy_gpio.h **** *   cy_stc_gpio_pin_config_t structure).
  35:Generated_Source\PSoC6\pdl\drivers/peripheral/gpio/cy_gpio.h **** * - An entire port can be configured using \ref Cy_GPIO_Port_Init. Provide a filled 
  36:Generated_Source\PSoC6\pdl\drivers/peripheral/gpio/cy_gpio.h **** *   cy_stc_gpio_prt_config_t structure. The values in the structure are 
  37:Generated_Source\PSoC6\pdl\drivers/peripheral/gpio/cy_gpio.h **** *   bitfields representing the desired value for each pin in the port.
  38:Generated_Source\PSoC6\pdl\drivers/peripheral/gpio/cy_gpio.h **** * - Pin configuration and management is based on the port address and pin number.
  39:Generated_Source\PSoC6\pdl\drivers/peripheral/gpio/cy_gpio.h **** *   \ref Cy_GPIO_PortToAddr function can optionally be used to calculate the port
  40:Generated_Source\PSoC6\pdl\drivers/peripheral/gpio/cy_gpio.h **** *   address from the port number at run-time.
  41:Generated_Source\PSoC6\pdl\drivers/peripheral/gpio/cy_gpio.h **** *
  42:Generated_Source\PSoC6\pdl\drivers/peripheral/gpio/cy_gpio.h **** * Once the pin/port initialization is complete, each pin can be accessed by 
  43:Generated_Source\PSoC6\pdl\drivers/peripheral/gpio/cy_gpio.h **** * specifying the port (GPIO_PRT_Type) and the pin (0-7) in the provided API 
ARM GAS  C:\Users\seeho\AppData\Local\Temp\ccUkk7Dc.s 			page 27


  44:Generated_Source\PSoC6\pdl\drivers/peripheral/gpio/cy_gpio.h **** * functions.
  45:Generated_Source\PSoC6\pdl\drivers/peripheral/gpio/cy_gpio.h **** *
  46:Generated_Source\PSoC6\pdl\drivers/peripheral/gpio/cy_gpio.h **** * \section group_gpio_configuration Configuration Considerations
  47:Generated_Source\PSoC6\pdl\drivers/peripheral/gpio/cy_gpio.h **** *
  48:Generated_Source\PSoC6\pdl\drivers/peripheral/gpio/cy_gpio.h **** * 1. Pin multiplexing is controlled through the High-Speed IO Matrix (HSIOM) selection.
  49:Generated_Source\PSoC6\pdl\drivers/peripheral/gpio/cy_gpio.h **** *    This allows the pin to connect to signal sources/sinks throughout the device,
  50:Generated_Source\PSoC6\pdl\drivers/peripheral/gpio/cy_gpio.h **** *    as defined by the pin HSIOM selection options (en_hsiom_sel_t).
  51:Generated_Source\PSoC6\pdl\drivers/peripheral/gpio/cy_gpio.h **** * 2. All pins are initialized to High-Z drive mode with HSIOM connected to CPU (SW
  52:Generated_Source\PSoC6\pdl\drivers/peripheral/gpio/cy_gpio.h **** *    control digital pin only) at Power-On-Reset(POR).
  53:Generated_Source\PSoC6\pdl\drivers/peripheral/gpio/cy_gpio.h **** * 3. Some API functions perform read-modify-write operations on shared port
  54:Generated_Source\PSoC6\pdl\drivers/peripheral/gpio/cy_gpio.h **** *    registers. These functions are not thread safe and care must be taken when
  55:Generated_Source\PSoC6\pdl\drivers/peripheral/gpio/cy_gpio.h **** *    called by the application.
  56:Generated_Source\PSoC6\pdl\drivers/peripheral/gpio/cy_gpio.h **** * 4. Digital input buffer provides a high-impedance buffer for the external 
  57:Generated_Source\PSoC6\pdl\drivers/peripheral/gpio/cy_gpio.h **** *    digital input. The input buffer is connected to the HSIOM for routing to 
  58:Generated_Source\PSoC6\pdl\drivers/peripheral/gpio/cy_gpio.h **** *    the CPU port registers and selected peripheral. Enabling the input 
  59:Generated_Source\PSoC6\pdl\drivers/peripheral/gpio/cy_gpio.h **** *    buffer provides possibility to read the pin state via the CPU.
  60:Generated_Source\PSoC6\pdl\drivers/peripheral/gpio/cy_gpio.h **** *    If pin is connected to an analog signal, the input buffer should be 
  61:Generated_Source\PSoC6\pdl\drivers/peripheral/gpio/cy_gpio.h **** *    disabled to avoid crowbar currents. For more information refer to device 
  62:Generated_Source\PSoC6\pdl\drivers/peripheral/gpio/cy_gpio.h **** *    TRM and the device datasheet.
  63:Generated_Source\PSoC6\pdl\drivers/peripheral/gpio/cy_gpio.h **** *
  64:Generated_Source\PSoC6\pdl\drivers/peripheral/gpio/cy_gpio.h **** * Multiple pins on a port can be updated using direct port register writes with an
  65:Generated_Source\PSoC6\pdl\drivers/peripheral/gpio/cy_gpio.h **** * appropriate port mask. An example is shown below, highlighting the different ways of 
  66:Generated_Source\PSoC6\pdl\drivers/peripheral/gpio/cy_gpio.h **** * configuring Port 1 pins using:
  67:Generated_Source\PSoC6\pdl\drivers/peripheral/gpio/cy_gpio.h **** * 
  68:Generated_Source\PSoC6\pdl\drivers/peripheral/gpio/cy_gpio.h **** * - Port output data register
  69:Generated_Source\PSoC6\pdl\drivers/peripheral/gpio/cy_gpio.h **** * - Port output data set register
  70:Generated_Source\PSoC6\pdl\drivers/peripheral/gpio/cy_gpio.h **** * - Port output data clear register
  71:Generated_Source\PSoC6\pdl\drivers/peripheral/gpio/cy_gpio.h **** *
  72:Generated_Source\PSoC6\pdl\drivers/peripheral/gpio/cy_gpio.h **** * \snippet gpio/gpio_v1_10_sut_01.cydsn/main_cm4.c Cy_GPIO_Snippet
  73:Generated_Source\PSoC6\pdl\drivers/peripheral/gpio/cy_gpio.h **** *
  74:Generated_Source\PSoC6\pdl\drivers/peripheral/gpio/cy_gpio.h **** * \section group_gpio_more_information More Information
  75:Generated_Source\PSoC6\pdl\drivers/peripheral/gpio/cy_gpio.h **** *
  76:Generated_Source\PSoC6\pdl\drivers/peripheral/gpio/cy_gpio.h **** * Refer to the technical reference manual (TRM) and the device datasheet.
  77:Generated_Source\PSoC6\pdl\drivers/peripheral/gpio/cy_gpio.h **** *
  78:Generated_Source\PSoC6\pdl\drivers/peripheral/gpio/cy_gpio.h **** * \section group_gpio_MISRA MISRA-C Compliance
  79:Generated_Source\PSoC6\pdl\drivers/peripheral/gpio/cy_gpio.h **** * The GPIO driver has the following specific deviations:
  80:Generated_Source\PSoC6\pdl\drivers/peripheral/gpio/cy_gpio.h **** *
  81:Generated_Source\PSoC6\pdl\drivers/peripheral/gpio/cy_gpio.h **** * <table class="doxtable">
  82:Generated_Source\PSoC6\pdl\drivers/peripheral/gpio/cy_gpio.h **** *   <tr>
  83:Generated_Source\PSoC6\pdl\drivers/peripheral/gpio/cy_gpio.h **** *     <th>MISRA Rule</th>
  84:Generated_Source\PSoC6\pdl\drivers/peripheral/gpio/cy_gpio.h **** *     <th>Rule Class (Required/Advisory)</th>
  85:Generated_Source\PSoC6\pdl\drivers/peripheral/gpio/cy_gpio.h **** *     <th>Rule Description</th>
  86:Generated_Source\PSoC6\pdl\drivers/peripheral/gpio/cy_gpio.h **** *     <th>Description of Deviation(s)</th>
  87:Generated_Source\PSoC6\pdl\drivers/peripheral/gpio/cy_gpio.h **** *   </tr>
  88:Generated_Source\PSoC6\pdl\drivers/peripheral/gpio/cy_gpio.h **** *   <tr>
  89:Generated_Source\PSoC6\pdl\drivers/peripheral/gpio/cy_gpio.h **** *     <td>11.4</td>
  90:Generated_Source\PSoC6\pdl\drivers/peripheral/gpio/cy_gpio.h **** *     <td>A</td>
  91:Generated_Source\PSoC6\pdl\drivers/peripheral/gpio/cy_gpio.h **** *     <td>A cast should not be performed between a pointer to object type and
  92:Generated_Source\PSoC6\pdl\drivers/peripheral/gpio/cy_gpio.h **** *         a different pointer to object type.</td>
  93:Generated_Source\PSoC6\pdl\drivers/peripheral/gpio/cy_gpio.h **** *     <td> This code is safe because the elements of both GPIO_PRT_V1_Type and GPIO_PRT_V2_Type 
  94:Generated_Source\PSoC6\pdl\drivers/peripheral/gpio/cy_gpio.h **** *          types have identical alignment.</td>
  95:Generated_Source\PSoC6\pdl\drivers/peripheral/gpio/cy_gpio.h **** *   </tr>
  96:Generated_Source\PSoC6\pdl\drivers/peripheral/gpio/cy_gpio.h **** *   <tr>
  97:Generated_Source\PSoC6\pdl\drivers/peripheral/gpio/cy_gpio.h **** *     <td>16.7</td>
  98:Generated_Source\PSoC6\pdl\drivers/peripheral/gpio/cy_gpio.h **** *     <td>A</td>
  99:Generated_Source\PSoC6\pdl\drivers/peripheral/gpio/cy_gpio.h **** *     <td>A pointer parameter in a function prototype should be declared as pointer 
 100:Generated_Source\PSoC6\pdl\drivers/peripheral/gpio/cy_gpio.h **** *         to const if the pointer is not used to modify the addressed object.</td>
ARM GAS  C:\Users\seeho\AppData\Local\Temp\ccUkk7Dc.s 			page 28


 101:Generated_Source\PSoC6\pdl\drivers/peripheral/gpio/cy_gpio.h **** *     <td>The objects pointed to by the base addresses of the GPIO port are not always modified.
 102:Generated_Source\PSoC6\pdl\drivers/peripheral/gpio/cy_gpio.h **** *         While a const qualifier can be used in select scenarios, it brings little benefit
 103:Generated_Source\PSoC6\pdl\drivers/peripheral/gpio/cy_gpio.h **** *         in adding this to the affected functions. </td>
 104:Generated_Source\PSoC6\pdl\drivers/peripheral/gpio/cy_gpio.h **** *   </tr>
 105:Generated_Source\PSoC6\pdl\drivers/peripheral/gpio/cy_gpio.h **** * </table>
 106:Generated_Source\PSoC6\pdl\drivers/peripheral/gpio/cy_gpio.h **** *
 107:Generated_Source\PSoC6\pdl\drivers/peripheral/gpio/cy_gpio.h **** * \section group_gpio_changelog Changelog
 108:Generated_Source\PSoC6\pdl\drivers/peripheral/gpio/cy_gpio.h **** * <table class="doxtable">
 109:Generated_Source\PSoC6\pdl\drivers/peripheral/gpio/cy_gpio.h **** *   <tr><th>Version</th><th>Changes</th><th>Reason for Change</th></tr>
 110:Generated_Source\PSoC6\pdl\drivers/peripheral/gpio/cy_gpio.h **** *   <tr>
 111:Generated_Source\PSoC6\pdl\drivers/peripheral/gpio/cy_gpio.h **** *     <td rowspan="3">1.20</td>
 112:Generated_Source\PSoC6\pdl\drivers/peripheral/gpio/cy_gpio.h **** *     <td>Flattened the organization of the driver source code into the single source directory and
 113:Generated_Source\PSoC6\pdl\drivers/peripheral/gpio/cy_gpio.h **** *     <td>Driver library directory-structure simplification.</td>
 114:Generated_Source\PSoC6\pdl\drivers/peripheral/gpio/cy_gpio.h **** *   </tr>
 115:Generated_Source\PSoC6\pdl\drivers/peripheral/gpio/cy_gpio.h **** *   <tr>
 116:Generated_Source\PSoC6\pdl\drivers/peripheral/gpio/cy_gpio.h **** *     <td>Added the functions for configuring the AMux bus splitter switch cells:
 117:Generated_Source\PSoC6\pdl\drivers/peripheral/gpio/cy_gpio.h **** *     - \ref Cy_GPIO_SetAmuxSplit
 118:Generated_Source\PSoC6\pdl\drivers/peripheral/gpio/cy_gpio.h **** *     - \ref Cy_GPIO_GetAmuxSplit
 119:Generated_Source\PSoC6\pdl\drivers/peripheral/gpio/cy_gpio.h **** *     </td>
 120:Generated_Source\PSoC6\pdl\drivers/peripheral/gpio/cy_gpio.h **** *     <td>Added a new functionality related to AMux bus.</td>
 121:Generated_Source\PSoC6\pdl\drivers/peripheral/gpio/cy_gpio.h **** *   </tr>
 122:Generated_Source\PSoC6\pdl\drivers/peripheral/gpio/cy_gpio.h **** *   <tr>
 123:Generated_Source\PSoC6\pdl\drivers/peripheral/gpio/cy_gpio.h **** *     <td>Added register access layer. Use register access macros instead
 124:Generated_Source\PSoC6\pdl\drivers/peripheral/gpio/cy_gpio.h **** *         of direct register access using dereferenced pointers.</td>
 125:Generated_Source\PSoC6\pdl\drivers/peripheral/gpio/cy_gpio.h **** *     <td>Makes register access device-independent, so that the PDL does 
 126:Generated_Source\PSoC6\pdl\drivers/peripheral/gpio/cy_gpio.h **** *         not need to be recompiled for each supported part number.</td>
 127:Generated_Source\PSoC6\pdl\drivers/peripheral/gpio/cy_gpio.h **** *   </tr>
 128:Generated_Source\PSoC6\pdl\drivers/peripheral/gpio/cy_gpio.h **** *   <tr>
 129:Generated_Source\PSoC6\pdl\drivers/peripheral/gpio/cy_gpio.h **** *     <td>1.10.1</td>
 130:Generated_Source\PSoC6\pdl\drivers/peripheral/gpio/cy_gpio.h **** *     <td>Updated description for the functions: \ref Cy_GPIO_GetInterruptStatus, 
 131:Generated_Source\PSoC6\pdl\drivers/peripheral/gpio/cy_gpio.h **** *         \ref Cy_GPIO_GetInterruptMask, \ref Cy_GPIO_GetInterruptStatusMasked.
 132:Generated_Source\PSoC6\pdl\drivers/peripheral/gpio/cy_gpio.h **** *
 133:Generated_Source\PSoC6\pdl\drivers/peripheral/gpio/cy_gpio.h **** *         Minor documentation edits.
 134:Generated_Source\PSoC6\pdl\drivers/peripheral/gpio/cy_gpio.h **** *     </td>
 135:Generated_Source\PSoC6\pdl\drivers/peripheral/gpio/cy_gpio.h **** *     <td>Documentation update and clarification</td>
 136:Generated_Source\PSoC6\pdl\drivers/peripheral/gpio/cy_gpio.h **** *   </tr>
 137:Generated_Source\PSoC6\pdl\drivers/peripheral/gpio/cy_gpio.h **** *   <tr>
 138:Generated_Source\PSoC6\pdl\drivers/peripheral/gpio/cy_gpio.h **** *     <td>1.10</td>
 139:Generated_Source\PSoC6\pdl\drivers/peripheral/gpio/cy_gpio.h **** *     <td>Added input parameter validation to the API functions</td>
 140:Generated_Source\PSoC6\pdl\drivers/peripheral/gpio/cy_gpio.h **** *     <td></td>
 141:Generated_Source\PSoC6\pdl\drivers/peripheral/gpio/cy_gpio.h **** *   </tr>
 142:Generated_Source\PSoC6\pdl\drivers/peripheral/gpio/cy_gpio.h **** *   <tr>
 143:Generated_Source\PSoC6\pdl\drivers/peripheral/gpio/cy_gpio.h **** *     <td>1.0</td>
 144:Generated_Source\PSoC6\pdl\drivers/peripheral/gpio/cy_gpio.h **** *     <td>Initial version</td>
 145:Generated_Source\PSoC6\pdl\drivers/peripheral/gpio/cy_gpio.h **** *     <td></td>
 146:Generated_Source\PSoC6\pdl\drivers/peripheral/gpio/cy_gpio.h **** *   </tr>
 147:Generated_Source\PSoC6\pdl\drivers/peripheral/gpio/cy_gpio.h **** * </table>
 148:Generated_Source\PSoC6\pdl\drivers/peripheral/gpio/cy_gpio.h **** *
 149:Generated_Source\PSoC6\pdl\drivers/peripheral/gpio/cy_gpio.h **** * \defgroup group_gpio_macros Macros
 150:Generated_Source\PSoC6\pdl\drivers/peripheral/gpio/cy_gpio.h **** * \defgroup group_gpio_functions Functions
 151:Generated_Source\PSoC6\pdl\drivers/peripheral/gpio/cy_gpio.h **** * \{
 152:Generated_Source\PSoC6\pdl\drivers/peripheral/gpio/cy_gpio.h **** *   \defgroup group_gpio_functions_init       Initialization Functions
 153:Generated_Source\PSoC6\pdl\drivers/peripheral/gpio/cy_gpio.h **** *   \defgroup group_gpio_functions_gpio       GPIO Functions
 154:Generated_Source\PSoC6\pdl\drivers/peripheral/gpio/cy_gpio.h **** *   \defgroup group_gpio_functions_sio        SIO Functions
 155:Generated_Source\PSoC6\pdl\drivers/peripheral/gpio/cy_gpio.h **** *   \defgroup group_gpio_functions_interrupt  Port Interrupt Functions
 156:Generated_Source\PSoC6\pdl\drivers/peripheral/gpio/cy_gpio.h **** * \}
 157:Generated_Source\PSoC6\pdl\drivers/peripheral/gpio/cy_gpio.h **** * \defgroup group_gpio_data_structures Data Structures
ARM GAS  C:\Users\seeho\AppData\Local\Temp\ccUkk7Dc.s 			page 29


 158:Generated_Source\PSoC6\pdl\drivers/peripheral/gpio/cy_gpio.h **** * \defgroup group_gpio_enums Enumerated Types
 159:Generated_Source\PSoC6\pdl\drivers/peripheral/gpio/cy_gpio.h **** */
 160:Generated_Source\PSoC6\pdl\drivers/peripheral/gpio/cy_gpio.h **** 
 161:Generated_Source\PSoC6\pdl\drivers/peripheral/gpio/cy_gpio.h **** #if !defined(CY_GPIO_H)
 162:Generated_Source\PSoC6\pdl\drivers/peripheral/gpio/cy_gpio.h **** #define CY_GPIO_H
 163:Generated_Source\PSoC6\pdl\drivers/peripheral/gpio/cy_gpio.h **** 
 164:Generated_Source\PSoC6\pdl\drivers/peripheral/gpio/cy_gpio.h **** #include <stddef.h>
 165:Generated_Source\PSoC6\pdl\drivers/peripheral/gpio/cy_gpio.h **** #include "cy_device.h"
 166:Generated_Source\PSoC6\pdl\drivers/peripheral/gpio/cy_gpio.h **** #include "cy_device_headers.h"
 167:Generated_Source\PSoC6\pdl\drivers/peripheral/gpio/cy_gpio.h **** #include "cy_syslib.h"
 168:Generated_Source\PSoC6\pdl\drivers/peripheral/gpio/cy_gpio.h **** 
 169:Generated_Source\PSoC6\pdl\drivers/peripheral/gpio/cy_gpio.h **** #if defined(__cplusplus)
 170:Generated_Source\PSoC6\pdl\drivers/peripheral/gpio/cy_gpio.h **** extern "C" {
 171:Generated_Source\PSoC6\pdl\drivers/peripheral/gpio/cy_gpio.h **** #endif
 172:Generated_Source\PSoC6\pdl\drivers/peripheral/gpio/cy_gpio.h **** 
 173:Generated_Source\PSoC6\pdl\drivers/peripheral/gpio/cy_gpio.h **** /** \addtogroup group_gpio_macros
 174:Generated_Source\PSoC6\pdl\drivers/peripheral/gpio/cy_gpio.h **** * \{
 175:Generated_Source\PSoC6\pdl\drivers/peripheral/gpio/cy_gpio.h **** */
 176:Generated_Source\PSoC6\pdl\drivers/peripheral/gpio/cy_gpio.h **** 
 177:Generated_Source\PSoC6\pdl\drivers/peripheral/gpio/cy_gpio.h **** /** Driver major version */
 178:Generated_Source\PSoC6\pdl\drivers/peripheral/gpio/cy_gpio.h **** #define CY_GPIO_DRV_VERSION_MAJOR       1
 179:Generated_Source\PSoC6\pdl\drivers/peripheral/gpio/cy_gpio.h **** 
 180:Generated_Source\PSoC6\pdl\drivers/peripheral/gpio/cy_gpio.h **** /** Driver minor version */
 181:Generated_Source\PSoC6\pdl\drivers/peripheral/gpio/cy_gpio.h **** #define CY_GPIO_DRV_VERSION_MINOR       20
 182:Generated_Source\PSoC6\pdl\drivers/peripheral/gpio/cy_gpio.h **** 
 183:Generated_Source\PSoC6\pdl\drivers/peripheral/gpio/cy_gpio.h **** /** GPIO driver ID */
 184:Generated_Source\PSoC6\pdl\drivers/peripheral/gpio/cy_gpio.h **** #define CY_GPIO_ID CY_PDL_DRV_ID(0x16U)
 185:Generated_Source\PSoC6\pdl\drivers/peripheral/gpio/cy_gpio.h **** 
 186:Generated_Source\PSoC6\pdl\drivers/peripheral/gpio/cy_gpio.h **** /** \} group_gpio_macros */
 187:Generated_Source\PSoC6\pdl\drivers/peripheral/gpio/cy_gpio.h **** 
 188:Generated_Source\PSoC6\pdl\drivers/peripheral/gpio/cy_gpio.h **** 
 189:Generated_Source\PSoC6\pdl\drivers/peripheral/gpio/cy_gpio.h **** /***************************************
 190:Generated_Source\PSoC6\pdl\drivers/peripheral/gpio/cy_gpio.h **** *       Enumerations
 191:Generated_Source\PSoC6\pdl\drivers/peripheral/gpio/cy_gpio.h **** ***************************************/
 192:Generated_Source\PSoC6\pdl\drivers/peripheral/gpio/cy_gpio.h **** /**
 193:Generated_Source\PSoC6\pdl\drivers/peripheral/gpio/cy_gpio.h **** * \addtogroup group_gpio_enums
 194:Generated_Source\PSoC6\pdl\drivers/peripheral/gpio/cy_gpio.h **** * \{
 195:Generated_Source\PSoC6\pdl\drivers/peripheral/gpio/cy_gpio.h **** */
 196:Generated_Source\PSoC6\pdl\drivers/peripheral/gpio/cy_gpio.h **** 
 197:Generated_Source\PSoC6\pdl\drivers/peripheral/gpio/cy_gpio.h **** /** GPIO Driver error codes */
 198:Generated_Source\PSoC6\pdl\drivers/peripheral/gpio/cy_gpio.h **** typedef enum 
 199:Generated_Source\PSoC6\pdl\drivers/peripheral/gpio/cy_gpio.h **** {
 200:Generated_Source\PSoC6\pdl\drivers/peripheral/gpio/cy_gpio.h ****     CY_GPIO_SUCCESS   = 0x00U,                                    /**< Returned successful */
 201:Generated_Source\PSoC6\pdl\drivers/peripheral/gpio/cy_gpio.h ****     CY_GPIO_BAD_PARAM = CY_GPIO_ID | CY_PDL_STATUS_ERROR | 0x01U, /**< Bad parameter was passed */
 202:Generated_Source\PSoC6\pdl\drivers/peripheral/gpio/cy_gpio.h **** } cy_en_gpio_status_t;
 203:Generated_Source\PSoC6\pdl\drivers/peripheral/gpio/cy_gpio.h **** 
 204:Generated_Source\PSoC6\pdl\drivers/peripheral/gpio/cy_gpio.h **** /** AMux switch open/close config */
 205:Generated_Source\PSoC6\pdl\drivers/peripheral/gpio/cy_gpio.h **** typedef enum
 206:Generated_Source\PSoC6\pdl\drivers/peripheral/gpio/cy_gpio.h **** {
 207:Generated_Source\PSoC6\pdl\drivers/peripheral/gpio/cy_gpio.h ****     CY_GPIO_AMUX_OPENALL,   /**< Open ground switch. Open right switch. Open left switch */
 208:Generated_Source\PSoC6\pdl\drivers/peripheral/gpio/cy_gpio.h ****     CY_GPIO_AMUX_L,         /**< Open ground switch. Open right switch. Close left switch */
 209:Generated_Source\PSoC6\pdl\drivers/peripheral/gpio/cy_gpio.h ****     CY_GPIO_AMUX_R,         /**< Open ground switch. Close right switch. Open left switch */
 210:Generated_Source\PSoC6\pdl\drivers/peripheral/gpio/cy_gpio.h ****     CY_GPIO_AMUX_LR,        /**< Open ground switch. Close right switch. Close left switch */
 211:Generated_Source\PSoC6\pdl\drivers/peripheral/gpio/cy_gpio.h ****     CY_GPIO_AMUX_G,         /**< Close ground switch. Open right switch. Open left switch */
 212:Generated_Source\PSoC6\pdl\drivers/peripheral/gpio/cy_gpio.h ****     CY_GPIO_AMUX_GL,        /**< Close ground switch. Open right switch. Close left switch */
 213:Generated_Source\PSoC6\pdl\drivers/peripheral/gpio/cy_gpio.h ****     CY_GPIO_AMUX_GR,        /**< Close ground switch. Close right switch. Open left switch */
 214:Generated_Source\PSoC6\pdl\drivers/peripheral/gpio/cy_gpio.h ****     CY_GPIO_AMUX_GLR,       /**< Close ground switch. Close right switch. Close left switch */
ARM GAS  C:\Users\seeho\AppData\Local\Temp\ccUkk7Dc.s 			page 30


 215:Generated_Source\PSoC6\pdl\drivers/peripheral/gpio/cy_gpio.h **** }cy_en_gpio_amuxconnect_t;
 216:Generated_Source\PSoC6\pdl\drivers/peripheral/gpio/cy_gpio.h **** 
 217:Generated_Source\PSoC6\pdl\drivers/peripheral/gpio/cy_gpio.h **** /**
 218:Generated_Source\PSoC6\pdl\drivers/peripheral/gpio/cy_gpio.h **** * AMux Bus selection
 219:Generated_Source\PSoC6\pdl\drivers/peripheral/gpio/cy_gpio.h **** */
 220:Generated_Source\PSoC6\pdl\drivers/peripheral/gpio/cy_gpio.h **** typedef enum
 221:Generated_Source\PSoC6\pdl\drivers/peripheral/gpio/cy_gpio.h **** {
 222:Generated_Source\PSoC6\pdl\drivers/peripheral/gpio/cy_gpio.h ****     CY_GPIO_AMUXBUSA,       /**< AMuxBus A */
 223:Generated_Source\PSoC6\pdl\drivers/peripheral/gpio/cy_gpio.h ****     CY_GPIO_AMUXBUSB        /**< AMuxBus B */
 224:Generated_Source\PSoC6\pdl\drivers/peripheral/gpio/cy_gpio.h **** }cy_en_gpio_amuxselect_t;
 225:Generated_Source\PSoC6\pdl\drivers/peripheral/gpio/cy_gpio.h **** 
 226:Generated_Source\PSoC6\pdl\drivers/peripheral/gpio/cy_gpio.h **** /** \} group_gpio_enums */
 227:Generated_Source\PSoC6\pdl\drivers/peripheral/gpio/cy_gpio.h **** 
 228:Generated_Source\PSoC6\pdl\drivers/peripheral/gpio/cy_gpio.h **** 
 229:Generated_Source\PSoC6\pdl\drivers/peripheral/gpio/cy_gpio.h **** /***************************************
 230:Generated_Source\PSoC6\pdl\drivers/peripheral/gpio/cy_gpio.h **** *       Configuration Structures
 231:Generated_Source\PSoC6\pdl\drivers/peripheral/gpio/cy_gpio.h **** ***************************************/
 232:Generated_Source\PSoC6\pdl\drivers/peripheral/gpio/cy_gpio.h **** 
 233:Generated_Source\PSoC6\pdl\drivers/peripheral/gpio/cy_gpio.h **** /**
 234:Generated_Source\PSoC6\pdl\drivers/peripheral/gpio/cy_gpio.h **** * \addtogroup group_gpio_data_structures
 235:Generated_Source\PSoC6\pdl\drivers/peripheral/gpio/cy_gpio.h **** * \{
 236:Generated_Source\PSoC6\pdl\drivers/peripheral/gpio/cy_gpio.h **** */
 237:Generated_Source\PSoC6\pdl\drivers/peripheral/gpio/cy_gpio.h **** 
 238:Generated_Source\PSoC6\pdl\drivers/peripheral/gpio/cy_gpio.h **** /** This structure is used to initialize a port of GPIO pins */
 239:Generated_Source\PSoC6\pdl\drivers/peripheral/gpio/cy_gpio.h **** typedef struct 
 240:Generated_Source\PSoC6\pdl\drivers/peripheral/gpio/cy_gpio.h **** {
 241:Generated_Source\PSoC6\pdl\drivers/peripheral/gpio/cy_gpio.h ****     uint32_t out;           /**< Initial output data for the IO pins in the port */
 242:Generated_Source\PSoC6\pdl\drivers/peripheral/gpio/cy_gpio.h ****     uint32_t intrMask;      /**< Interrupt enable mask for the port interrupt */
 243:Generated_Source\PSoC6\pdl\drivers/peripheral/gpio/cy_gpio.h ****     uint32_t intrCfg;       /**< Port pin interrupt edge detection configuration */
 244:Generated_Source\PSoC6\pdl\drivers/peripheral/gpio/cy_gpio.h ****     uint32_t cfg;           /**< Port pin drive modes and input buffer enable configuration */
 245:Generated_Source\PSoC6\pdl\drivers/peripheral/gpio/cy_gpio.h ****     uint32_t cfgIn;         /**< Port pin input buffer configuration */
 246:Generated_Source\PSoC6\pdl\drivers/peripheral/gpio/cy_gpio.h ****     uint32_t cfgOut;        /**< Port pin output buffer configuration */
 247:Generated_Source\PSoC6\pdl\drivers/peripheral/gpio/cy_gpio.h ****     uint32_t cfgSIO;        /**< Port SIO pins configuration */
 248:Generated_Source\PSoC6\pdl\drivers/peripheral/gpio/cy_gpio.h ****     uint32_t sel0Active;    /**< HSIOM selection for port pins 0,1,2,3 */
 249:Generated_Source\PSoC6\pdl\drivers/peripheral/gpio/cy_gpio.h ****     uint32_t sel1Active;    /**< HSIOM selection for port pins 4,5,6,7 */
 250:Generated_Source\PSoC6\pdl\drivers/peripheral/gpio/cy_gpio.h **** } cy_stc_gpio_prt_config_t;
 251:Generated_Source\PSoC6\pdl\drivers/peripheral/gpio/cy_gpio.h **** 
 252:Generated_Source\PSoC6\pdl\drivers/peripheral/gpio/cy_gpio.h **** /** This structure is used to initialize a single GPIO pin */
 253:Generated_Source\PSoC6\pdl\drivers/peripheral/gpio/cy_gpio.h **** typedef struct
 254:Generated_Source\PSoC6\pdl\drivers/peripheral/gpio/cy_gpio.h **** {
 255:Generated_Source\PSoC6\pdl\drivers/peripheral/gpio/cy_gpio.h ****     uint32_t outVal;         /**< Pin output state */
 256:Generated_Source\PSoC6\pdl\drivers/peripheral/gpio/cy_gpio.h ****     uint32_t driveMode;      /**< Drive mode */
 257:Generated_Source\PSoC6\pdl\drivers/peripheral/gpio/cy_gpio.h ****     en_hsiom_sel_t hsiom;    /**< HSIOM selection */
 258:Generated_Source\PSoC6\pdl\drivers/peripheral/gpio/cy_gpio.h ****     uint32_t intEdge;        /**< Interrupt Edge type */
 259:Generated_Source\PSoC6\pdl\drivers/peripheral/gpio/cy_gpio.h ****     uint32_t intMask;        /**< Interrupt enable mask */
 260:Generated_Source\PSoC6\pdl\drivers/peripheral/gpio/cy_gpio.h ****     uint32_t vtrip;          /**< Input buffer voltage trip type */
 261:Generated_Source\PSoC6\pdl\drivers/peripheral/gpio/cy_gpio.h ****     uint32_t slewRate;       /**< Output buffer slew rate */
 262:Generated_Source\PSoC6\pdl\drivers/peripheral/gpio/cy_gpio.h ****     uint32_t driveSel;       /**< Drive strength */
 263:Generated_Source\PSoC6\pdl\drivers/peripheral/gpio/cy_gpio.h ****     uint32_t vregEn;         /**< SIO pair output buffer mode */
 264:Generated_Source\PSoC6\pdl\drivers/peripheral/gpio/cy_gpio.h ****     uint32_t ibufMode;       /**< SIO pair input buffer mode */
 265:Generated_Source\PSoC6\pdl\drivers/peripheral/gpio/cy_gpio.h ****     uint32_t vtripSel;       /**< SIO pair input buffer trip point */
 266:Generated_Source\PSoC6\pdl\drivers/peripheral/gpio/cy_gpio.h ****     uint32_t vrefSel;        /**< SIO pair reference voltage for input buffer trip point */
 267:Generated_Source\PSoC6\pdl\drivers/peripheral/gpio/cy_gpio.h ****     uint32_t vohSel;         /**< SIO pair regulated voltage output level */
 268:Generated_Source\PSoC6\pdl\drivers/peripheral/gpio/cy_gpio.h **** } cy_stc_gpio_pin_config_t;
 269:Generated_Source\PSoC6\pdl\drivers/peripheral/gpio/cy_gpio.h **** 
 270:Generated_Source\PSoC6\pdl\drivers/peripheral/gpio/cy_gpio.h **** /** \} group_gpio_data_structures */
 271:Generated_Source\PSoC6\pdl\drivers/peripheral/gpio/cy_gpio.h **** 
ARM GAS  C:\Users\seeho\AppData\Local\Temp\ccUkk7Dc.s 			page 31


 272:Generated_Source\PSoC6\pdl\drivers/peripheral/gpio/cy_gpio.h **** /***************************************
 273:Generated_Source\PSoC6\pdl\drivers/peripheral/gpio/cy_gpio.h **** *        Constants
 274:Generated_Source\PSoC6\pdl\drivers/peripheral/gpio/cy_gpio.h **** ***************************************/
 275:Generated_Source\PSoC6\pdl\drivers/peripheral/gpio/cy_gpio.h **** 
 276:Generated_Source\PSoC6\pdl\drivers/peripheral/gpio/cy_gpio.h **** /** \cond INTERNAL */
 277:Generated_Source\PSoC6\pdl\drivers/peripheral/gpio/cy_gpio.h **** 
 278:Generated_Source\PSoC6\pdl\drivers/peripheral/gpio/cy_gpio.h **** /* General Constants */
 279:Generated_Source\PSoC6\pdl\drivers/peripheral/gpio/cy_gpio.h **** #define CY_GPIO_PRT_HALF                       (4UL)      /**< Half-way point of a GPIO port */
 280:Generated_Source\PSoC6\pdl\drivers/peripheral/gpio/cy_gpio.h **** #define CY_GPIO_PRT_DEINIT                     (0UL)      /**< De-init value for port registers */
 281:Generated_Source\PSoC6\pdl\drivers/peripheral/gpio/cy_gpio.h **** 
 282:Generated_Source\PSoC6\pdl\drivers/peripheral/gpio/cy_gpio.h **** /* GPIO Masks */
 283:Generated_Source\PSoC6\pdl\drivers/peripheral/gpio/cy_gpio.h **** #define CY_GPIO_HSIOM_MASK                     (0x1FUL)   /**< HSIOM selection mask */
 284:Generated_Source\PSoC6\pdl\drivers/peripheral/gpio/cy_gpio.h **** #define CY_GPIO_OUT_MASK                       (0x01UL)   /**< Single pin mask for OUT register */
 285:Generated_Source\PSoC6\pdl\drivers/peripheral/gpio/cy_gpio.h **** #define CY_GPIO_IN_MASK                        (0x01UL)   /**< Single pin mask for IN register */
 286:Generated_Source\PSoC6\pdl\drivers/peripheral/gpio/cy_gpio.h **** #define CY_GPIO_CFG_DM_MASK                    (0x0FUL)   /**< Single pin mask for drive mode in CF
 287:Generated_Source\PSoC6\pdl\drivers/peripheral/gpio/cy_gpio.h **** #define CY_GPIO_CFG_IN_VTRIP_SEL_MASK          (0x01UL)   /**< Single pin mask for VTRIP selection 
 288:Generated_Source\PSoC6\pdl\drivers/peripheral/gpio/cy_gpio.h **** #define CY_GPIO_CFG_OUT_SLOW_MASK              (0x01UL)   /**< Single pin mask for slew rate in CFG
 289:Generated_Source\PSoC6\pdl\drivers/peripheral/gpio/cy_gpio.h **** #define CY_GPIO_CFG_OUT_DRIVE_SEL_MASK         (0x03UL)   /**< Single pin mask for drive strength i
 290:Generated_Source\PSoC6\pdl\drivers/peripheral/gpio/cy_gpio.h **** #define CY_GPIO_INTR_STATUS_MASK               (0x01UL)   /**< Single pin mask for interrupt status
 291:Generated_Source\PSoC6\pdl\drivers/peripheral/gpio/cy_gpio.h **** #define CY_GPIO_INTR_EN_MASK                   (0x01UL)   /**< Single pin mask for interrupt status
 292:Generated_Source\PSoC6\pdl\drivers/peripheral/gpio/cy_gpio.h **** #define CY_GPIO_INTR_MASKED_MASK               (0x01UL)   /**< Single pin mask for masked interrupt
 293:Generated_Source\PSoC6\pdl\drivers/peripheral/gpio/cy_gpio.h **** #define CY_GPIO_INTR_SET_MASK                  (0x01UL)   /**< Single pin mask for setting the inte
 294:Generated_Source\PSoC6\pdl\drivers/peripheral/gpio/cy_gpio.h **** #define CY_GPIO_INTR_EDGE_MASK                 (0x03UL)   /**< Single pin mask for interrupt edge t
 295:Generated_Source\PSoC6\pdl\drivers/peripheral/gpio/cy_gpio.h **** #define CY_GPIO_INTR_FLT_EDGE_MASK             (0x07UL)   /**< Single pin mask for setting filtered
 296:Generated_Source\PSoC6\pdl\drivers/peripheral/gpio/cy_gpio.h **** 
 297:Generated_Source\PSoC6\pdl\drivers/peripheral/gpio/cy_gpio.h **** /* SIO Masks */
 298:Generated_Source\PSoC6\pdl\drivers/peripheral/gpio/cy_gpio.h **** #define CY_GPIO_VREG_EN_MASK                   (0x01UL)   /**< Single SIO pin mask for voltage regu
 299:Generated_Source\PSoC6\pdl\drivers/peripheral/gpio/cy_gpio.h **** #define CY_GPIO_IBUF_MASK                      (0x01UL)   /**< Single SIO pin mask for input buffer
 300:Generated_Source\PSoC6\pdl\drivers/peripheral/gpio/cy_gpio.h **** #define CY_GPIO_IBUF_SHIFT                     (0x01UL)   /**< Single SIO pin shift for input buffe
 301:Generated_Source\PSoC6\pdl\drivers/peripheral/gpio/cy_gpio.h **** #define CY_GPIO_VTRIP_SEL_MASK                 (0x01UL)   /**< Single SIO pin mask for the input bu
 302:Generated_Source\PSoC6\pdl\drivers/peripheral/gpio/cy_gpio.h **** #define CY_GPIO_VTRIP_SEL_SHIFT                (0x02UL)   /**< Single SIO pin shift for the input b
 303:Generated_Source\PSoC6\pdl\drivers/peripheral/gpio/cy_gpio.h **** #define CY_GPIO_VREF_SEL_MASK                  (0x03UL)   /**< Single SIO pin mask for voltage refe
 304:Generated_Source\PSoC6\pdl\drivers/peripheral/gpio/cy_gpio.h **** #define CY_GPIO_VREF_SEL_SHIFT                 (0x03UL)   /**< Single SIO pin shift for voltage ref
 305:Generated_Source\PSoC6\pdl\drivers/peripheral/gpio/cy_gpio.h **** #define CY_GPIO_VOH_SEL_MASK                   (0x07UL)   /**< Single SIO pin mask for VOH */
 306:Generated_Source\PSoC6\pdl\drivers/peripheral/gpio/cy_gpio.h **** #define CY_GPIO_VOH_SEL_SHIFT                  (0x05UL)   /**< Single SIO pin shift for VOH */
 307:Generated_Source\PSoC6\pdl\drivers/peripheral/gpio/cy_gpio.h **** 
 308:Generated_Source\PSoC6\pdl\drivers/peripheral/gpio/cy_gpio.h **** /* Special mask for SIO pin pair setting */
 309:Generated_Source\PSoC6\pdl\drivers/peripheral/gpio/cy_gpio.h **** #define CY_GPIO_SIO_ODD_PIN_MASK               (0x00FEUL) /**< SIO pin pair selection mask */
 310:Generated_Source\PSoC6\pdl\drivers/peripheral/gpio/cy_gpio.h **** #define CY_GPIO_SIO_PIN_MASK                   (0x00FFUL) /**< SIO pin pair mask */
 311:Generated_Source\PSoC6\pdl\drivers/peripheral/gpio/cy_gpio.h **** 
 312:Generated_Source\PSoC6\pdl\drivers/peripheral/gpio/cy_gpio.h **** /* Offsets */
 313:Generated_Source\PSoC6\pdl\drivers/peripheral/gpio/cy_gpio.h **** #define CY_GPIO_HSIOM_OFFSET                   (3UL)      /**< Offset for HSIOM */
 314:Generated_Source\PSoC6\pdl\drivers/peripheral/gpio/cy_gpio.h **** #define CY_GPIO_DRIVE_MODE_OFFSET              (2UL)      /**< Offset for Drive mode */
 315:Generated_Source\PSoC6\pdl\drivers/peripheral/gpio/cy_gpio.h **** #define CY_GPIO_INBUF_OFFSET                   (3UL)      /**< Offset for input buffer */
 316:Generated_Source\PSoC6\pdl\drivers/peripheral/gpio/cy_gpio.h **** #define CY_GPIO_CFG_OUT_DRIVE_OFFSET           (16UL)     /**< Offset for drive strength */
 317:Generated_Source\PSoC6\pdl\drivers/peripheral/gpio/cy_gpio.h **** #define CY_GPIO_INTR_CFG_OFFSET                (1UL)      /**< Offset for interrupt config */
 318:Generated_Source\PSoC6\pdl\drivers/peripheral/gpio/cy_gpio.h **** #define CY_GPIO_INTR_FILT_OFFSET               (18UL)     /**< Offset for filtered interrupt config
 319:Generated_Source\PSoC6\pdl\drivers/peripheral/gpio/cy_gpio.h **** #define CY_GPIO_CFG_SIO_OFFSET                 (2UL)      /**< Offset for SIO config */
 320:Generated_Source\PSoC6\pdl\drivers/peripheral/gpio/cy_gpio.h **** 
 321:Generated_Source\PSoC6\pdl\drivers/peripheral/gpio/cy_gpio.h **** /* Parameter validation constants */
 322:Generated_Source\PSoC6\pdl\drivers/peripheral/gpio/cy_gpio.h **** #define CY_GPIO_PINS_MAX                       (8UL)      /**< Number of pins in the port */
 323:Generated_Source\PSoC6\pdl\drivers/peripheral/gpio/cy_gpio.h **** #define CY_GPIO_PRT_PINS_MASK                  (0x0000000FFUL)
 324:Generated_Source\PSoC6\pdl\drivers/peripheral/gpio/cy_gpio.h **** #define CY_GPIO_PRT_INTR_CFG_EDGE_SEL_MASK     (GPIO_PRT_INTR_CFG_EDGE0_SEL_Msk | \
 325:Generated_Source\PSoC6\pdl\drivers/peripheral/gpio/cy_gpio.h ****                                                 GPIO_PRT_INTR_CFG_EDGE1_SEL_Msk | \
 326:Generated_Source\PSoC6\pdl\drivers/peripheral/gpio/cy_gpio.h ****                                                 GPIO_PRT_INTR_CFG_EDGE2_SEL_Msk | \
 327:Generated_Source\PSoC6\pdl\drivers/peripheral/gpio/cy_gpio.h ****                                                 GPIO_PRT_INTR_CFG_EDGE3_SEL_Msk | \
 328:Generated_Source\PSoC6\pdl\drivers/peripheral/gpio/cy_gpio.h ****                                                 GPIO_PRT_INTR_CFG_EDGE4_SEL_Msk | \
ARM GAS  C:\Users\seeho\AppData\Local\Temp\ccUkk7Dc.s 			page 32


 329:Generated_Source\PSoC6\pdl\drivers/peripheral/gpio/cy_gpio.h ****                                                 GPIO_PRT_INTR_CFG_EDGE5_SEL_Msk | \
 330:Generated_Source\PSoC6\pdl\drivers/peripheral/gpio/cy_gpio.h ****                                                 GPIO_PRT_INTR_CFG_EDGE6_SEL_Msk | \
 331:Generated_Source\PSoC6\pdl\drivers/peripheral/gpio/cy_gpio.h ****                                                 GPIO_PRT_INTR_CFG_EDGE7_SEL_Msk)
 332:Generated_Source\PSoC6\pdl\drivers/peripheral/gpio/cy_gpio.h **** #define CY_GPIO_PRT_INTR_CFG_RANGE_MASK        (CY_GPIO_PRT_INTR_CFG_EDGE_SEL_MASK | \
 333:Generated_Source\PSoC6\pdl\drivers/peripheral/gpio/cy_gpio.h ****                                                 GPIO_PRT_INTR_CFG_FLT_EDGE_SEL_Msk | \
 334:Generated_Source\PSoC6\pdl\drivers/peripheral/gpio/cy_gpio.h ****                                                 GPIO_PRT_INTR_CFG_FLT_SEL_Msk)
 335:Generated_Source\PSoC6\pdl\drivers/peripheral/gpio/cy_gpio.h **** #define CY_GPIO_PRT_INT_MASK_MASK              (0x0000001FFUL)
 336:Generated_Source\PSoC6\pdl\drivers/peripheral/gpio/cy_gpio.h **** #define CY_GPIO_PRT_SEL_ACTIVE_MASK            (0x1FFFFFFFUL)
 337:Generated_Source\PSoC6\pdl\drivers/peripheral/gpio/cy_gpio.h **** 
 338:Generated_Source\PSoC6\pdl\drivers/peripheral/gpio/cy_gpio.h **** #define GPIO_MAX_SPLIT_CELL_SEGMENTS           (9U)
 339:Generated_Source\PSoC6\pdl\drivers/peripheral/gpio/cy_gpio.h **** 
 340:Generated_Source\PSoC6\pdl\drivers/peripheral/gpio/cy_gpio.h **** /* Parameter validation macros */
 341:Generated_Source\PSoC6\pdl\drivers/peripheral/gpio/cy_gpio.h **** #define CY_GPIO_IS_PIN_VALID(pinNum)           (CY_GPIO_PINS_MAX > (pinNum))
 342:Generated_Source\PSoC6\pdl\drivers/peripheral/gpio/cy_gpio.h **** #define CY_GPIO_IS_FILTER_PIN_VALID(pinNum)    (CY_GPIO_PINS_MAX >= (pinNum))
 343:Generated_Source\PSoC6\pdl\drivers/peripheral/gpio/cy_gpio.h **** #define CY_GPIO_IS_VALUE_VALID(outVal)         (1UL >= (outVal))
 344:Generated_Source\PSoC6\pdl\drivers/peripheral/gpio/cy_gpio.h **** #define CY_GPIO_IS_DM_VALID(driveMode)         (0U == ((driveMode) & (uint32_t)~CY_GPIO_CFG_DM_MASK
 345:Generated_Source\PSoC6\pdl\drivers/peripheral/gpio/cy_gpio.h **** 
 346:Generated_Source\PSoC6\pdl\drivers/peripheral/gpio/cy_gpio.h **** #define CY_GPIO_IS_HSIOM_VALID(hsiom)          (0U == ((hsiom) & (uint32_t)~CY_GPIO_HSIOM_MASK))
 347:Generated_Source\PSoC6\pdl\drivers/peripheral/gpio/cy_gpio.h **** 
 348:Generated_Source\PSoC6\pdl\drivers/peripheral/gpio/cy_gpio.h **** #define CY_GPIO_IS_INT_EDGE_VALID(intEdge)     ((CY_GPIO_INTR_DISABLE  == (intEdge)) || \
 349:Generated_Source\PSoC6\pdl\drivers/peripheral/gpio/cy_gpio.h ****                                                 (CY_GPIO_INTR_RISING   == (intEdge)) || \
 350:Generated_Source\PSoC6\pdl\drivers/peripheral/gpio/cy_gpio.h ****                                                 (CY_GPIO_INTR_FALLING  == (intEdge)) || \
 351:Generated_Source\PSoC6\pdl\drivers/peripheral/gpio/cy_gpio.h ****                                                 (CY_GPIO_INTR_BOTH     == (intEdge)))
 352:Generated_Source\PSoC6\pdl\drivers/peripheral/gpio/cy_gpio.h **** 
 353:Generated_Source\PSoC6\pdl\drivers/peripheral/gpio/cy_gpio.h **** #define CY_GPIO_IS_DRIVE_SEL_VALID(driveSel)   ((CY_GPIO_DRIVE_FULL    == (driveSel)) || \
 354:Generated_Source\PSoC6\pdl\drivers/peripheral/gpio/cy_gpio.h ****                                                 (CY_GPIO_DRIVE_1_2     == (driveSel)) || \
 355:Generated_Source\PSoC6\pdl\drivers/peripheral/gpio/cy_gpio.h ****                                                 (CY_GPIO_DRIVE_1_4     == (driveSel)) || \
 356:Generated_Source\PSoC6\pdl\drivers/peripheral/gpio/cy_gpio.h ****                                                 (CY_GPIO_DRIVE_1_8     == (driveSel)))
 357:Generated_Source\PSoC6\pdl\drivers/peripheral/gpio/cy_gpio.h **** 
 358:Generated_Source\PSoC6\pdl\drivers/peripheral/gpio/cy_gpio.h **** #define CY_GPIO_IS_VREF_SEL_VALID(vrefSel)     ((CY_SIO_VREF_PINREF    == (vrefSel)) || \
 359:Generated_Source\PSoC6\pdl\drivers/peripheral/gpio/cy_gpio.h ****                                                 (CY_SIO_VREF_1_2V      == (vrefSel)) || \
 360:Generated_Source\PSoC6\pdl\drivers/peripheral/gpio/cy_gpio.h ****                                                 (CY_SIO_VREF_AMUX_A    == (vrefSel)) || \
 361:Generated_Source\PSoC6\pdl\drivers/peripheral/gpio/cy_gpio.h ****                                                 (CY_SIO_VREF_AMUX_B    == (vrefSel)))
 362:Generated_Source\PSoC6\pdl\drivers/peripheral/gpio/cy_gpio.h **** 
 363:Generated_Source\PSoC6\pdl\drivers/peripheral/gpio/cy_gpio.h **** #define CY_GPIO_IS_VOH_SEL_VALID(vrefSel)      ((CY_SIO_VOH_1_00       == (vrefSel)) || \
 364:Generated_Source\PSoC6\pdl\drivers/peripheral/gpio/cy_gpio.h ****                                                 (CY_SIO_VOH_1_25       == (vrefSel)) || \
 365:Generated_Source\PSoC6\pdl\drivers/peripheral/gpio/cy_gpio.h ****                                                 (CY_SIO_VOH_1_49       == (vrefSel)) || \
 366:Generated_Source\PSoC6\pdl\drivers/peripheral/gpio/cy_gpio.h ****                                                 (CY_SIO_VOH_1_67       == (vrefSel)) || \
 367:Generated_Source\PSoC6\pdl\drivers/peripheral/gpio/cy_gpio.h ****                                                 (CY_SIO_VOH_2_08       == (vrefSel)) || \
 368:Generated_Source\PSoC6\pdl\drivers/peripheral/gpio/cy_gpio.h ****                                                 (CY_SIO_VOH_2_50       == (vrefSel)) || \
 369:Generated_Source\PSoC6\pdl\drivers/peripheral/gpio/cy_gpio.h ****                                                 (CY_SIO_VOH_2_78       == (vrefSel)) || \
 370:Generated_Source\PSoC6\pdl\drivers/peripheral/gpio/cy_gpio.h ****                                                 (CY_SIO_VOH_4_16       == (vrefSel)))
 371:Generated_Source\PSoC6\pdl\drivers/peripheral/gpio/cy_gpio.h ****                    
 372:Generated_Source\PSoC6\pdl\drivers/peripheral/gpio/cy_gpio.h **** #define CY_GPIO_IS_PIN_BIT_VALID(pinBit)       (0U == ((pinBit) & (uint32_t)~CY_GPIO_PRT_PINS_MASK)
 373:Generated_Source\PSoC6\pdl\drivers/peripheral/gpio/cy_gpio.h **** #define CY_GPIO_IS_INTR_CFG_VALID(intrCfg)     (0U == ((intrCfg) & (uint32_t)~CY_GPIO_PRT_INTR_CFG_
 374:Generated_Source\PSoC6\pdl\drivers/peripheral/gpio/cy_gpio.h **** #define CY_GPIO_IS_INTR_MASK_VALID(intrMask)   (0U == ((intrMask) & (uint32_t)~CY_GPIO_PRT_INT_MASK
 375:Generated_Source\PSoC6\pdl\drivers/peripheral/gpio/cy_gpio.h **** #define CY_GPIO_IS_SEL_ACT_VALID(selActive)    (0U == ((selActive) & (uint32_t)~CY_GPIO_PRT_SEL_ACT
 376:Generated_Source\PSoC6\pdl\drivers/peripheral/gpio/cy_gpio.h **** 
 377:Generated_Source\PSoC6\pdl\drivers/peripheral/gpio/cy_gpio.h **** #define CY_GPIO_IS_AMUX_SPLIT_VALID(switchCtrl)       (((uint32_t) (switchCtrl)) < GPIO_MAX_SPLIT_C
 378:Generated_Source\PSoC6\pdl\drivers/peripheral/gpio/cy_gpio.h **** 
 379:Generated_Source\PSoC6\pdl\drivers/peripheral/gpio/cy_gpio.h **** #define CY_GPIO_IS_AMUX_CONNECT_VALID(amuxConnect)    ((CY_GPIO_AMUX_OPENALL == (amuxConnect)) || \
 380:Generated_Source\PSoC6\pdl\drivers/peripheral/gpio/cy_gpio.h ****                                                        (CY_GPIO_AMUX_L       == (amuxConnect)) || \
 381:Generated_Source\PSoC6\pdl\drivers/peripheral/gpio/cy_gpio.h ****                                                        (CY_GPIO_AMUX_R       == (amuxConnect)) || \
 382:Generated_Source\PSoC6\pdl\drivers/peripheral/gpio/cy_gpio.h ****                                                        (CY_GPIO_AMUX_LR      == (amuxConnect)) || \
 383:Generated_Source\PSoC6\pdl\drivers/peripheral/gpio/cy_gpio.h ****                                                        (CY_GPIO_AMUX_G       == (amuxConnect)) || \
 384:Generated_Source\PSoC6\pdl\drivers/peripheral/gpio/cy_gpio.h ****                                                        (CY_GPIO_AMUX_GL      == (amuxConnect)) || \
 385:Generated_Source\PSoC6\pdl\drivers/peripheral/gpio/cy_gpio.h ****                                                        (CY_GPIO_AMUX_GR      == (amuxConnect)) || \
ARM GAS  C:\Users\seeho\AppData\Local\Temp\ccUkk7Dc.s 			page 33


 386:Generated_Source\PSoC6\pdl\drivers/peripheral/gpio/cy_gpio.h ****                                                        (CY_GPIO_AMUX_GLR     == (amuxConnect)))
 387:Generated_Source\PSoC6\pdl\drivers/peripheral/gpio/cy_gpio.h **** 
 388:Generated_Source\PSoC6\pdl\drivers/peripheral/gpio/cy_gpio.h **** #define CY_GPIO_IS_AMUX_SELECT_VALID(amuxBus)       ((CY_GPIO_AMUXBUSA       == (amuxBus)) || \
 389:Generated_Source\PSoC6\pdl\drivers/peripheral/gpio/cy_gpio.h ****                                                      (CY_GPIO_AMUXBUSB       == (amuxBus)))
 390:Generated_Source\PSoC6\pdl\drivers/peripheral/gpio/cy_gpio.h **** /** \endcond */
 391:Generated_Source\PSoC6\pdl\drivers/peripheral/gpio/cy_gpio.h **** 
 392:Generated_Source\PSoC6\pdl\drivers/peripheral/gpio/cy_gpio.h **** 
 393:Generated_Source\PSoC6\pdl\drivers/peripheral/gpio/cy_gpio.h **** /***************************************
 394:Generated_Source\PSoC6\pdl\drivers/peripheral/gpio/cy_gpio.h **** *        Function Constants
 395:Generated_Source\PSoC6\pdl\drivers/peripheral/gpio/cy_gpio.h **** ***************************************/
 396:Generated_Source\PSoC6\pdl\drivers/peripheral/gpio/cy_gpio.h **** 
 397:Generated_Source\PSoC6\pdl\drivers/peripheral/gpio/cy_gpio.h **** /**
 398:Generated_Source\PSoC6\pdl\drivers/peripheral/gpio/cy_gpio.h **** * \addtogroup group_gpio_macros
 399:Generated_Source\PSoC6\pdl\drivers/peripheral/gpio/cy_gpio.h **** * \{
 400:Generated_Source\PSoC6\pdl\drivers/peripheral/gpio/cy_gpio.h **** */
 401:Generated_Source\PSoC6\pdl\drivers/peripheral/gpio/cy_gpio.h **** 
 402:Generated_Source\PSoC6\pdl\drivers/peripheral/gpio/cy_gpio.h **** /**
 403:Generated_Source\PSoC6\pdl\drivers/peripheral/gpio/cy_gpio.h **** * \defgroup group_gpio_driveModes Pin drive mode
 404:Generated_Source\PSoC6\pdl\drivers/peripheral/gpio/cy_gpio.h **** * \{
 405:Generated_Source\PSoC6\pdl\drivers/peripheral/gpio/cy_gpio.h **** * Constants to be used for setting the drive mode of the pin.
 406:Generated_Source\PSoC6\pdl\drivers/peripheral/gpio/cy_gpio.h **** */
 407:Generated_Source\PSoC6\pdl\drivers/peripheral/gpio/cy_gpio.h **** #define CY_GPIO_DM_ANALOG                      (0x00UL) /**< Analog High-Z. Input buffer off */
 408:Generated_Source\PSoC6\pdl\drivers/peripheral/gpio/cy_gpio.h **** #define CY_GPIO_DM_PULLUP_IN_OFF               (0x02UL) /**< Resistive Pull-Up. Input buffer off */
 409:Generated_Source\PSoC6\pdl\drivers/peripheral/gpio/cy_gpio.h **** #define CY_GPIO_DM_PULLDOWN_IN_OFF             (0x03UL) /**< Resistive Pull-Down. Input buffer off 
 410:Generated_Source\PSoC6\pdl\drivers/peripheral/gpio/cy_gpio.h **** #define CY_GPIO_DM_OD_DRIVESLOW_IN_OFF         (0x04UL) /**< Open Drain, Drives Low. Input buffer o
 411:Generated_Source\PSoC6\pdl\drivers/peripheral/gpio/cy_gpio.h **** #define CY_GPIO_DM_OD_DRIVESHIGH_IN_OFF        (0x05UL) /**< Open Drain, Drives High. Input buffer 
 412:Generated_Source\PSoC6\pdl\drivers/peripheral/gpio/cy_gpio.h **** #define CY_GPIO_DM_STRONG_IN_OFF               (0x06UL) /**< Strong Drive. Input buffer off */
 413:Generated_Source\PSoC6\pdl\drivers/peripheral/gpio/cy_gpio.h **** #define CY_GPIO_DM_PULLUP_DOWN_IN_OFF          (0x07UL) /**< Resistive Pull-Up/Down. Input buffer o
 414:Generated_Source\PSoC6\pdl\drivers/peripheral/gpio/cy_gpio.h **** #define CY_GPIO_DM_HIGHZ                       (0x08UL) /**< Digital High-Z. Input buffer on */
 415:Generated_Source\PSoC6\pdl\drivers/peripheral/gpio/cy_gpio.h **** #define CY_GPIO_DM_PULLUP                      (0x0AUL) /**< Resistive Pull-Up. Input buffer on */
 416:Generated_Source\PSoC6\pdl\drivers/peripheral/gpio/cy_gpio.h **** #define CY_GPIO_DM_PULLDOWN                    (0x0BUL) /**< Resistive Pull-Down. Input buffer on *
 417:Generated_Source\PSoC6\pdl\drivers/peripheral/gpio/cy_gpio.h **** #define CY_GPIO_DM_OD_DRIVESLOW                (0x0CUL) /**< Open Drain, Drives Low. Input buffer o
 418:Generated_Source\PSoC6\pdl\drivers/peripheral/gpio/cy_gpio.h **** #define CY_GPIO_DM_OD_DRIVESHIGH               (0x0DUL) /**< Open Drain, Drives High. Input buffer 
 419:Generated_Source\PSoC6\pdl\drivers/peripheral/gpio/cy_gpio.h **** #define CY_GPIO_DM_STRONG                      (0x0EUL) /**< Strong Drive. Input buffer on */
 420:Generated_Source\PSoC6\pdl\drivers/peripheral/gpio/cy_gpio.h **** #define CY_GPIO_DM_PULLUP_DOWN                 (0x0FUL) /**< Resistive Pull-Up/Down. Input buffer o
 421:Generated_Source\PSoC6\pdl\drivers/peripheral/gpio/cy_gpio.h **** /** \} */
 422:Generated_Source\PSoC6\pdl\drivers/peripheral/gpio/cy_gpio.h **** 
 423:Generated_Source\PSoC6\pdl\drivers/peripheral/gpio/cy_gpio.h **** /**
 424:Generated_Source\PSoC6\pdl\drivers/peripheral/gpio/cy_gpio.h **** * \defgroup group_gpio_vtrip Voltage trip mode
 425:Generated_Source\PSoC6\pdl\drivers/peripheral/gpio/cy_gpio.h **** * \{
 426:Generated_Source\PSoC6\pdl\drivers/peripheral/gpio/cy_gpio.h **** * Constants to be used for setting the voltage trip type on the pin.
 427:Generated_Source\PSoC6\pdl\drivers/peripheral/gpio/cy_gpio.h **** */
 428:Generated_Source\PSoC6\pdl\drivers/peripheral/gpio/cy_gpio.h **** #define CY_GPIO_VTRIP_CMOS                     (0x00UL) /**< Input buffer compatible with CMOS and 
 429:Generated_Source\PSoC6\pdl\drivers/peripheral/gpio/cy_gpio.h **** #define CY_GPIO_VTRIP_TTL                      (0x01UL) /**< Input buffer compatible with TTL and M
 430:Generated_Source\PSoC6\pdl\drivers/peripheral/gpio/cy_gpio.h **** /** \} */
 431:Generated_Source\PSoC6\pdl\drivers/peripheral/gpio/cy_gpio.h **** 
 432:Generated_Source\PSoC6\pdl\drivers/peripheral/gpio/cy_gpio.h **** /**
 433:Generated_Source\PSoC6\pdl\drivers/peripheral/gpio/cy_gpio.h **** * \defgroup group_gpio_slewRate Slew Rate Mode
 434:Generated_Source\PSoC6\pdl\drivers/peripheral/gpio/cy_gpio.h **** * \{
 435:Generated_Source\PSoC6\pdl\drivers/peripheral/gpio/cy_gpio.h **** * Constants to be used for setting the slew rate of the pin.
 436:Generated_Source\PSoC6\pdl\drivers/peripheral/gpio/cy_gpio.h **** */
 437:Generated_Source\PSoC6\pdl\drivers/peripheral/gpio/cy_gpio.h **** #define CY_GPIO_SLEW_FAST                      (0x00UL) /**< Fast slew rate */
 438:Generated_Source\PSoC6\pdl\drivers/peripheral/gpio/cy_gpio.h **** #define CY_GPIO_SLEW_SLOW                      (0x01UL) /**< Slow slew rate */
 439:Generated_Source\PSoC6\pdl\drivers/peripheral/gpio/cy_gpio.h **** /** \} */
 440:Generated_Source\PSoC6\pdl\drivers/peripheral/gpio/cy_gpio.h **** 
 441:Generated_Source\PSoC6\pdl\drivers/peripheral/gpio/cy_gpio.h **** /**
 442:Generated_Source\PSoC6\pdl\drivers/peripheral/gpio/cy_gpio.h **** * \defgroup group_gpio_driveStrength Pin drive strength
ARM GAS  C:\Users\seeho\AppData\Local\Temp\ccUkk7Dc.s 			page 34


 443:Generated_Source\PSoC6\pdl\drivers/peripheral/gpio/cy_gpio.h **** * \{
 444:Generated_Source\PSoC6\pdl\drivers/peripheral/gpio/cy_gpio.h **** * Constants to be used for setting the drive strength of the pin.
 445:Generated_Source\PSoC6\pdl\drivers/peripheral/gpio/cy_gpio.h **** */
 446:Generated_Source\PSoC6\pdl\drivers/peripheral/gpio/cy_gpio.h **** #define CY_GPIO_DRIVE_FULL                     (0x00UL) /**< Full drive strength: Max drive current
 447:Generated_Source\PSoC6\pdl\drivers/peripheral/gpio/cy_gpio.h **** #define CY_GPIO_DRIVE_1_2                      (0x01UL) /**< 1/2 drive strength: 1/2 drive current 
 448:Generated_Source\PSoC6\pdl\drivers/peripheral/gpio/cy_gpio.h **** #define CY_GPIO_DRIVE_1_4                      (0x02UL) /**< 1/4 drive strength: 1/4 drive current 
 449:Generated_Source\PSoC6\pdl\drivers/peripheral/gpio/cy_gpio.h **** #define CY_GPIO_DRIVE_1_8                      (0x03UL) /**< 1/8 drive strength: 1/8 drive current 
 450:Generated_Source\PSoC6\pdl\drivers/peripheral/gpio/cy_gpio.h **** /** \} */
 451:Generated_Source\PSoC6\pdl\drivers/peripheral/gpio/cy_gpio.h **** 
 452:Generated_Source\PSoC6\pdl\drivers/peripheral/gpio/cy_gpio.h **** /**
 453:Generated_Source\PSoC6\pdl\drivers/peripheral/gpio/cy_gpio.h **** * \defgroup group_gpio_interruptTrigger Interrupt trigger type
 454:Generated_Source\PSoC6\pdl\drivers/peripheral/gpio/cy_gpio.h **** * \{
 455:Generated_Source\PSoC6\pdl\drivers/peripheral/gpio/cy_gpio.h **** * Constants to be used for setting the interrupt trigger type on the pin.
 456:Generated_Source\PSoC6\pdl\drivers/peripheral/gpio/cy_gpio.h **** */
 457:Generated_Source\PSoC6\pdl\drivers/peripheral/gpio/cy_gpio.h **** #define CY_GPIO_INTR_DISABLE                   (0x00UL) /**< Disable the pin interrupt generation *
 458:Generated_Source\PSoC6\pdl\drivers/peripheral/gpio/cy_gpio.h **** #define CY_GPIO_INTR_RISING                    (0x01UL) /**< Rising-Edge interrupt */
 459:Generated_Source\PSoC6\pdl\drivers/peripheral/gpio/cy_gpio.h **** #define CY_GPIO_INTR_FALLING                   (0x02UL) /**< Falling-Edge interrupt */
 460:Generated_Source\PSoC6\pdl\drivers/peripheral/gpio/cy_gpio.h **** #define CY_GPIO_INTR_BOTH                      (0x03UL) /**< Both-Edge interrupt */
 461:Generated_Source\PSoC6\pdl\drivers/peripheral/gpio/cy_gpio.h **** /** \} */
 462:Generated_Source\PSoC6\pdl\drivers/peripheral/gpio/cy_gpio.h **** 
 463:Generated_Source\PSoC6\pdl\drivers/peripheral/gpio/cy_gpio.h **** /**
 464:Generated_Source\PSoC6\pdl\drivers/peripheral/gpio/cy_gpio.h **** * \defgroup group_gpio_sioVreg SIO output buffer mode
 465:Generated_Source\PSoC6\pdl\drivers/peripheral/gpio/cy_gpio.h **** * \{
 466:Generated_Source\PSoC6\pdl\drivers/peripheral/gpio/cy_gpio.h **** * Constants to be used for setting the SIO output buffer mode on the pin.
 467:Generated_Source\PSoC6\pdl\drivers/peripheral/gpio/cy_gpio.h **** */
 468:Generated_Source\PSoC6\pdl\drivers/peripheral/gpio/cy_gpio.h **** #define CY_SIO_VREG_UNREGULATED                (0x00UL) /**< Unregulated output buffer */
 469:Generated_Source\PSoC6\pdl\drivers/peripheral/gpio/cy_gpio.h **** #define CY_SIO_VREG_REGULATED                  (0x01UL) /**< Regulated output buffer */
 470:Generated_Source\PSoC6\pdl\drivers/peripheral/gpio/cy_gpio.h **** /** \} */
 471:Generated_Source\PSoC6\pdl\drivers/peripheral/gpio/cy_gpio.h **** 
 472:Generated_Source\PSoC6\pdl\drivers/peripheral/gpio/cy_gpio.h **** /**
 473:Generated_Source\PSoC6\pdl\drivers/peripheral/gpio/cy_gpio.h **** * \defgroup group_gpio_sioIbuf SIO input buffer mode
 474:Generated_Source\PSoC6\pdl\drivers/peripheral/gpio/cy_gpio.h **** * \{
 475:Generated_Source\PSoC6\pdl\drivers/peripheral/gpio/cy_gpio.h **** * Constants to be used for setting the SIO input buffer mode on the pin.
 476:Generated_Source\PSoC6\pdl\drivers/peripheral/gpio/cy_gpio.h **** */
 477:Generated_Source\PSoC6\pdl\drivers/peripheral/gpio/cy_gpio.h **** #define CY_SIO_IBUF_SINGLEENDED                (0x00UL) /**< Single ended input buffer */
 478:Generated_Source\PSoC6\pdl\drivers/peripheral/gpio/cy_gpio.h **** #define CY_SIO_IBUF_DIFFERENTIAL               (0x01UL) /**< Differential input buffer */
 479:Generated_Source\PSoC6\pdl\drivers/peripheral/gpio/cy_gpio.h **** /** \} */
 480:Generated_Source\PSoC6\pdl\drivers/peripheral/gpio/cy_gpio.h **** 
 481:Generated_Source\PSoC6\pdl\drivers/peripheral/gpio/cy_gpio.h **** /**
 482:Generated_Source\PSoC6\pdl\drivers/peripheral/gpio/cy_gpio.h **** * \defgroup group_gpio_sioVtrip SIO input buffer trip-point
 483:Generated_Source\PSoC6\pdl\drivers/peripheral/gpio/cy_gpio.h **** * \{
 484:Generated_Source\PSoC6\pdl\drivers/peripheral/gpio/cy_gpio.h **** * Constants to be used for setting the SIO input buffer trip-point of the pin.
 485:Generated_Source\PSoC6\pdl\drivers/peripheral/gpio/cy_gpio.h **** */
 486:Generated_Source\PSoC6\pdl\drivers/peripheral/gpio/cy_gpio.h **** #define CY_SIO_VTRIP_CMOS                      (0x00UL) /**< CMOS input buffer (single-ended) */
 487:Generated_Source\PSoC6\pdl\drivers/peripheral/gpio/cy_gpio.h **** #define CY_SIO_VTRIP_TTL                       (0x01UL) /**< TTL input buffer (single-ended) */
 488:Generated_Source\PSoC6\pdl\drivers/peripheral/gpio/cy_gpio.h **** #define CY_SIO_VTRIP_0_5VDDIO_0_5VOH           (0x00UL) /**< 0.5xVddio or 0.5xVoh (differential) */
 489:Generated_Source\PSoC6\pdl\drivers/peripheral/gpio/cy_gpio.h **** #define CY_SIO_VTRIP_0_4VDDIO_1_0VREF          (0x01UL) /**< 0.4xVddio or 0.4xVoh (differential) */
 490:Generated_Source\PSoC6\pdl\drivers/peripheral/gpio/cy_gpio.h **** /** \} */
 491:Generated_Source\PSoC6\pdl\drivers/peripheral/gpio/cy_gpio.h **** 
 492:Generated_Source\PSoC6\pdl\drivers/peripheral/gpio/cy_gpio.h **** /**
 493:Generated_Source\PSoC6\pdl\drivers/peripheral/gpio/cy_gpio.h **** * \defgroup group_gpio_sioVref SIO reference voltage for input buffer trip-point
 494:Generated_Source\PSoC6\pdl\drivers/peripheral/gpio/cy_gpio.h **** * \{
 495:Generated_Source\PSoC6\pdl\drivers/peripheral/gpio/cy_gpio.h **** * Constants to be used for setting the reference voltage of SIO input buffer trip-point.
 496:Generated_Source\PSoC6\pdl\drivers/peripheral/gpio/cy_gpio.h **** */
 497:Generated_Source\PSoC6\pdl\drivers/peripheral/gpio/cy_gpio.h **** #define CY_SIO_VREF_PINREF                     (0x00UL) /**< Vref from analog pin */
 498:Generated_Source\PSoC6\pdl\drivers/peripheral/gpio/cy_gpio.h **** #define CY_SIO_VREF_1_2V                       (0x01UL) /**< Vref from internal 1.2V reference */
 499:Generated_Source\PSoC6\pdl\drivers/peripheral/gpio/cy_gpio.h **** #define CY_SIO_VREF_AMUX_A                     (0x02UL) /**< Vref from AMUXBUS_A */
ARM GAS  C:\Users\seeho\AppData\Local\Temp\ccUkk7Dc.s 			page 35


 500:Generated_Source\PSoC6\pdl\drivers/peripheral/gpio/cy_gpio.h **** #define CY_SIO_VREF_AMUX_B                     (0x03UL) /**< Vref from AMUXBUS_B */
 501:Generated_Source\PSoC6\pdl\drivers/peripheral/gpio/cy_gpio.h **** /** \} */
 502:Generated_Source\PSoC6\pdl\drivers/peripheral/gpio/cy_gpio.h **** 
 503:Generated_Source\PSoC6\pdl\drivers/peripheral/gpio/cy_gpio.h **** /**
 504:Generated_Source\PSoC6\pdl\drivers/peripheral/gpio/cy_gpio.h **** * \defgroup group_gpio_sioVoh Regulated output voltage level (Voh) and input buffer trip-point of a
 505:Generated_Source\PSoC6\pdl\drivers/peripheral/gpio/cy_gpio.h **** * \{
 506:Generated_Source\PSoC6\pdl\drivers/peripheral/gpio/cy_gpio.h **** * Constants to be used for setting the Voh and input buffer trip-point of an SIO pair
 507:Generated_Source\PSoC6\pdl\drivers/peripheral/gpio/cy_gpio.h **** */
 508:Generated_Source\PSoC6\pdl\drivers/peripheral/gpio/cy_gpio.h **** #define CY_SIO_VOH_1_00                        (0x00UL) /**< Voh = 1 x Reference */
 509:Generated_Source\PSoC6\pdl\drivers/peripheral/gpio/cy_gpio.h **** #define CY_SIO_VOH_1_25                        (0x01UL) /**< Voh = 1.25 x Reference */
 510:Generated_Source\PSoC6\pdl\drivers/peripheral/gpio/cy_gpio.h **** #define CY_SIO_VOH_1_49                        (0x02UL) /**< Voh = 1.49 x Reference */
 511:Generated_Source\PSoC6\pdl\drivers/peripheral/gpio/cy_gpio.h **** #define CY_SIO_VOH_1_67                        (0x03UL) /**< Voh = 1.67 x Reference */
 512:Generated_Source\PSoC6\pdl\drivers/peripheral/gpio/cy_gpio.h **** #define CY_SIO_VOH_2_08                        (0x04UL) /**< Voh = 2.08 x Reference */
 513:Generated_Source\PSoC6\pdl\drivers/peripheral/gpio/cy_gpio.h **** #define CY_SIO_VOH_2_50                        (0x05UL) /**< Voh = 2.50 x Reference */
 514:Generated_Source\PSoC6\pdl\drivers/peripheral/gpio/cy_gpio.h **** #define CY_SIO_VOH_2_78                        (0x06UL) /**< Voh = 2.78 x Reference */
 515:Generated_Source\PSoC6\pdl\drivers/peripheral/gpio/cy_gpio.h **** #define CY_SIO_VOH_4_16                        (0x07UL) /**< Voh = 4.16 x Reference */
 516:Generated_Source\PSoC6\pdl\drivers/peripheral/gpio/cy_gpio.h **** /** \} */
 517:Generated_Source\PSoC6\pdl\drivers/peripheral/gpio/cy_gpio.h **** 
 518:Generated_Source\PSoC6\pdl\drivers/peripheral/gpio/cy_gpio.h **** /** \} group_gpio_macros */
 519:Generated_Source\PSoC6\pdl\drivers/peripheral/gpio/cy_gpio.h **** 
 520:Generated_Source\PSoC6\pdl\drivers/peripheral/gpio/cy_gpio.h **** /***************************************
 521:Generated_Source\PSoC6\pdl\drivers/peripheral/gpio/cy_gpio.h **** *        Function Prototypes
 522:Generated_Source\PSoC6\pdl\drivers/peripheral/gpio/cy_gpio.h **** ***************************************/
 523:Generated_Source\PSoC6\pdl\drivers/peripheral/gpio/cy_gpio.h **** 
 524:Generated_Source\PSoC6\pdl\drivers/peripheral/gpio/cy_gpio.h **** /**
 525:Generated_Source\PSoC6\pdl\drivers/peripheral/gpio/cy_gpio.h **** * \addtogroup group_gpio_functions
 526:Generated_Source\PSoC6\pdl\drivers/peripheral/gpio/cy_gpio.h **** * \{
 527:Generated_Source\PSoC6\pdl\drivers/peripheral/gpio/cy_gpio.h **** */
 528:Generated_Source\PSoC6\pdl\drivers/peripheral/gpio/cy_gpio.h **** 
 529:Generated_Source\PSoC6\pdl\drivers/peripheral/gpio/cy_gpio.h **** /**
 530:Generated_Source\PSoC6\pdl\drivers/peripheral/gpio/cy_gpio.h **** * \addtogroup group_gpio_functions_init
 531:Generated_Source\PSoC6\pdl\drivers/peripheral/gpio/cy_gpio.h **** * \{
 532:Generated_Source\PSoC6\pdl\drivers/peripheral/gpio/cy_gpio.h **** */
 533:Generated_Source\PSoC6\pdl\drivers/peripheral/gpio/cy_gpio.h **** 
 534:Generated_Source\PSoC6\pdl\drivers/peripheral/gpio/cy_gpio.h **** cy_en_gpio_status_t Cy_GPIO_Pin_Init(GPIO_PRT_Type* base, uint32_t pinNum, const cy_stc_gpio_pin_co
 535:Generated_Source\PSoC6\pdl\drivers/peripheral/gpio/cy_gpio.h **** cy_en_gpio_status_t Cy_GPIO_Port_Init(GPIO_PRT_Type* base, const cy_stc_gpio_prt_config_t *config);
 536:Generated_Source\PSoC6\pdl\drivers/peripheral/gpio/cy_gpio.h **** void Cy_GPIO_Pin_FastInit(GPIO_PRT_Type* base, uint32_t pinNum, uint32_t driveMode, uint32_t outVal
 537:Generated_Source\PSoC6\pdl\drivers/peripheral/gpio/cy_gpio.h **** void Cy_GPIO_Port_Deinit(GPIO_PRT_Type* base);
 538:Generated_Source\PSoC6\pdl\drivers/peripheral/gpio/cy_gpio.h **** __STATIC_INLINE void Cy_GPIO_SetHSIOM(GPIO_PRT_Type* base, uint32_t pinNum, en_hsiom_sel_t value);
 539:Generated_Source\PSoC6\pdl\drivers/peripheral/gpio/cy_gpio.h **** __STATIC_INLINE en_hsiom_sel_t Cy_GPIO_GetHSIOM(GPIO_PRT_Type* base, uint32_t pinNum);
 540:Generated_Source\PSoC6\pdl\drivers/peripheral/gpio/cy_gpio.h **** __STATIC_INLINE GPIO_PRT_Type* Cy_GPIO_PortToAddr(uint32_t portNum);
 541:Generated_Source\PSoC6\pdl\drivers/peripheral/gpio/cy_gpio.h **** 
 542:Generated_Source\PSoC6\pdl\drivers/peripheral/gpio/cy_gpio.h **** /** \} group_gpio_functions_init */
 543:Generated_Source\PSoC6\pdl\drivers/peripheral/gpio/cy_gpio.h **** 
 544:Generated_Source\PSoC6\pdl\drivers/peripheral/gpio/cy_gpio.h **** /**
 545:Generated_Source\PSoC6\pdl\drivers/peripheral/gpio/cy_gpio.h **** * \addtogroup group_gpio_functions_gpio
 546:Generated_Source\PSoC6\pdl\drivers/peripheral/gpio/cy_gpio.h **** * \{
 547:Generated_Source\PSoC6\pdl\drivers/peripheral/gpio/cy_gpio.h **** */
 548:Generated_Source\PSoC6\pdl\drivers/peripheral/gpio/cy_gpio.h **** 
 549:Generated_Source\PSoC6\pdl\drivers/peripheral/gpio/cy_gpio.h **** void Cy_GPIO_SetAmuxSplit(cy_en_amux_split_t switchCtrl, cy_en_gpio_amuxconnect_t amuxConnect, cy_e
 550:Generated_Source\PSoC6\pdl\drivers/peripheral/gpio/cy_gpio.h **** cy_en_gpio_amuxconnect_t Cy_GPIO_GetAmuxSplit(cy_en_amux_split_t switchCtrl, cy_en_gpio_amuxselect_
 551:Generated_Source\PSoC6\pdl\drivers/peripheral/gpio/cy_gpio.h **** 
 552:Generated_Source\PSoC6\pdl\drivers/peripheral/gpio/cy_gpio.h **** __STATIC_INLINE uint32_t Cy_GPIO_Read(GPIO_PRT_Type* base, uint32_t pinNum);
 553:Generated_Source\PSoC6\pdl\drivers/peripheral/gpio/cy_gpio.h **** __STATIC_INLINE void Cy_GPIO_Write(GPIO_PRT_Type* base, uint32_t pinNum, uint32_t value);
 554:Generated_Source\PSoC6\pdl\drivers/peripheral/gpio/cy_gpio.h **** __STATIC_INLINE uint32_t Cy_GPIO_ReadOut(GPIO_PRT_Type* base, uint32_t pinNum);
 555:Generated_Source\PSoC6\pdl\drivers/peripheral/gpio/cy_gpio.h **** __STATIC_INLINE void Cy_GPIO_Set(GPIO_PRT_Type* base, uint32_t pinNum);
 556:Generated_Source\PSoC6\pdl\drivers/peripheral/gpio/cy_gpio.h **** __STATIC_INLINE void Cy_GPIO_Clr(GPIO_PRT_Type* base, uint32_t pinNum);
ARM GAS  C:\Users\seeho\AppData\Local\Temp\ccUkk7Dc.s 			page 36


 557:Generated_Source\PSoC6\pdl\drivers/peripheral/gpio/cy_gpio.h **** __STATIC_INLINE void Cy_GPIO_Inv(GPIO_PRT_Type* base, uint32_t pinNum);
 558:Generated_Source\PSoC6\pdl\drivers/peripheral/gpio/cy_gpio.h **** __STATIC_INLINE void Cy_GPIO_SetDrivemode(GPIO_PRT_Type* base, uint32_t pinNum, uint32_t value);
 559:Generated_Source\PSoC6\pdl\drivers/peripheral/gpio/cy_gpio.h **** __STATIC_INLINE uint32_t Cy_GPIO_GetDrivemode(GPIO_PRT_Type* base, uint32_t pinNum);
 560:Generated_Source\PSoC6\pdl\drivers/peripheral/gpio/cy_gpio.h **** __STATIC_INLINE void Cy_GPIO_SetVtrip(GPIO_PRT_Type* base, uint32_t pinNum, uint32_t value);
 561:Generated_Source\PSoC6\pdl\drivers/peripheral/gpio/cy_gpio.h **** __STATIC_INLINE uint32_t Cy_GPIO_GetVtrip(GPIO_PRT_Type* base, uint32_t pinNum);
 562:Generated_Source\PSoC6\pdl\drivers/peripheral/gpio/cy_gpio.h **** __STATIC_INLINE void Cy_GPIO_SetSlewRate(GPIO_PRT_Type* base, uint32_t pinNum, uint32_t value);
 563:Generated_Source\PSoC6\pdl\drivers/peripheral/gpio/cy_gpio.h **** __STATIC_INLINE uint32_t Cy_GPIO_GetSlewRate(GPIO_PRT_Type* base, uint32_t pinNum);
 564:Generated_Source\PSoC6\pdl\drivers/peripheral/gpio/cy_gpio.h **** __STATIC_INLINE void Cy_GPIO_SetDriveSel(GPIO_PRT_Type* base, uint32_t pinNum, uint32_t value);
 565:Generated_Source\PSoC6\pdl\drivers/peripheral/gpio/cy_gpio.h **** __STATIC_INLINE uint32_t Cy_GPIO_GetDriveSel(GPIO_PRT_Type* base, uint32_t pinNum);
 566:Generated_Source\PSoC6\pdl\drivers/peripheral/gpio/cy_gpio.h **** 
 567:Generated_Source\PSoC6\pdl\drivers/peripheral/gpio/cy_gpio.h **** /** \} group_gpio_functions_gpio */
 568:Generated_Source\PSoC6\pdl\drivers/peripheral/gpio/cy_gpio.h **** 
 569:Generated_Source\PSoC6\pdl\drivers/peripheral/gpio/cy_gpio.h **** /**
 570:Generated_Source\PSoC6\pdl\drivers/peripheral/gpio/cy_gpio.h **** * \addtogroup group_gpio_functions_sio
 571:Generated_Source\PSoC6\pdl\drivers/peripheral/gpio/cy_gpio.h **** * \{
 572:Generated_Source\PSoC6\pdl\drivers/peripheral/gpio/cy_gpio.h **** */
 573:Generated_Source\PSoC6\pdl\drivers/peripheral/gpio/cy_gpio.h **** 
 574:Generated_Source\PSoC6\pdl\drivers/peripheral/gpio/cy_gpio.h **** __STATIC_INLINE void Cy_GPIO_SetVregEn(GPIO_PRT_Type* base, uint32_t pinNum, uint32_t value);
 575:Generated_Source\PSoC6\pdl\drivers/peripheral/gpio/cy_gpio.h **** __STATIC_INLINE uint32_t Cy_GPIO_GetVregEn(GPIO_PRT_Type* base, uint32_t pinNum);
 576:Generated_Source\PSoC6\pdl\drivers/peripheral/gpio/cy_gpio.h **** __STATIC_INLINE void Cy_GPIO_SetIbufMode(GPIO_PRT_Type* base, uint32_t pinNum, uint32_t value);
 577:Generated_Source\PSoC6\pdl\drivers/peripheral/gpio/cy_gpio.h **** __STATIC_INLINE uint32_t Cy_GPIO_GetIbufMode(GPIO_PRT_Type* base, uint32_t pinNum);
 578:Generated_Source\PSoC6\pdl\drivers/peripheral/gpio/cy_gpio.h **** __STATIC_INLINE void Cy_GPIO_SetVtripSel(GPIO_PRT_Type* base, uint32_t pinNum, uint32_t value);
 579:Generated_Source\PSoC6\pdl\drivers/peripheral/gpio/cy_gpio.h **** __STATIC_INLINE uint32_t Cy_GPIO_GetVtripSel(GPIO_PRT_Type* base, uint32_t pinNum);
 580:Generated_Source\PSoC6\pdl\drivers/peripheral/gpio/cy_gpio.h **** __STATIC_INLINE void Cy_GPIO_SetVrefSel(GPIO_PRT_Type* base, uint32_t pinNum, uint32_t value);
 581:Generated_Source\PSoC6\pdl\drivers/peripheral/gpio/cy_gpio.h **** __STATIC_INLINE uint32_t Cy_GPIO_GetVrefSel(GPIO_PRT_Type* base, uint32_t pinNum);
 582:Generated_Source\PSoC6\pdl\drivers/peripheral/gpio/cy_gpio.h **** __STATIC_INLINE void Cy_GPIO_SetVohSel(GPIO_PRT_Type* base, uint32_t pinNum, uint32_t value);
 583:Generated_Source\PSoC6\pdl\drivers/peripheral/gpio/cy_gpio.h **** __STATIC_INLINE uint32_t Cy_GPIO_GetVohSel(GPIO_PRT_Type* base, uint32_t pinNum);
 584:Generated_Source\PSoC6\pdl\drivers/peripheral/gpio/cy_gpio.h **** 
 585:Generated_Source\PSoC6\pdl\drivers/peripheral/gpio/cy_gpio.h **** /** \} group_gpio_functions_sio */
 586:Generated_Source\PSoC6\pdl\drivers/peripheral/gpio/cy_gpio.h **** 
 587:Generated_Source\PSoC6\pdl\drivers/peripheral/gpio/cy_gpio.h **** /**
 588:Generated_Source\PSoC6\pdl\drivers/peripheral/gpio/cy_gpio.h **** * \addtogroup group_gpio_functions_interrupt
 589:Generated_Source\PSoC6\pdl\drivers/peripheral/gpio/cy_gpio.h **** * \{
 590:Generated_Source\PSoC6\pdl\drivers/peripheral/gpio/cy_gpio.h **** */
 591:Generated_Source\PSoC6\pdl\drivers/peripheral/gpio/cy_gpio.h **** 
 592:Generated_Source\PSoC6\pdl\drivers/peripheral/gpio/cy_gpio.h **** __STATIC_INLINE uint32_t Cy_GPIO_GetInterruptStatus(GPIO_PRT_Type* base, uint32_t pinNum);
 593:Generated_Source\PSoC6\pdl\drivers/peripheral/gpio/cy_gpio.h **** __STATIC_INLINE void Cy_GPIO_ClearInterrupt(GPIO_PRT_Type* base, uint32_t pinNum);
 594:Generated_Source\PSoC6\pdl\drivers/peripheral/gpio/cy_gpio.h **** __STATIC_INLINE void Cy_GPIO_SetInterruptMask(GPIO_PRT_Type* base, uint32_t pinNum, uint32_t value)
 595:Generated_Source\PSoC6\pdl\drivers/peripheral/gpio/cy_gpio.h **** __STATIC_INLINE uint32_t Cy_GPIO_GetInterruptMask(GPIO_PRT_Type* base, uint32_t pinNum);
 596:Generated_Source\PSoC6\pdl\drivers/peripheral/gpio/cy_gpio.h **** __STATIC_INLINE uint32_t Cy_GPIO_GetInterruptStatusMasked(GPIO_PRT_Type* base, uint32_t pinNum);
 597:Generated_Source\PSoC6\pdl\drivers/peripheral/gpio/cy_gpio.h **** __STATIC_INLINE void Cy_GPIO_SetSwInterrupt(GPIO_PRT_Type* base, uint32_t pinNum);
 598:Generated_Source\PSoC6\pdl\drivers/peripheral/gpio/cy_gpio.h **** __STATIC_INLINE void Cy_GPIO_SetInterruptEdge(GPIO_PRT_Type* base, uint32_t pinNum, uint32_t value)
 599:Generated_Source\PSoC6\pdl\drivers/peripheral/gpio/cy_gpio.h **** __STATIC_INLINE uint32_t Cy_GPIO_GetInterruptEdge(GPIO_PRT_Type* base, uint32_t pinNum);
 600:Generated_Source\PSoC6\pdl\drivers/peripheral/gpio/cy_gpio.h **** __STATIC_INLINE void Cy_GPIO_SetFilter(GPIO_PRT_Type* base, uint32_t value);
 601:Generated_Source\PSoC6\pdl\drivers/peripheral/gpio/cy_gpio.h **** __STATIC_INLINE uint32_t Cy_GPIO_GetFilter(GPIO_PRT_Type* base);
 602:Generated_Source\PSoC6\pdl\drivers/peripheral/gpio/cy_gpio.h **** 
 603:Generated_Source\PSoC6\pdl\drivers/peripheral/gpio/cy_gpio.h **** __STATIC_INLINE uint32_t Cy_GPIO_GetInterruptCause0(void);
 604:Generated_Source\PSoC6\pdl\drivers/peripheral/gpio/cy_gpio.h **** __STATIC_INLINE uint32_t Cy_GPIO_GetInterruptCause1(void);
 605:Generated_Source\PSoC6\pdl\drivers/peripheral/gpio/cy_gpio.h **** __STATIC_INLINE uint32_t Cy_GPIO_GetInterruptCause2(void);
 606:Generated_Source\PSoC6\pdl\drivers/peripheral/gpio/cy_gpio.h **** __STATIC_INLINE uint32_t Cy_GPIO_GetInterruptCause3(void);
 607:Generated_Source\PSoC6\pdl\drivers/peripheral/gpio/cy_gpio.h **** 
 608:Generated_Source\PSoC6\pdl\drivers/peripheral/gpio/cy_gpio.h **** /** \} group_gpio_functions_interrupt */
 609:Generated_Source\PSoC6\pdl\drivers/peripheral/gpio/cy_gpio.h **** 
 610:Generated_Source\PSoC6\pdl\drivers/peripheral/gpio/cy_gpio.h **** 
 611:Generated_Source\PSoC6\pdl\drivers/peripheral/gpio/cy_gpio.h **** /**
 612:Generated_Source\PSoC6\pdl\drivers/peripheral/gpio/cy_gpio.h **** * \addtogroup group_gpio_functions_init
 613:Generated_Source\PSoC6\pdl\drivers/peripheral/gpio/cy_gpio.h **** * \{
ARM GAS  C:\Users\seeho\AppData\Local\Temp\ccUkk7Dc.s 			page 37


 614:Generated_Source\PSoC6\pdl\drivers/peripheral/gpio/cy_gpio.h **** */
 615:Generated_Source\PSoC6\pdl\drivers/peripheral/gpio/cy_gpio.h **** 
 616:Generated_Source\PSoC6\pdl\drivers/peripheral/gpio/cy_gpio.h **** /*******************************************************************************
 617:Generated_Source\PSoC6\pdl\drivers/peripheral/gpio/cy_gpio.h **** * Function Name: Cy_GPIO_SetHSIOM
 618:Generated_Source\PSoC6\pdl\drivers/peripheral/gpio/cy_gpio.h **** ****************************************************************************//**
 619:Generated_Source\PSoC6\pdl\drivers/peripheral/gpio/cy_gpio.h **** *
 620:Generated_Source\PSoC6\pdl\drivers/peripheral/gpio/cy_gpio.h **** * Configures the HSIOM connection to the pin.
 621:Generated_Source\PSoC6\pdl\drivers/peripheral/gpio/cy_gpio.h **** *
 622:Generated_Source\PSoC6\pdl\drivers/peripheral/gpio/cy_gpio.h **** * Connects the specified High-Speed Input Output Multiplexer (HSIOM) selection
 623:Generated_Source\PSoC6\pdl\drivers/peripheral/gpio/cy_gpio.h **** * to the pin.
 624:Generated_Source\PSoC6\pdl\drivers/peripheral/gpio/cy_gpio.h **** *
 625:Generated_Source\PSoC6\pdl\drivers/peripheral/gpio/cy_gpio.h **** * \param base
 626:Generated_Source\PSoC6\pdl\drivers/peripheral/gpio/cy_gpio.h **** * Pointer to the pin's port register base address
 627:Generated_Source\PSoC6\pdl\drivers/peripheral/gpio/cy_gpio.h **** *
 628:Generated_Source\PSoC6\pdl\drivers/peripheral/gpio/cy_gpio.h **** * \param pinNum
 629:Generated_Source\PSoC6\pdl\drivers/peripheral/gpio/cy_gpio.h **** * Position of the pin bit-field within the port register
 630:Generated_Source\PSoC6\pdl\drivers/peripheral/gpio/cy_gpio.h **** *
 631:Generated_Source\PSoC6\pdl\drivers/peripheral/gpio/cy_gpio.h **** * \param value
 632:Generated_Source\PSoC6\pdl\drivers/peripheral/gpio/cy_gpio.h **** * HSIOM input selection
 633:Generated_Source\PSoC6\pdl\drivers/peripheral/gpio/cy_gpio.h **** *
 634:Generated_Source\PSoC6\pdl\drivers/peripheral/gpio/cy_gpio.h **** * \note 
 635:Generated_Source\PSoC6\pdl\drivers/peripheral/gpio/cy_gpio.h **** * This function modifies a port register in a read-modify-write operation. It is
 636:Generated_Source\PSoC6\pdl\drivers/peripheral/gpio/cy_gpio.h **** * not thread safe as the resource is shared among multiple pins on a port.
 637:Generated_Source\PSoC6\pdl\drivers/peripheral/gpio/cy_gpio.h **** *
 638:Generated_Source\PSoC6\pdl\drivers/peripheral/gpio/cy_gpio.h **** * \funcusage
 639:Generated_Source\PSoC6\pdl\drivers/peripheral/gpio/cy_gpio.h **** * \snippet gpio/gpio_v1_10_sut_01.cydsn/main_cm4.c snippet_Cy_GPIO_SetHSIOM
 640:Generated_Source\PSoC6\pdl\drivers/peripheral/gpio/cy_gpio.h **** *
 641:Generated_Source\PSoC6\pdl\drivers/peripheral/gpio/cy_gpio.h **** *******************************************************************************/
 642:Generated_Source\PSoC6\pdl\drivers/peripheral/gpio/cy_gpio.h **** __STATIC_INLINE void Cy_GPIO_SetHSIOM(GPIO_PRT_Type* base, uint32_t pinNum, en_hsiom_sel_t value)
 643:Generated_Source\PSoC6\pdl\drivers/peripheral/gpio/cy_gpio.h **** {
 644:Generated_Source\PSoC6\pdl\drivers/peripheral/gpio/cy_gpio.h ****     uint32_t portNum;
 645:Generated_Source\PSoC6\pdl\drivers/peripheral/gpio/cy_gpio.h ****     uint32_t tempReg;
 646:Generated_Source\PSoC6\pdl\drivers/peripheral/gpio/cy_gpio.h ****     HSIOM_PRT_V1_Type* portAddrHSIOM;
 647:Generated_Source\PSoC6\pdl\drivers/peripheral/gpio/cy_gpio.h **** 
 648:Generated_Source\PSoC6\pdl\drivers/peripheral/gpio/cy_gpio.h ****     CY_ASSERT_L2(CY_GPIO_IS_PIN_VALID(pinNum));
 649:Generated_Source\PSoC6\pdl\drivers/peripheral/gpio/cy_gpio.h ****     CY_ASSERT_L2(CY_GPIO_IS_HSIOM_VALID(value));
 650:Generated_Source\PSoC6\pdl\drivers/peripheral/gpio/cy_gpio.h **** 
 651:Generated_Source\PSoC6\pdl\drivers/peripheral/gpio/cy_gpio.h ****     portNum = ((uint32_t)(base) - CY_GPIO_BASE) / GPIO_PRT_SECTION_SIZE;
 652:Generated_Source\PSoC6\pdl\drivers/peripheral/gpio/cy_gpio.h ****     portAddrHSIOM = (HSIOM_PRT_V1_Type*)(CY_HSIOM_BASE + (HSIOM_PRT_SECTION_SIZE * portNum));
 653:Generated_Source\PSoC6\pdl\drivers/peripheral/gpio/cy_gpio.h **** 
 654:Generated_Source\PSoC6\pdl\drivers/peripheral/gpio/cy_gpio.h ****     if(pinNum < CY_GPIO_PRT_HALF)
 655:Generated_Source\PSoC6\pdl\drivers/peripheral/gpio/cy_gpio.h ****     {
 656:Generated_Source\PSoC6\pdl\drivers/peripheral/gpio/cy_gpio.h ****         tempReg = HSIOM_PRT_PORT_SEL0(portAddrHSIOM) & ~(CY_GPIO_HSIOM_MASK << (pinNum << CY_GPIO_H
 657:Generated_Source\PSoC6\pdl\drivers/peripheral/gpio/cy_gpio.h ****         HSIOM_PRT_PORT_SEL0(portAddrHSIOM) = tempReg | ((value & CY_GPIO_HSIOM_MASK) << (pinNum << 
 658:Generated_Source\PSoC6\pdl\drivers/peripheral/gpio/cy_gpio.h ****     }
 659:Generated_Source\PSoC6\pdl\drivers/peripheral/gpio/cy_gpio.h ****     else
 660:Generated_Source\PSoC6\pdl\drivers/peripheral/gpio/cy_gpio.h ****     {
 661:Generated_Source\PSoC6\pdl\drivers/peripheral/gpio/cy_gpio.h ****         pinNum -= CY_GPIO_PRT_HALF;
 662:Generated_Source\PSoC6\pdl\drivers/peripheral/gpio/cy_gpio.h ****         tempReg = HSIOM_PRT_PORT_SEL1(portAddrHSIOM) & ~(CY_GPIO_HSIOM_MASK << (pinNum << CY_GPIO_H
 663:Generated_Source\PSoC6\pdl\drivers/peripheral/gpio/cy_gpio.h ****         HSIOM_PRT_PORT_SEL1(portAddrHSIOM) = tempReg | ((value & CY_GPIO_HSIOM_MASK) << (pinNum << 
 664:Generated_Source\PSoC6\pdl\drivers/peripheral/gpio/cy_gpio.h ****     }
 665:Generated_Source\PSoC6\pdl\drivers/peripheral/gpio/cy_gpio.h **** }
 666:Generated_Source\PSoC6\pdl\drivers/peripheral/gpio/cy_gpio.h **** 
 667:Generated_Source\PSoC6\pdl\drivers/peripheral/gpio/cy_gpio.h **** 
 668:Generated_Source\PSoC6\pdl\drivers/peripheral/gpio/cy_gpio.h **** /*******************************************************************************
 669:Generated_Source\PSoC6\pdl\drivers/peripheral/gpio/cy_gpio.h **** * Function Name: Cy_GPIO_GetHSIOM
 670:Generated_Source\PSoC6\pdl\drivers/peripheral/gpio/cy_gpio.h **** ****************************************************************************//**
ARM GAS  C:\Users\seeho\AppData\Local\Temp\ccUkk7Dc.s 			page 38


 671:Generated_Source\PSoC6\pdl\drivers/peripheral/gpio/cy_gpio.h **** *
 672:Generated_Source\PSoC6\pdl\drivers/peripheral/gpio/cy_gpio.h **** * Returns the current HSIOM multiplexer connection to the pin.
 673:Generated_Source\PSoC6\pdl\drivers/peripheral/gpio/cy_gpio.h **** *
 674:Generated_Source\PSoC6\pdl\drivers/peripheral/gpio/cy_gpio.h **** * \param base
 675:Generated_Source\PSoC6\pdl\drivers/peripheral/gpio/cy_gpio.h **** * Pointer to the pin's port register base address
 676:Generated_Source\PSoC6\pdl\drivers/peripheral/gpio/cy_gpio.h **** *
 677:Generated_Source\PSoC6\pdl\drivers/peripheral/gpio/cy_gpio.h **** * \param pinNum
 678:Generated_Source\PSoC6\pdl\drivers/peripheral/gpio/cy_gpio.h **** * Position of the pin bit-field within the port register
 679:Generated_Source\PSoC6\pdl\drivers/peripheral/gpio/cy_gpio.h **** *
 680:Generated_Source\PSoC6\pdl\drivers/peripheral/gpio/cy_gpio.h **** * \return
 681:Generated_Source\PSoC6\pdl\drivers/peripheral/gpio/cy_gpio.h **** * HSIOM input selection
 682:Generated_Source\PSoC6\pdl\drivers/peripheral/gpio/cy_gpio.h **** *
 683:Generated_Source\PSoC6\pdl\drivers/peripheral/gpio/cy_gpio.h **** * \funcusage
 684:Generated_Source\PSoC6\pdl\drivers/peripheral/gpio/cy_gpio.h **** * \snippet gpio/gpio_v1_10_sut_01.cydsn/main_cm4.c snippet_Cy_GPIO_SetHSIOM
 685:Generated_Source\PSoC6\pdl\drivers/peripheral/gpio/cy_gpio.h **** *
 686:Generated_Source\PSoC6\pdl\drivers/peripheral/gpio/cy_gpio.h **** *******************************************************************************/
 687:Generated_Source\PSoC6\pdl\drivers/peripheral/gpio/cy_gpio.h **** __STATIC_INLINE en_hsiom_sel_t Cy_GPIO_GetHSIOM(GPIO_PRT_Type* base, uint32_t pinNum)
 688:Generated_Source\PSoC6\pdl\drivers/peripheral/gpio/cy_gpio.h **** {
 689:Generated_Source\PSoC6\pdl\drivers/peripheral/gpio/cy_gpio.h ****     uint32_t returnValue;
 690:Generated_Source\PSoC6\pdl\drivers/peripheral/gpio/cy_gpio.h ****     uint32_t portNum;
 691:Generated_Source\PSoC6\pdl\drivers/peripheral/gpio/cy_gpio.h ****     HSIOM_PRT_V1_Type* portAddrHSIOM;
 692:Generated_Source\PSoC6\pdl\drivers/peripheral/gpio/cy_gpio.h ****     
 693:Generated_Source\PSoC6\pdl\drivers/peripheral/gpio/cy_gpio.h ****     CY_ASSERT_L2(CY_GPIO_IS_PIN_VALID(pinNum));
 694:Generated_Source\PSoC6\pdl\drivers/peripheral/gpio/cy_gpio.h **** 
 695:Generated_Source\PSoC6\pdl\drivers/peripheral/gpio/cy_gpio.h ****     portNum = ((uint32_t)(base) - CY_GPIO_BASE) / GPIO_PRT_SECTION_SIZE;
 696:Generated_Source\PSoC6\pdl\drivers/peripheral/gpio/cy_gpio.h ****     portAddrHSIOM = (HSIOM_PRT_V1_Type*)(CY_HSIOM_BASE + (HSIOM_PRT_SECTION_SIZE * portNum));
 697:Generated_Source\PSoC6\pdl\drivers/peripheral/gpio/cy_gpio.h **** 
 698:Generated_Source\PSoC6\pdl\drivers/peripheral/gpio/cy_gpio.h ****     if(pinNum < CY_GPIO_PRT_HALF)
 699:Generated_Source\PSoC6\pdl\drivers/peripheral/gpio/cy_gpio.h ****     {
 700:Generated_Source\PSoC6\pdl\drivers/peripheral/gpio/cy_gpio.h ****         returnValue = (HSIOM_PRT_PORT_SEL0(portAddrHSIOM) >> (pinNum << CY_GPIO_HSIOM_OFFSET)) & CY
 701:Generated_Source\PSoC6\pdl\drivers/peripheral/gpio/cy_gpio.h ****     }
 702:Generated_Source\PSoC6\pdl\drivers/peripheral/gpio/cy_gpio.h ****     else
 703:Generated_Source\PSoC6\pdl\drivers/peripheral/gpio/cy_gpio.h ****     {
 704:Generated_Source\PSoC6\pdl\drivers/peripheral/gpio/cy_gpio.h ****         pinNum -= CY_GPIO_PRT_HALF;
 705:Generated_Source\PSoC6\pdl\drivers/peripheral/gpio/cy_gpio.h ****         returnValue = (HSIOM_PRT_PORT_SEL1(portAddrHSIOM) >> (pinNum << CY_GPIO_HSIOM_OFFSET)) & CY
 706:Generated_Source\PSoC6\pdl\drivers/peripheral/gpio/cy_gpio.h ****     }
 707:Generated_Source\PSoC6\pdl\drivers/peripheral/gpio/cy_gpio.h **** 
 708:Generated_Source\PSoC6\pdl\drivers/peripheral/gpio/cy_gpio.h ****     return (en_hsiom_sel_t)returnValue;
 709:Generated_Source\PSoC6\pdl\drivers/peripheral/gpio/cy_gpio.h **** }
 710:Generated_Source\PSoC6\pdl\drivers/peripheral/gpio/cy_gpio.h **** 
 711:Generated_Source\PSoC6\pdl\drivers/peripheral/gpio/cy_gpio.h **** 
 712:Generated_Source\PSoC6\pdl\drivers/peripheral/gpio/cy_gpio.h **** /*******************************************************************************
 713:Generated_Source\PSoC6\pdl\drivers/peripheral/gpio/cy_gpio.h **** * Function Name: Cy_GPIO_PortToAddr
 714:Generated_Source\PSoC6\pdl\drivers/peripheral/gpio/cy_gpio.h **** ****************************************************************************//**
 715:Generated_Source\PSoC6\pdl\drivers/peripheral/gpio/cy_gpio.h **** *
 716:Generated_Source\PSoC6\pdl\drivers/peripheral/gpio/cy_gpio.h **** * Retrieves the port address based on the given port number.
 717:Generated_Source\PSoC6\pdl\drivers/peripheral/gpio/cy_gpio.h **** *
 718:Generated_Source\PSoC6\pdl\drivers/peripheral/gpio/cy_gpio.h **** * This is a helper function to calculate the port base address when given a port
 719:Generated_Source\PSoC6\pdl\drivers/peripheral/gpio/cy_gpio.h **** * number. It is to be used when pin access needs to be calculated at runtime.
 720:Generated_Source\PSoC6\pdl\drivers/peripheral/gpio/cy_gpio.h **** *
 721:Generated_Source\PSoC6\pdl\drivers/peripheral/gpio/cy_gpio.h **** * \param portNum
 722:Generated_Source\PSoC6\pdl\drivers/peripheral/gpio/cy_gpio.h **** * Port number
 723:Generated_Source\PSoC6\pdl\drivers/peripheral/gpio/cy_gpio.h **** *
 724:Generated_Source\PSoC6\pdl\drivers/peripheral/gpio/cy_gpio.h **** * \return
 725:Generated_Source\PSoC6\pdl\drivers/peripheral/gpio/cy_gpio.h **** * Base address of the port register structure
 726:Generated_Source\PSoC6\pdl\drivers/peripheral/gpio/cy_gpio.h **** *
 727:Generated_Source\PSoC6\pdl\drivers/peripheral/gpio/cy_gpio.h **** * \funcusage
ARM GAS  C:\Users\seeho\AppData\Local\Temp\ccUkk7Dc.s 			page 39


 728:Generated_Source\PSoC6\pdl\drivers/peripheral/gpio/cy_gpio.h **** * \snippet gpio/gpio_v1_10_sut_01.cydsn/main_cm4.c snippet_Cy_GPIO_PortToAddr
 729:Generated_Source\PSoC6\pdl\drivers/peripheral/gpio/cy_gpio.h **** *
 730:Generated_Source\PSoC6\pdl\drivers/peripheral/gpio/cy_gpio.h **** *******************************************************************************/
 731:Generated_Source\PSoC6\pdl\drivers/peripheral/gpio/cy_gpio.h **** __STATIC_INLINE GPIO_PRT_Type* Cy_GPIO_PortToAddr(uint32_t portNum)
 732:Generated_Source\PSoC6\pdl\drivers/peripheral/gpio/cy_gpio.h **** {
 733:Generated_Source\PSoC6\pdl\drivers/peripheral/gpio/cy_gpio.h ****     GPIO_PRT_Type* portBase;
 734:Generated_Source\PSoC6\pdl\drivers/peripheral/gpio/cy_gpio.h ****     
 735:Generated_Source\PSoC6\pdl\drivers/peripheral/gpio/cy_gpio.h ****     if(portNum < (uint32_t)IOSS_GPIO_GPIO_PORT_NR)
 736:Generated_Source\PSoC6\pdl\drivers/peripheral/gpio/cy_gpio.h ****     {
 737:Generated_Source\PSoC6\pdl\drivers/peripheral/gpio/cy_gpio.h ****         portBase = (GPIO_PRT_Type *)(CY_GPIO_BASE + (GPIO_PRT_SECTION_SIZE * portNum));
 738:Generated_Source\PSoC6\pdl\drivers/peripheral/gpio/cy_gpio.h ****     }
 739:Generated_Source\PSoC6\pdl\drivers/peripheral/gpio/cy_gpio.h ****     else
 740:Generated_Source\PSoC6\pdl\drivers/peripheral/gpio/cy_gpio.h ****     {
 741:Generated_Source\PSoC6\pdl\drivers/peripheral/gpio/cy_gpio.h ****         /* Error: Return default base address */
 742:Generated_Source\PSoC6\pdl\drivers/peripheral/gpio/cy_gpio.h ****         portBase = (GPIO_PRT_Type *)(CY_GPIO_BASE);
 743:Generated_Source\PSoC6\pdl\drivers/peripheral/gpio/cy_gpio.h ****     }
 744:Generated_Source\PSoC6\pdl\drivers/peripheral/gpio/cy_gpio.h **** 
 745:Generated_Source\PSoC6\pdl\drivers/peripheral/gpio/cy_gpio.h ****     return (portBase);
 746:Generated_Source\PSoC6\pdl\drivers/peripheral/gpio/cy_gpio.h **** }
 747:Generated_Source\PSoC6\pdl\drivers/peripheral/gpio/cy_gpio.h **** 
 748:Generated_Source\PSoC6\pdl\drivers/peripheral/gpio/cy_gpio.h **** /** \} group_gpio_functions_init */
 749:Generated_Source\PSoC6\pdl\drivers/peripheral/gpio/cy_gpio.h **** 
 750:Generated_Source\PSoC6\pdl\drivers/peripheral/gpio/cy_gpio.h **** /**
 751:Generated_Source\PSoC6\pdl\drivers/peripheral/gpio/cy_gpio.h **** * \addtogroup group_gpio_functions_gpio
 752:Generated_Source\PSoC6\pdl\drivers/peripheral/gpio/cy_gpio.h **** * \{
 753:Generated_Source\PSoC6\pdl\drivers/peripheral/gpio/cy_gpio.h **** */
 754:Generated_Source\PSoC6\pdl\drivers/peripheral/gpio/cy_gpio.h **** 
 755:Generated_Source\PSoC6\pdl\drivers/peripheral/gpio/cy_gpio.h **** /*******************************************************************************
 756:Generated_Source\PSoC6\pdl\drivers/peripheral/gpio/cy_gpio.h **** * Function Name: Cy_GPIO_Read
 757:Generated_Source\PSoC6\pdl\drivers/peripheral/gpio/cy_gpio.h **** ****************************************************************************//**
 758:Generated_Source\PSoC6\pdl\drivers/peripheral/gpio/cy_gpio.h **** *
 759:Generated_Source\PSoC6\pdl\drivers/peripheral/gpio/cy_gpio.h **** * Reads the current logic level on the input buffer of the pin.
 760:Generated_Source\PSoC6\pdl\drivers/peripheral/gpio/cy_gpio.h **** *
 761:Generated_Source\PSoC6\pdl\drivers/peripheral/gpio/cy_gpio.h **** * \param base
 762:Generated_Source\PSoC6\pdl\drivers/peripheral/gpio/cy_gpio.h **** * Pointer to the pin's port register base address
 763:Generated_Source\PSoC6\pdl\drivers/peripheral/gpio/cy_gpio.h **** *
 764:Generated_Source\PSoC6\pdl\drivers/peripheral/gpio/cy_gpio.h **** * \param pinNum
 765:Generated_Source\PSoC6\pdl\drivers/peripheral/gpio/cy_gpio.h **** * Position of the pin bit-field within the port register.
 766:Generated_Source\PSoC6\pdl\drivers/peripheral/gpio/cy_gpio.h **** * Bit position 8 is the routed pin through the port glitch filter.
 767:Generated_Source\PSoC6\pdl\drivers/peripheral/gpio/cy_gpio.h **** *
 768:Generated_Source\PSoC6\pdl\drivers/peripheral/gpio/cy_gpio.h **** * \return
 769:Generated_Source\PSoC6\pdl\drivers/peripheral/gpio/cy_gpio.h **** * Logic level present on the pin
 770:Generated_Source\PSoC6\pdl\drivers/peripheral/gpio/cy_gpio.h **** *
 771:Generated_Source\PSoC6\pdl\drivers/peripheral/gpio/cy_gpio.h **** * \funcusage
 772:Generated_Source\PSoC6\pdl\drivers/peripheral/gpio/cy_gpio.h **** * \snippet gpio/gpio_v1_10_sut_01.cydsn/main_cm4.c snippet_Cy_GPIO_Read
 773:Generated_Source\PSoC6\pdl\drivers/peripheral/gpio/cy_gpio.h **** *
 774:Generated_Source\PSoC6\pdl\drivers/peripheral/gpio/cy_gpio.h **** *******************************************************************************/
 775:Generated_Source\PSoC6\pdl\drivers/peripheral/gpio/cy_gpio.h **** __STATIC_INLINE uint32_t Cy_GPIO_Read(GPIO_PRT_Type* base, uint32_t pinNum)
 776:Generated_Source\PSoC6\pdl\drivers/peripheral/gpio/cy_gpio.h **** {
 777:Generated_Source\PSoC6\pdl\drivers/peripheral/gpio/cy_gpio.h ****     CY_ASSERT_L2(CY_GPIO_IS_FILTER_PIN_VALID(pinNum));
 778:Generated_Source\PSoC6\pdl\drivers/peripheral/gpio/cy_gpio.h ****     
 779:Generated_Source\PSoC6\pdl\drivers/peripheral/gpio/cy_gpio.h ****     return (GPIO_PRT_IN(base) >> (pinNum)) & CY_GPIO_IN_MASK;
 780:Generated_Source\PSoC6\pdl\drivers/peripheral/gpio/cy_gpio.h **** }
 781:Generated_Source\PSoC6\pdl\drivers/peripheral/gpio/cy_gpio.h **** 
 782:Generated_Source\PSoC6\pdl\drivers/peripheral/gpio/cy_gpio.h **** 
 783:Generated_Source\PSoC6\pdl\drivers/peripheral/gpio/cy_gpio.h **** /*******************************************************************************
 784:Generated_Source\PSoC6\pdl\drivers/peripheral/gpio/cy_gpio.h **** * Function Name: Cy_GPIO_Write
ARM GAS  C:\Users\seeho\AppData\Local\Temp\ccUkk7Dc.s 			page 40


 785:Generated_Source\PSoC6\pdl\drivers/peripheral/gpio/cy_gpio.h **** ****************************************************************************//**
 786:Generated_Source\PSoC6\pdl\drivers/peripheral/gpio/cy_gpio.h **** *
 787:Generated_Source\PSoC6\pdl\drivers/peripheral/gpio/cy_gpio.h **** * Write a logic 0 or logic 1 state to the output driver.
 788:Generated_Source\PSoC6\pdl\drivers/peripheral/gpio/cy_gpio.h **** *
 789:Generated_Source\PSoC6\pdl\drivers/peripheral/gpio/cy_gpio.h **** * This function should be used only for software driven pins. It does not have
 790:Generated_Source\PSoC6\pdl\drivers/peripheral/gpio/cy_gpio.h **** * any effect on peripheral driven pins.
 791:Generated_Source\PSoC6\pdl\drivers/peripheral/gpio/cy_gpio.h **** *
 792:Generated_Source\PSoC6\pdl\drivers/peripheral/gpio/cy_gpio.h **** * \param base
 793:Generated_Source\PSoC6\pdl\drivers/peripheral/gpio/cy_gpio.h **** * Pointer to the pin's port register base address
 794:Generated_Source\PSoC6\pdl\drivers/peripheral/gpio/cy_gpio.h **** *
 795:Generated_Source\PSoC6\pdl\drivers/peripheral/gpio/cy_gpio.h **** * \param pinNum
 796:Generated_Source\PSoC6\pdl\drivers/peripheral/gpio/cy_gpio.h **** * Position of the pin bit-field within the port register
 797:Generated_Source\PSoC6\pdl\drivers/peripheral/gpio/cy_gpio.h **** *
 798:Generated_Source\PSoC6\pdl\drivers/peripheral/gpio/cy_gpio.h **** * \param value
 799:Generated_Source\PSoC6\pdl\drivers/peripheral/gpio/cy_gpio.h **** * Logic level to drive out on the pin
 800:Generated_Source\PSoC6\pdl\drivers/peripheral/gpio/cy_gpio.h **** *
 801:Generated_Source\PSoC6\pdl\drivers/peripheral/gpio/cy_gpio.h **** * \funcusage
 802:Generated_Source\PSoC6\pdl\drivers/peripheral/gpio/cy_gpio.h **** * \snippet gpio/gpio_v1_10_sut_01.cydsn/main_cm4.c snippet_Cy_GPIO_Write
 803:Generated_Source\PSoC6\pdl\drivers/peripheral/gpio/cy_gpio.h **** *
 804:Generated_Source\PSoC6\pdl\drivers/peripheral/gpio/cy_gpio.h **** *******************************************************************************/
 805:Generated_Source\PSoC6\pdl\drivers/peripheral/gpio/cy_gpio.h **** __STATIC_INLINE void Cy_GPIO_Write(GPIO_PRT_Type* base, uint32_t pinNum, uint32_t value)
 806:Generated_Source\PSoC6\pdl\drivers/peripheral/gpio/cy_gpio.h **** {
 807:Generated_Source\PSoC6\pdl\drivers/peripheral/gpio/cy_gpio.h ****     CY_ASSERT_L2(CY_GPIO_IS_PIN_VALID(pinNum));
 808:Generated_Source\PSoC6\pdl\drivers/peripheral/gpio/cy_gpio.h ****     CY_ASSERT_L2(CY_GPIO_IS_VALUE_VALID(value));
 809:Generated_Source\PSoC6\pdl\drivers/peripheral/gpio/cy_gpio.h **** 
 810:Generated_Source\PSoC6\pdl\drivers/peripheral/gpio/cy_gpio.h ****     /* Thread-safe: Directly access the pin registers instead of base->OUT */
 811:Generated_Source\PSoC6\pdl\drivers/peripheral/gpio/cy_gpio.h ****     if(0UL == value)
 812:Generated_Source\PSoC6\pdl\drivers/peripheral/gpio/cy_gpio.h ****     {
 813:Generated_Source\PSoC6\pdl\drivers/peripheral/gpio/cy_gpio.h ****         GPIO_PRT_OUT_CLR(base) = CY_GPIO_OUT_MASK << pinNum;
 592              		.loc 2 813 0
 593 002c 5C4B     		ldr	r3, .L53+12
 594 002e 0822     		movs	r2, #8
 595 0030 5A60     		str	r2, [r3, #4]
 596              	.LVL59:
 597              	.LBE256:
 598              	.LBE255:
 599              	.LBB257:
 600              	.LBB258:
 601 0032 0422     		movs	r2, #4
 602 0034 5A60     		str	r2, [r3, #4]
 603              	.LVL60:
 604              	.LBE258:
 605              	.LBE257:
 606              	.LBB259:
 607              	.LBB260:
 608 0036 0222     		movs	r2, #2
 609 0038 5A60     		str	r2, [r3, #4]
 610              	.LVL61:
 611              	.LBE260:
 612              	.LBE259:
 613              	.LBB261:
 614              	.LBB262:
 615 003a 0122     		movs	r2, #1
 616 003c 5A60     		str	r2, [r3, #4]
 617 003e 10BD     		pop	{r4, pc}
 618              	.LVL62:
 619              	.L39:
ARM GAS  C:\Users\seeho\AppData\Local\Temp\ccUkk7Dc.s 			page 41


 620              	.LBE262:
 621              	.LBE261:
 224:main_cm4.c    ****             Cy_GPIO_Write(PA0_0_PORT, PA0_0_NUM, 1UL);
 622              		.loc 1 224 0
 623 0040 5848     		ldr	r0, .L53+16
 624 0042 FFF7FEFF 		bl	puts
 625              	.LVL63:
 626              	.LBB263:
 627              	.LBB264:
 814:Generated_Source\PSoC6\pdl\drivers/peripheral/gpio/cy_gpio.h ****     }
 815:Generated_Source\PSoC6\pdl\drivers/peripheral/gpio/cy_gpio.h ****     else
 816:Generated_Source\PSoC6\pdl\drivers/peripheral/gpio/cy_gpio.h ****     {
 817:Generated_Source\PSoC6\pdl\drivers/peripheral/gpio/cy_gpio.h ****         GPIO_PRT_OUT_SET(base) = CY_GPIO_OUT_MASK << pinNum;
 628              		.loc 2 817 0
 629 0046 564B     		ldr	r3, .L53+12
 630 0048 0822     		movs	r2, #8
 631 004a 9A60     		str	r2, [r3, #8]
 632              	.LVL64:
 633              	.LBE264:
 634              	.LBE263:
 635              	.LBB265:
 636              	.LBB266:
 813:Generated_Source\PSoC6\pdl\drivers/peripheral/gpio/cy_gpio.h ****     }
 637              		.loc 2 813 0
 638 004c 0422     		movs	r2, #4
 639 004e 5A60     		str	r2, [r3, #4]
 640              	.LVL65:
 641              	.LBE266:
 642              	.LBE265:
 643              	.LBB267:
 644              	.LBB268:
 645 0050 0222     		movs	r2, #2
 646 0052 5A60     		str	r2, [r3, #4]
 647              	.LVL66:
 648              	.LBE268:
 649              	.LBE267:
 650              	.LBB269:
 651              	.LBB270:
 652 0054 0122     		movs	r2, #1
 653 0056 5A60     		str	r2, [r3, #4]
 654 0058 10BD     		pop	{r4, pc}
 655              	.LVL67:
 656              	.L40:
 657              	.LBE270:
 658              	.LBE269:
 232:main_cm4.c    ****             Cy_GPIO_Write(PA0_0_PORT, PA0_0_NUM, 0UL);
 659              		.loc 1 232 0
 660 005a 5348     		ldr	r0, .L53+20
 661 005c FFF7FEFF 		bl	puts
 662              	.LVL68:
 663              	.LBB271:
 664              	.LBB272:
 813:Generated_Source\PSoC6\pdl\drivers/peripheral/gpio/cy_gpio.h ****     }
 665              		.loc 2 813 0
 666 0060 4F4B     		ldr	r3, .L53+12
 667 0062 0822     		movs	r2, #8
 668 0064 5A60     		str	r2, [r3, #4]
ARM GAS  C:\Users\seeho\AppData\Local\Temp\ccUkk7Dc.s 			page 42


 669              	.LVL69:
 670              	.LBE272:
 671              	.LBE271:
 672              	.LBB273:
 673              	.LBB274:
 674              		.loc 2 817 0
 675 0066 0422     		movs	r2, #4
 676 0068 9A60     		str	r2, [r3, #8]
 677              	.LVL70:
 678              	.LBE274:
 679              	.LBE273:
 680              	.LBB275:
 681              	.LBB276:
 813:Generated_Source\PSoC6\pdl\drivers/peripheral/gpio/cy_gpio.h ****     }
 682              		.loc 2 813 0
 683 006a 0222     		movs	r2, #2
 684 006c 5A60     		str	r2, [r3, #4]
 685              	.LVL71:
 686              	.LBE276:
 687              	.LBE275:
 688              	.LBB277:
 689              	.LBB278:
 690 006e 0122     		movs	r2, #1
 691 0070 5A60     		str	r2, [r3, #4]
 692 0072 10BD     		pop	{r4, pc}
 693              	.LVL72:
 694              	.L41:
 695              	.LBE278:
 696              	.LBE277:
 240:main_cm4.c    ****             Cy_GPIO_Write(PA0_0_PORT, PA0_0_NUM, 1UL);
 697              		.loc 1 240 0
 698 0074 4D48     		ldr	r0, .L53+24
 699 0076 FFF7FEFF 		bl	puts
 700              	.LVL73:
 701              	.LBB279:
 702              	.LBB280:
 703              		.loc 2 817 0
 704 007a 494B     		ldr	r3, .L53+12
 705 007c 0822     		movs	r2, #8
 706 007e 9A60     		str	r2, [r3, #8]
 707              	.LVL74:
 708              	.LBE280:
 709              	.LBE279:
 710              	.LBB281:
 711              	.LBB282:
 712 0080 0422     		movs	r2, #4
 713 0082 9A60     		str	r2, [r3, #8]
 714              	.LVL75:
 715              	.LBE282:
 716              	.LBE281:
 717              	.LBB283:
 718              	.LBB284:
 813:Generated_Source\PSoC6\pdl\drivers/peripheral/gpio/cy_gpio.h ****     }
 719              		.loc 2 813 0
 720 0084 0222     		movs	r2, #2
 721 0086 5A60     		str	r2, [r3, #4]
 722              	.LVL76:
ARM GAS  C:\Users\seeho\AppData\Local\Temp\ccUkk7Dc.s 			page 43


 723              	.LBE284:
 724              	.LBE283:
 725              	.LBB285:
 726              	.LBB286:
 727 0088 0122     		movs	r2, #1
 728 008a 5A60     		str	r2, [r3, #4]
 729 008c 10BD     		pop	{r4, pc}
 730              	.LVL77:
 731              	.L42:
 732              	.LBE286:
 733              	.LBE285:
 248:main_cm4.c    ****             Cy_GPIO_Write(PA0_0_PORT, PA0_0_NUM, 0UL);
 734              		.loc 1 248 0
 735 008e 4848     		ldr	r0, .L53+28
 736 0090 FFF7FEFF 		bl	puts
 737              	.LVL78:
 738              	.LBB287:
 739              	.LBB288:
 813:Generated_Source\PSoC6\pdl\drivers/peripheral/gpio/cy_gpio.h ****     }
 740              		.loc 2 813 0
 741 0094 424B     		ldr	r3, .L53+12
 742 0096 0822     		movs	r2, #8
 743 0098 5A60     		str	r2, [r3, #4]
 744              	.LVL79:
 745              	.LBE288:
 746              	.LBE287:
 747              	.LBB289:
 748              	.LBB290:
 749 009a 0422     		movs	r2, #4
 750 009c 5A60     		str	r2, [r3, #4]
 751              	.LVL80:
 752              	.LBE290:
 753              	.LBE289:
 754              	.LBB291:
 755              	.LBB292:
 756              		.loc 2 817 0
 757 009e 0222     		movs	r2, #2
 758 00a0 9A60     		str	r2, [r3, #8]
 759              	.LVL81:
 760              	.LBE292:
 761              	.LBE291:
 762              	.LBB293:
 763              	.LBB294:
 813:Generated_Source\PSoC6\pdl\drivers/peripheral/gpio/cy_gpio.h ****     }
 764              		.loc 2 813 0
 765 00a2 0122     		movs	r2, #1
 766 00a4 5A60     		str	r2, [r3, #4]
 767 00a6 10BD     		pop	{r4, pc}
 768              	.LVL82:
 769              	.L43:
 770              	.LBE294:
 771              	.LBE293:
 256:main_cm4.c    ****             Cy_GPIO_Write(PA0_0_PORT, PA0_0_NUM, 1UL);
 772              		.loc 1 256 0
 773 00a8 4248     		ldr	r0, .L53+32
 774 00aa FFF7FEFF 		bl	puts
 775              	.LVL83:
ARM GAS  C:\Users\seeho\AppData\Local\Temp\ccUkk7Dc.s 			page 44


 776              	.LBB295:
 777              	.LBB296:
 778              		.loc 2 817 0
 779 00ae 3C4B     		ldr	r3, .L53+12
 780 00b0 0822     		movs	r2, #8
 781 00b2 9A60     		str	r2, [r3, #8]
 782              	.LVL84:
 783              	.LBE296:
 784              	.LBE295:
 785              	.LBB297:
 786              	.LBB298:
 813:Generated_Source\PSoC6\pdl\drivers/peripheral/gpio/cy_gpio.h ****     }
 787              		.loc 2 813 0
 788 00b4 0422     		movs	r2, #4
 789 00b6 5A60     		str	r2, [r3, #4]
 790              	.LVL85:
 791              	.LBE298:
 792              	.LBE297:
 793              	.LBB299:
 794              	.LBB300:
 795              		.loc 2 817 0
 796 00b8 0222     		movs	r2, #2
 797 00ba 9A60     		str	r2, [r3, #8]
 798              	.LVL86:
 799              	.LBE300:
 800              	.LBE299:
 801              	.LBB301:
 802              	.LBB302:
 813:Generated_Source\PSoC6\pdl\drivers/peripheral/gpio/cy_gpio.h ****     }
 803              		.loc 2 813 0
 804 00bc 0122     		movs	r2, #1
 805 00be 5A60     		str	r2, [r3, #4]
 806 00c0 10BD     		pop	{r4, pc}
 807              	.LVL87:
 808              	.L44:
 809              	.LBE302:
 810              	.LBE301:
 264:main_cm4.c    ****             Cy_GPIO_Write(PA0_0_PORT, PA0_0_NUM, 0UL);
 811              		.loc 1 264 0
 812 00c2 3D48     		ldr	r0, .L53+36
 813 00c4 FFF7FEFF 		bl	puts
 814              	.LVL88:
 815              	.LBB303:
 816              	.LBB304:
 813:Generated_Source\PSoC6\pdl\drivers/peripheral/gpio/cy_gpio.h ****     }
 817              		.loc 2 813 0
 818 00c8 354B     		ldr	r3, .L53+12
 819 00ca 0822     		movs	r2, #8
 820 00cc 5A60     		str	r2, [r3, #4]
 821              	.LVL89:
 822              	.LBE304:
 823              	.LBE303:
 824              	.LBB305:
 825              	.LBB306:
 826              		.loc 2 817 0
 827 00ce 0422     		movs	r2, #4
 828 00d0 9A60     		str	r2, [r3, #8]
ARM GAS  C:\Users\seeho\AppData\Local\Temp\ccUkk7Dc.s 			page 45


 829              	.LVL90:
 830              	.LBE306:
 831              	.LBE305:
 832              	.LBB307:
 833              	.LBB308:
 834 00d2 0222     		movs	r2, #2
 835 00d4 9A60     		str	r2, [r3, #8]
 836              	.LVL91:
 837              	.LBE308:
 838              	.LBE307:
 839              	.LBB309:
 840              	.LBB310:
 813:Generated_Source\PSoC6\pdl\drivers/peripheral/gpio/cy_gpio.h ****     }
 841              		.loc 2 813 0
 842 00d6 0122     		movs	r2, #1
 843 00d8 5A60     		str	r2, [r3, #4]
 844 00da 10BD     		pop	{r4, pc}
 845              	.LVL92:
 846              	.L45:
 847              	.LBE310:
 848              	.LBE309:
 272:main_cm4.c    ****             Cy_GPIO_Write(PA0_0_PORT, PA0_0_NUM, 1UL);
 849              		.loc 1 272 0
 850 00dc 3748     		ldr	r0, .L53+40
 851 00de FFF7FEFF 		bl	puts
 852              	.LVL93:
 853              	.LBB311:
 854              	.LBB312:
 855              		.loc 2 817 0
 856 00e2 2F4B     		ldr	r3, .L53+12
 857 00e4 0822     		movs	r2, #8
 858 00e6 9A60     		str	r2, [r3, #8]
 859              	.LVL94:
 860              	.LBE312:
 861              	.LBE311:
 862              	.LBB313:
 863              	.LBB314:
 864 00e8 0422     		movs	r2, #4
 865 00ea 9A60     		str	r2, [r3, #8]
 866              	.LVL95:
 867              	.LBE314:
 868              	.LBE313:
 869              	.LBB315:
 870              	.LBB316:
 871 00ec 0222     		movs	r2, #2
 872 00ee 9A60     		str	r2, [r3, #8]
 873              	.LVL96:
 874              	.LBE316:
 875              	.LBE315:
 876              	.LBB317:
 877              	.LBB318:
 813:Generated_Source\PSoC6\pdl\drivers/peripheral/gpio/cy_gpio.h ****     }
 878              		.loc 2 813 0
 879 00f0 0122     		movs	r2, #1
 880 00f2 5A60     		str	r2, [r3, #4]
 881 00f4 10BD     		pop	{r4, pc}
 882              	.LVL97:
ARM GAS  C:\Users\seeho\AppData\Local\Temp\ccUkk7Dc.s 			page 46


 883              	.L46:
 884              	.LBE318:
 885              	.LBE317:
 280:main_cm4.c    ****             Cy_GPIO_Write(PA0_0_PORT, PA0_0_NUM, 0UL);
 886              		.loc 1 280 0
 887 00f6 3248     		ldr	r0, .L53+44
 888 00f8 FFF7FEFF 		bl	puts
 889              	.LVL98:
 890              	.LBB319:
 891              	.LBB320:
 813:Generated_Source\PSoC6\pdl\drivers/peripheral/gpio/cy_gpio.h ****     }
 892              		.loc 2 813 0
 893 00fc 284B     		ldr	r3, .L53+12
 894 00fe 0822     		movs	r2, #8
 895 0100 5A60     		str	r2, [r3, #4]
 896              	.LVL99:
 897              	.LBE320:
 898              	.LBE319:
 899              	.LBB321:
 900              	.LBB322:
 901 0102 0422     		movs	r2, #4
 902 0104 5A60     		str	r2, [r3, #4]
 903              	.LVL100:
 904              	.LBE322:
 905              	.LBE321:
 906              	.LBB323:
 907              	.LBB324:
 908 0106 0222     		movs	r2, #2
 909 0108 5A60     		str	r2, [r3, #4]
 910              	.LVL101:
 911              	.LBE324:
 912              	.LBE323:
 913              	.LBB325:
 914              	.LBB326:
 915              		.loc 2 817 0
 916 010a 0122     		movs	r2, #1
 917 010c 9A60     		str	r2, [r3, #8]
 918 010e 10BD     		pop	{r4, pc}
 919              	.LVL102:
 920              	.L47:
 921              	.LBE326:
 922              	.LBE325:
 288:main_cm4.c    ****             Cy_GPIO_Write(PA0_0_PORT, PA0_0_NUM, 1UL);
 923              		.loc 1 288 0
 924 0110 2C48     		ldr	r0, .L53+48
 925 0112 FFF7FEFF 		bl	puts
 926              	.LVL103:
 927              	.LBB327:
 928              	.LBB328:
 929              		.loc 2 817 0
 930 0116 224B     		ldr	r3, .L53+12
 931 0118 0822     		movs	r2, #8
 932 011a 9A60     		str	r2, [r3, #8]
 933              	.LVL104:
 934              	.LBE328:
 935              	.LBE327:
 936              	.LBB329:
ARM GAS  C:\Users\seeho\AppData\Local\Temp\ccUkk7Dc.s 			page 47


 937              	.LBB330:
 813:Generated_Source\PSoC6\pdl\drivers/peripheral/gpio/cy_gpio.h ****     }
 938              		.loc 2 813 0
 939 011c 0422     		movs	r2, #4
 940 011e 5A60     		str	r2, [r3, #4]
 941              	.LVL105:
 942              	.LBE330:
 943              	.LBE329:
 944              	.LBB331:
 945              	.LBB332:
 946 0120 0222     		movs	r2, #2
 947 0122 5A60     		str	r2, [r3, #4]
 948              	.LVL106:
 949              	.LBE332:
 950              	.LBE331:
 951              	.LBB333:
 952              	.LBB334:
 953              		.loc 2 817 0
 954 0124 0122     		movs	r2, #1
 955 0126 9A60     		str	r2, [r3, #8]
 956 0128 10BD     		pop	{r4, pc}
 957              	.LVL107:
 958              	.L48:
 959              	.LBE334:
 960              	.LBE333:
 296:main_cm4.c    ****             Cy_GPIO_Write(PA0_0_PORT, PA0_0_NUM, 0UL);
 961              		.loc 1 296 0
 962 012a 2748     		ldr	r0, .L53+52
 963 012c FFF7FEFF 		bl	puts
 964              	.LVL108:
 965              	.LBB335:
 966              	.LBB336:
 813:Generated_Source\PSoC6\pdl\drivers/peripheral/gpio/cy_gpio.h ****     }
 967              		.loc 2 813 0
 968 0130 1B4B     		ldr	r3, .L53+12
 969 0132 0822     		movs	r2, #8
 970 0134 5A60     		str	r2, [r3, #4]
 971              	.LVL109:
 972              	.LBE336:
 973              	.LBE335:
 974              	.LBB337:
 975              	.LBB338:
 976              		.loc 2 817 0
 977 0136 0422     		movs	r2, #4
 978 0138 9A60     		str	r2, [r3, #8]
 979              	.LVL110:
 980              	.LBE338:
 981              	.LBE337:
 982              	.LBB339:
 983              	.LBB340:
 813:Generated_Source\PSoC6\pdl\drivers/peripheral/gpio/cy_gpio.h ****     }
 984              		.loc 2 813 0
 985 013a 0222     		movs	r2, #2
 986 013c 5A60     		str	r2, [r3, #4]
 987              	.LVL111:
 988              	.LBE340:
 989              	.LBE339:
ARM GAS  C:\Users\seeho\AppData\Local\Temp\ccUkk7Dc.s 			page 48


 990              	.LBB341:
 991              	.LBB342:
 992              		.loc 2 817 0
 993 013e 0122     		movs	r2, #1
 994 0140 9A60     		str	r2, [r3, #8]
 995 0142 10BD     		pop	{r4, pc}
 996              	.LVL112:
 997              	.L49:
 998              	.LBE342:
 999              	.LBE341:
 304:main_cm4.c    ****             Cy_GPIO_Write(PA0_0_PORT, PA0_0_NUM, 1UL);
 1000              		.loc 1 304 0
 1001 0144 2148     		ldr	r0, .L53+56
 1002 0146 FFF7FEFF 		bl	puts
 1003              	.LVL113:
 1004              	.LBB343:
 1005              	.LBB344:
 1006              		.loc 2 817 0
 1007 014a 154B     		ldr	r3, .L53+12
 1008 014c 0822     		movs	r2, #8
 1009 014e 9A60     		str	r2, [r3, #8]
 1010              	.LVL114:
 1011              	.LBE344:
 1012              	.LBE343:
 1013              	.LBB345:
 1014              	.LBB346:
 1015 0150 0422     		movs	r2, #4
 1016 0152 9A60     		str	r2, [r3, #8]
 1017              	.LVL115:
 1018              	.LBE346:
 1019              	.LBE345:
 1020              	.LBB347:
 1021              	.LBB348:
 813:Generated_Source\PSoC6\pdl\drivers/peripheral/gpio/cy_gpio.h ****     }
 1022              		.loc 2 813 0
 1023 0154 0222     		movs	r2, #2
 1024 0156 5A60     		str	r2, [r3, #4]
 1025              	.LVL116:
 1026              	.LBE348:
 1027              	.LBE347:
 1028              	.LBB349:
 1029              	.LBB350:
 1030              		.loc 2 817 0
 1031 0158 0122     		movs	r2, #1
 1032 015a 9A60     		str	r2, [r3, #8]
 1033 015c 10BD     		pop	{r4, pc}
 1034              	.LVL117:
 1035              	.L50:
 1036              	.LBE350:
 1037              	.LBE349:
 312:main_cm4.c    ****             Cy_GPIO_Write(PA0_0_PORT, PA0_0_NUM, 0UL);
 1038              		.loc 1 312 0
 1039 015e 1C48     		ldr	r0, .L53+60
 1040 0160 FFF7FEFF 		bl	puts
 1041              	.LVL118:
 1042              	.LBB351:
 1043              	.LBB352:
ARM GAS  C:\Users\seeho\AppData\Local\Temp\ccUkk7Dc.s 			page 49


 813:Generated_Source\PSoC6\pdl\drivers/peripheral/gpio/cy_gpio.h ****     }
 1044              		.loc 2 813 0
 1045 0164 0E4B     		ldr	r3, .L53+12
 1046 0166 0822     		movs	r2, #8
 1047 0168 5A60     		str	r2, [r3, #4]
 1048              	.LVL119:
 1049              	.LBE352:
 1050              	.LBE351:
 1051              	.LBB353:
 1052              	.LBB354:
 1053 016a 0422     		movs	r2, #4
 1054 016c 5A60     		str	r2, [r3, #4]
 1055              	.LVL120:
 1056              	.LBE354:
 1057              	.LBE353:
 1058              	.LBB355:
 1059              	.LBB356:
 1060              		.loc 2 817 0
 1061 016e 0222     		movs	r2, #2
 1062 0170 9A60     		str	r2, [r3, #8]
 1063              	.LVL121:
 1064              	.LBE356:
 1065              	.LBE355:
 1066              	.LBB357:
 1067              	.LBB358:
 1068 0172 0122     		movs	r2, #1
 1069 0174 9A60     		str	r2, [r3, #8]
 1070 0176 10BD     		pop	{r4, pc}
 1071              	.LVL122:
 1072              	.L36:
 1073              	.LBE358:
 1074              	.LBE357:
 320:main_cm4.c    ****             Cy_GPIO_Write(PA0_0_PORT, PA0_0_NUM, 1UL);
 1075              		.loc 1 320 0
 1076 0178 1648     		ldr	r0, .L53+64
 1077 017a FFF7FEFF 		bl	puts
 1078              	.LVL123:
 1079              	.LBB359:
 1080              	.LBB360:
 1081              		.loc 2 817 0
 1082 017e 084B     		ldr	r3, .L53+12
 1083 0180 0822     		movs	r2, #8
 1084 0182 9A60     		str	r2, [r3, #8]
 1085              	.LVL124:
 1086              	.LBE360:
 1087              	.LBE359:
 1088              	.LBB361:
 1089              	.LBB362:
 1090 0184 0422     		movs	r2, #4
 1091 0186 9A60     		str	r2, [r3, #8]
 1092              	.LVL125:
 1093              	.LBE362:
 1094              	.LBE361:
 1095              	.LBB363:
 1096              	.LBB364:
 1097 0188 0222     		movs	r2, #2
 1098 018a 9A60     		str	r2, [r3, #8]
ARM GAS  C:\Users\seeho\AppData\Local\Temp\ccUkk7Dc.s 			page 50


 1099              	.LVL126:
 1100              	.LBE364:
 1101              	.LBE363:
 1102              	.LBB365:
 1103              	.LBB366:
 1104 018c 0122     		movs	r2, #1
 1105 018e 9A60     		str	r2, [r3, #8]
 1106 0190 10BD     		pop	{r4, pc}
 1107              	.L54:
 1108 0192 00BF     		.align	2
 1109              	.L53:
 1110 0194 00000000 		.word	.LANCHOR1
 1111 0198 78010000 		.word	.LC11
 1112 019c 90010000 		.word	.LC12
 1113 01a0 80043240 		.word	1077019776
 1114 01a4 9C010000 		.word	.LC13
 1115 01a8 A8010000 		.word	.LC14
 1116 01ac B4010000 		.word	.LC15
 1117 01b0 C0010000 		.word	.LC16
 1118 01b4 CC010000 		.word	.LC17
 1119 01b8 D8010000 		.word	.LC18
 1120 01bc E4010000 		.word	.LC19
 1121 01c0 F0010000 		.word	.LC20
 1122 01c4 FC010000 		.word	.LC21
 1123 01c8 08020000 		.word	.LC22
 1124 01cc 14020000 		.word	.LC23
 1125 01d0 20020000 		.word	.LC24
 1126 01d4 2C020000 		.word	.LC25
 1127              	.LBE366:
 1128              	.LBE365:
 1129              		.cfi_endproc
 1130              	.LFE643:
 1131              		.size	writeDisplayPA, .-writeDisplayPA
 1132              		.section	.text.writeDisplayMUX,"ax",%progbits
 1133              		.align	2
 1134              		.global	writeDisplayMUX
 1135              		.thumb
 1136              		.thumb_func
 1137              		.type	writeDisplayMUX, %function
 1138              	writeDisplayMUX:
 1139              	.LFB644:
 337:main_cm4.c    ****     printf("MUX GATT Client: %x \r\n", valMUX);
 1140              		.loc 1 337 0
 1141              		.cfi_startproc
 1142              		@ args = 0, pretend = 0, frame = 0
 1143              		@ frame_needed = 0, uses_anonymous_args = 0
 1144 0000 10B5     		push	{r4, lr}
 1145              		.cfi_def_cfa_offset 8
 1146              		.cfi_offset 4, -8
 1147              		.cfi_offset 14, -4
 338:main_cm4.c    ****     
 1148              		.loc 1 338 0
 1149 0002 754C     		ldr	r4, .L75
 1150 0004 2168     		ldr	r1, [r4]
 1151 0006 7548     		ldr	r0, .L75+4
 1152 0008 FFF7FEFF 		bl	printf
 1153              	.LVL127:
ARM GAS  C:\Users\seeho\AppData\Local\Temp\ccUkk7Dc.s 			page 51


 340:main_cm4.c    **** 	{
 1154              		.loc 1 340 0
 1155 000c 2368     		ldr	r3, [r4]
 1156 000e 0E2B     		cmp	r3, #14
 1157 0010 00F2D480 		bhi	.L56
 1158 0014 DFE813F0 		tbh	[pc, r3, lsl #1]
 1159              	.L58:
 1160 0018 0F00     		.2byte	(.L57-.L58)/2
 1161 001a 1C00     		.2byte	(.L59-.L58)/2
 1162 001c 2900     		.2byte	(.L60-.L58)/2
 1163 001e 3600     		.2byte	(.L61-.L58)/2
 1164 0020 4300     		.2byte	(.L62-.L58)/2
 1165 0022 5000     		.2byte	(.L63-.L58)/2
 1166 0024 5D00     		.2byte	(.L64-.L58)/2
 1167 0026 6A00     		.2byte	(.L65-.L58)/2
 1168 0028 7700     		.2byte	(.L66-.L58)/2
 1169 002a 8400     		.2byte	(.L67-.L58)/2
 1170 002c 9100     		.2byte	(.L68-.L58)/2
 1171 002e 9E00     		.2byte	(.L69-.L58)/2
 1172 0030 AB00     		.2byte	(.L70-.L58)/2
 1173 0032 B800     		.2byte	(.L71-.L58)/2
 1174 0034 C500     		.2byte	(.L72-.L58)/2
 1175              		.p2align 1
 1176              	.L57:
 343:main_cm4.c    ****             Cy_GPIO_Write(MUX0_0_PORT, MUX0_0_NUM, 0UL);
 1177              		.loc 1 343 0
 1178 0036 6A48     		ldr	r0, .L75+8
 1179 0038 FFF7FEFF 		bl	puts
 1180              	.LVL128:
 1181              	.LBB367:
 1182              	.LBB368:
 813:Generated_Source\PSoC6\pdl\drivers/peripheral/gpio/cy_gpio.h ****     }
 1183              		.loc 2 813 0
 1184 003c 694B     		ldr	r3, .L75+12
 1185 003e 0422     		movs	r2, #4
 1186 0040 5A60     		str	r2, [r3, #4]
 1187              	.LVL129:
 1188              	.LBE368:
 1189              	.LBE367:
 1190              	.LBB369:
 1191              	.LBB370:
 1192 0042 0822     		movs	r2, #8
 1193 0044 5A60     		str	r2, [r3, #4]
 1194              	.LVL130:
 1195              	.LBE370:
 1196              	.LBE369:
 1197              	.LBB371:
 1198              	.LBB372:
 1199 0046 1022     		movs	r2, #16
 1200 0048 5A60     		str	r2, [r3, #4]
 1201              	.LVL131:
 1202              	.LBE372:
 1203              	.LBE371:
 1204              	.LBB373:
 1205              	.LBB374:
 1206 004a 2022     		movs	r2, #32
 1207 004c 5A60     		str	r2, [r3, #4]
ARM GAS  C:\Users\seeho\AppData\Local\Temp\ccUkk7Dc.s 			page 52


 1208 004e 10BD     		pop	{r4, pc}
 1209              	.LVL132:
 1210              	.L59:
 1211              	.LBE374:
 1212              	.LBE373:
 351:main_cm4.c    ****             Cy_GPIO_Write(MUX0_0_PORT, MUX0_0_NUM, 1UL);
 1213              		.loc 1 351 0
 1214 0050 6548     		ldr	r0, .L75+16
 1215 0052 FFF7FEFF 		bl	puts
 1216              	.LVL133:
 1217              	.LBB375:
 1218              	.LBB376:
 1219              		.loc 2 817 0
 1220 0056 634B     		ldr	r3, .L75+12
 1221 0058 0422     		movs	r2, #4
 1222 005a 9A60     		str	r2, [r3, #8]
 1223              	.LVL134:
 1224              	.LBE376:
 1225              	.LBE375:
 1226              	.LBB377:
 1227              	.LBB378:
 813:Generated_Source\PSoC6\pdl\drivers/peripheral/gpio/cy_gpio.h ****     }
 1228              		.loc 2 813 0
 1229 005c 0822     		movs	r2, #8
 1230 005e 5A60     		str	r2, [r3, #4]
 1231              	.LVL135:
 1232              	.LBE378:
 1233              	.LBE377:
 1234              	.LBB379:
 1235              	.LBB380:
 1236 0060 1022     		movs	r2, #16
 1237 0062 5A60     		str	r2, [r3, #4]
 1238              	.LVL136:
 1239              	.LBE380:
 1240              	.LBE379:
 1241              	.LBB381:
 1242              	.LBB382:
 1243 0064 2022     		movs	r2, #32
 1244 0066 5A60     		str	r2, [r3, #4]
 1245 0068 10BD     		pop	{r4, pc}
 1246              	.LVL137:
 1247              	.L60:
 1248              	.LBE382:
 1249              	.LBE381:
 359:main_cm4.c    ****             Cy_GPIO_Write(MUX0_0_PORT, MUX0_0_NUM, 0UL);
 1250              		.loc 1 359 0
 1251 006a 6048     		ldr	r0, .L75+20
 1252 006c FFF7FEFF 		bl	puts
 1253              	.LVL138:
 1254              	.LBB383:
 1255              	.LBB384:
 813:Generated_Source\PSoC6\pdl\drivers/peripheral/gpio/cy_gpio.h ****     }
 1256              		.loc 2 813 0
 1257 0070 5C4B     		ldr	r3, .L75+12
 1258 0072 0422     		movs	r2, #4
 1259 0074 5A60     		str	r2, [r3, #4]
 1260              	.LVL139:
ARM GAS  C:\Users\seeho\AppData\Local\Temp\ccUkk7Dc.s 			page 53


 1261              	.LBE384:
 1262              	.LBE383:
 1263              	.LBB385:
 1264              	.LBB386:
 1265              		.loc 2 817 0
 1266 0076 0822     		movs	r2, #8
 1267 0078 9A60     		str	r2, [r3, #8]
 1268              	.LVL140:
 1269              	.LBE386:
 1270              	.LBE385:
 1271              	.LBB387:
 1272              	.LBB388:
 813:Generated_Source\PSoC6\pdl\drivers/peripheral/gpio/cy_gpio.h ****     }
 1273              		.loc 2 813 0
 1274 007a 1022     		movs	r2, #16
 1275 007c 5A60     		str	r2, [r3, #4]
 1276              	.LVL141:
 1277              	.LBE388:
 1278              	.LBE387:
 1279              	.LBB389:
 1280              	.LBB390:
 1281 007e 2022     		movs	r2, #32
 1282 0080 5A60     		str	r2, [r3, #4]
 1283 0082 10BD     		pop	{r4, pc}
 1284              	.LVL142:
 1285              	.L61:
 1286              	.LBE390:
 1287              	.LBE389:
 367:main_cm4.c    ****             Cy_GPIO_Write(MUX0_0_PORT, MUX0_0_NUM, 1UL);
 1288              		.loc 1 367 0
 1289 0084 5A48     		ldr	r0, .L75+24
 1290 0086 FFF7FEFF 		bl	puts
 1291              	.LVL143:
 1292              	.LBB391:
 1293              	.LBB392:
 1294              		.loc 2 817 0
 1295 008a 564B     		ldr	r3, .L75+12
 1296 008c 0422     		movs	r2, #4
 1297 008e 9A60     		str	r2, [r3, #8]
 1298              	.LVL144:
 1299              	.LBE392:
 1300              	.LBE391:
 1301              	.LBB393:
 1302              	.LBB394:
 1303 0090 0822     		movs	r2, #8
 1304 0092 9A60     		str	r2, [r3, #8]
 1305              	.LVL145:
 1306              	.LBE394:
 1307              	.LBE393:
 1308              	.LBB395:
 1309              	.LBB396:
 813:Generated_Source\PSoC6\pdl\drivers/peripheral/gpio/cy_gpio.h ****     }
 1310              		.loc 2 813 0
 1311 0094 1022     		movs	r2, #16
 1312 0096 5A60     		str	r2, [r3, #4]
 1313              	.LVL146:
 1314              	.LBE396:
ARM GAS  C:\Users\seeho\AppData\Local\Temp\ccUkk7Dc.s 			page 54


 1315              	.LBE395:
 1316              	.LBB397:
 1317              	.LBB398:
 1318 0098 2022     		movs	r2, #32
 1319 009a 5A60     		str	r2, [r3, #4]
 1320 009c 10BD     		pop	{r4, pc}
 1321              	.LVL147:
 1322              	.L62:
 1323              	.LBE398:
 1324              	.LBE397:
 375:main_cm4.c    ****             Cy_GPIO_Write(MUX0_0_PORT, MUX0_0_NUM, 0UL);
 1325              		.loc 1 375 0
 1326 009e 5548     		ldr	r0, .L75+28
 1327 00a0 FFF7FEFF 		bl	puts
 1328              	.LVL148:
 1329              	.LBB399:
 1330              	.LBB400:
 813:Generated_Source\PSoC6\pdl\drivers/peripheral/gpio/cy_gpio.h ****     }
 1331              		.loc 2 813 0
 1332 00a4 4F4B     		ldr	r3, .L75+12
 1333 00a6 0422     		movs	r2, #4
 1334 00a8 5A60     		str	r2, [r3, #4]
 1335              	.LVL149:
 1336              	.LBE400:
 1337              	.LBE399:
 1338              	.LBB401:
 1339              	.LBB402:
 1340 00aa 0822     		movs	r2, #8
 1341 00ac 5A60     		str	r2, [r3, #4]
 1342              	.LVL150:
 1343              	.LBE402:
 1344              	.LBE401:
 1345              	.LBB403:
 1346              	.LBB404:
 1347              		.loc 2 817 0
 1348 00ae 1022     		movs	r2, #16
 1349 00b0 9A60     		str	r2, [r3, #8]
 1350              	.LVL151:
 1351              	.LBE404:
 1352              	.LBE403:
 1353              	.LBB405:
 1354              	.LBB406:
 813:Generated_Source\PSoC6\pdl\drivers/peripheral/gpio/cy_gpio.h ****     }
 1355              		.loc 2 813 0
 1356 00b2 2022     		movs	r2, #32
 1357 00b4 5A60     		str	r2, [r3, #4]
 1358 00b6 10BD     		pop	{r4, pc}
 1359              	.LVL152:
 1360              	.L63:
 1361              	.LBE406:
 1362              	.LBE405:
 383:main_cm4.c    ****             Cy_GPIO_Write(MUX0_0_PORT, MUX0_0_NUM, 1UL);
 1363              		.loc 1 383 0
 1364 00b8 4F48     		ldr	r0, .L75+32
 1365 00ba FFF7FEFF 		bl	puts
 1366              	.LVL153:
 1367              	.LBB407:
ARM GAS  C:\Users\seeho\AppData\Local\Temp\ccUkk7Dc.s 			page 55


 1368              	.LBB408:
 1369              		.loc 2 817 0
 1370 00be 494B     		ldr	r3, .L75+12
 1371 00c0 0422     		movs	r2, #4
 1372 00c2 9A60     		str	r2, [r3, #8]
 1373              	.LVL154:
 1374              	.LBE408:
 1375              	.LBE407:
 1376              	.LBB409:
 1377              	.LBB410:
 813:Generated_Source\PSoC6\pdl\drivers/peripheral/gpio/cy_gpio.h ****     }
 1378              		.loc 2 813 0
 1379 00c4 0822     		movs	r2, #8
 1380 00c6 5A60     		str	r2, [r3, #4]
 1381              	.LVL155:
 1382              	.LBE410:
 1383              	.LBE409:
 1384              	.LBB411:
 1385              	.LBB412:
 1386              		.loc 2 817 0
 1387 00c8 1022     		movs	r2, #16
 1388 00ca 9A60     		str	r2, [r3, #8]
 1389              	.LVL156:
 1390              	.LBE412:
 1391              	.LBE411:
 1392              	.LBB413:
 1393              	.LBB414:
 813:Generated_Source\PSoC6\pdl\drivers/peripheral/gpio/cy_gpio.h ****     }
 1394              		.loc 2 813 0
 1395 00cc 2022     		movs	r2, #32
 1396 00ce 5A60     		str	r2, [r3, #4]
 1397 00d0 10BD     		pop	{r4, pc}
 1398              	.LVL157:
 1399              	.L64:
 1400              	.LBE414:
 1401              	.LBE413:
 391:main_cm4.c    ****             Cy_GPIO_Write(MUX0_0_PORT, MUX0_0_NUM, 0UL);
 1402              		.loc 1 391 0
 1403 00d2 4A48     		ldr	r0, .L75+36
 1404 00d4 FFF7FEFF 		bl	puts
 1405              	.LVL158:
 1406              	.LBB415:
 1407              	.LBB416:
 813:Generated_Source\PSoC6\pdl\drivers/peripheral/gpio/cy_gpio.h ****     }
 1408              		.loc 2 813 0
 1409 00d8 424B     		ldr	r3, .L75+12
 1410 00da 0422     		movs	r2, #4
 1411 00dc 5A60     		str	r2, [r3, #4]
 1412              	.LVL159:
 1413              	.LBE416:
 1414              	.LBE415:
 1415              	.LBB417:
 1416              	.LBB418:
 1417              		.loc 2 817 0
 1418 00de 0822     		movs	r2, #8
 1419 00e0 9A60     		str	r2, [r3, #8]
 1420              	.LVL160:
ARM GAS  C:\Users\seeho\AppData\Local\Temp\ccUkk7Dc.s 			page 56


 1421              	.LBE418:
 1422              	.LBE417:
 1423              	.LBB419:
 1424              	.LBB420:
 1425 00e2 1022     		movs	r2, #16
 1426 00e4 9A60     		str	r2, [r3, #8]
 1427              	.LVL161:
 1428              	.LBE420:
 1429              	.LBE419:
 1430              	.LBB421:
 1431              	.LBB422:
 813:Generated_Source\PSoC6\pdl\drivers/peripheral/gpio/cy_gpio.h ****     }
 1432              		.loc 2 813 0
 1433 00e6 2022     		movs	r2, #32
 1434 00e8 5A60     		str	r2, [r3, #4]
 1435 00ea 10BD     		pop	{r4, pc}
 1436              	.LVL162:
 1437              	.L65:
 1438              	.LBE422:
 1439              	.LBE421:
 399:main_cm4.c    ****             Cy_GPIO_Write(MUX0_0_PORT, MUX0_0_NUM, 1UL);
 1440              		.loc 1 399 0
 1441 00ec 4448     		ldr	r0, .L75+40
 1442 00ee FFF7FEFF 		bl	puts
 1443              	.LVL163:
 1444              	.LBB423:
 1445              	.LBB424:
 1446              		.loc 2 817 0
 1447 00f2 3C4B     		ldr	r3, .L75+12
 1448 00f4 0422     		movs	r2, #4
 1449 00f6 9A60     		str	r2, [r3, #8]
 1450              	.LVL164:
 1451              	.LBE424:
 1452              	.LBE423:
 1453              	.LBB425:
 1454              	.LBB426:
 1455 00f8 0822     		movs	r2, #8
 1456 00fa 9A60     		str	r2, [r3, #8]
 1457              	.LVL165:
 1458              	.LBE426:
 1459              	.LBE425:
 1460              	.LBB427:
 1461              	.LBB428:
 1462 00fc 1022     		movs	r2, #16
 1463 00fe 9A60     		str	r2, [r3, #8]
 1464              	.LVL166:
 1465              	.LBE428:
 1466              	.LBE427:
 1467              	.LBB429:
 1468              	.LBB430:
 813:Generated_Source\PSoC6\pdl\drivers/peripheral/gpio/cy_gpio.h ****     }
 1469              		.loc 2 813 0
 1470 0100 2022     		movs	r2, #32
 1471 0102 5A60     		str	r2, [r3, #4]
 1472 0104 10BD     		pop	{r4, pc}
 1473              	.LVL167:
 1474              	.L66:
ARM GAS  C:\Users\seeho\AppData\Local\Temp\ccUkk7Dc.s 			page 57


 1475              	.LBE430:
 1476              	.LBE429:
 407:main_cm4.c    ****             Cy_GPIO_Write(MUX0_0_PORT, MUX0_0_NUM, 0UL);
 1477              		.loc 1 407 0
 1478 0106 3F48     		ldr	r0, .L75+44
 1479 0108 FFF7FEFF 		bl	puts
 1480              	.LVL168:
 1481              	.LBB431:
 1482              	.LBB432:
 813:Generated_Source\PSoC6\pdl\drivers/peripheral/gpio/cy_gpio.h ****     }
 1483              		.loc 2 813 0
 1484 010c 354B     		ldr	r3, .L75+12
 1485 010e 0422     		movs	r2, #4
 1486 0110 5A60     		str	r2, [r3, #4]
 1487              	.LVL169:
 1488              	.LBE432:
 1489              	.LBE431:
 1490              	.LBB433:
 1491              	.LBB434:
 1492 0112 0822     		movs	r2, #8
 1493 0114 5A60     		str	r2, [r3, #4]
 1494              	.LVL170:
 1495              	.LBE434:
 1496              	.LBE433:
 1497              	.LBB435:
 1498              	.LBB436:
 1499 0116 1022     		movs	r2, #16
 1500 0118 5A60     		str	r2, [r3, #4]
 1501              	.LVL171:
 1502              	.LBE436:
 1503              	.LBE435:
 1504              	.LBB437:
 1505              	.LBB438:
 1506              		.loc 2 817 0
 1507 011a 2022     		movs	r2, #32
 1508 011c 9A60     		str	r2, [r3, #8]
 1509 011e 10BD     		pop	{r4, pc}
 1510              	.LVL172:
 1511              	.L67:
 1512              	.LBE438:
 1513              	.LBE437:
 415:main_cm4.c    ****             Cy_GPIO_Write(MUX0_0_PORT, MUX0_0_NUM, 1UL);
 1514              		.loc 1 415 0
 1515 0120 3948     		ldr	r0, .L75+48
 1516 0122 FFF7FEFF 		bl	puts
 1517              	.LVL173:
 1518              	.LBB439:
 1519              	.LBB440:
 1520              		.loc 2 817 0
 1521 0126 2F4B     		ldr	r3, .L75+12
 1522 0128 0422     		movs	r2, #4
 1523 012a 9A60     		str	r2, [r3, #8]
 1524              	.LVL174:
 1525              	.LBE440:
 1526              	.LBE439:
 1527              	.LBB441:
 1528              	.LBB442:
ARM GAS  C:\Users\seeho\AppData\Local\Temp\ccUkk7Dc.s 			page 58


 813:Generated_Source\PSoC6\pdl\drivers/peripheral/gpio/cy_gpio.h ****     }
 1529              		.loc 2 813 0
 1530 012c 0822     		movs	r2, #8
 1531 012e 5A60     		str	r2, [r3, #4]
 1532              	.LVL175:
 1533              	.LBE442:
 1534              	.LBE441:
 1535              	.LBB443:
 1536              	.LBB444:
 1537 0130 1022     		movs	r2, #16
 1538 0132 5A60     		str	r2, [r3, #4]
 1539              	.LVL176:
 1540              	.LBE444:
 1541              	.LBE443:
 1542              	.LBB445:
 1543              	.LBB446:
 1544              		.loc 2 817 0
 1545 0134 2022     		movs	r2, #32
 1546 0136 9A60     		str	r2, [r3, #8]
 1547 0138 10BD     		pop	{r4, pc}
 1548              	.LVL177:
 1549              	.L68:
 1550              	.LBE446:
 1551              	.LBE445:
 423:main_cm4.c    ****             Cy_GPIO_Write(MUX0_0_PORT, MUX0_0_NUM, 0UL);
 1552              		.loc 1 423 0
 1553 013a 3448     		ldr	r0, .L75+52
 1554 013c FFF7FEFF 		bl	puts
 1555              	.LVL178:
 1556              	.LBB447:
 1557              	.LBB448:
 813:Generated_Source\PSoC6\pdl\drivers/peripheral/gpio/cy_gpio.h ****     }
 1558              		.loc 2 813 0
 1559 0140 284B     		ldr	r3, .L75+12
 1560 0142 0422     		movs	r2, #4
 1561 0144 5A60     		str	r2, [r3, #4]
 1562              	.LVL179:
 1563              	.LBE448:
 1564              	.LBE447:
 1565              	.LBB449:
 1566              	.LBB450:
 1567              		.loc 2 817 0
 1568 0146 0822     		movs	r2, #8
 1569 0148 9A60     		str	r2, [r3, #8]
 1570              	.LVL180:
 1571              	.LBE450:
 1572              	.LBE449:
 1573              	.LBB451:
 1574              	.LBB452:
 813:Generated_Source\PSoC6\pdl\drivers/peripheral/gpio/cy_gpio.h ****     }
 1575              		.loc 2 813 0
 1576 014a 1022     		movs	r2, #16
 1577 014c 5A60     		str	r2, [r3, #4]
 1578              	.LVL181:
 1579              	.LBE452:
 1580              	.LBE451:
 1581              	.LBB453:
ARM GAS  C:\Users\seeho\AppData\Local\Temp\ccUkk7Dc.s 			page 59


 1582              	.LBB454:
 1583              		.loc 2 817 0
 1584 014e 2022     		movs	r2, #32
 1585 0150 9A60     		str	r2, [r3, #8]
 1586 0152 10BD     		pop	{r4, pc}
 1587              	.LVL182:
 1588              	.L69:
 1589              	.LBE454:
 1590              	.LBE453:
 431:main_cm4.c    ****             Cy_GPIO_Write(MUX0_0_PORT, MUX0_0_NUM, 1UL);
 1591              		.loc 1 431 0
 1592 0154 2E48     		ldr	r0, .L75+56
 1593 0156 FFF7FEFF 		bl	puts
 1594              	.LVL183:
 1595              	.LBB455:
 1596              	.LBB456:
 1597              		.loc 2 817 0
 1598 015a 224B     		ldr	r3, .L75+12
 1599 015c 0422     		movs	r2, #4
 1600 015e 9A60     		str	r2, [r3, #8]
 1601              	.LVL184:
 1602              	.LBE456:
 1603              	.LBE455:
 1604              	.LBB457:
 1605              	.LBB458:
 1606 0160 0822     		movs	r2, #8
 1607 0162 9A60     		str	r2, [r3, #8]
 1608              	.LVL185:
 1609              	.LBE458:
 1610              	.LBE457:
 1611              	.LBB459:
 1612              	.LBB460:
 813:Generated_Source\PSoC6\pdl\drivers/peripheral/gpio/cy_gpio.h ****     }
 1613              		.loc 2 813 0
 1614 0164 1022     		movs	r2, #16
 1615 0166 5A60     		str	r2, [r3, #4]
 1616              	.LVL186:
 1617              	.LBE460:
 1618              	.LBE459:
 1619              	.LBB461:
 1620              	.LBB462:
 1621              		.loc 2 817 0
 1622 0168 2022     		movs	r2, #32
 1623 016a 9A60     		str	r2, [r3, #8]
 1624 016c 10BD     		pop	{r4, pc}
 1625              	.LVL187:
 1626              	.L70:
 1627              	.LBE462:
 1628              	.LBE461:
 439:main_cm4.c    ****             Cy_GPIO_Write(MUX0_0_PORT, MUX0_0_NUM, 0UL);
 1629              		.loc 1 439 0
 1630 016e 2948     		ldr	r0, .L75+60
 1631 0170 FFF7FEFF 		bl	puts
 1632              	.LVL188:
 1633              	.LBB463:
 1634              	.LBB464:
 813:Generated_Source\PSoC6\pdl\drivers/peripheral/gpio/cy_gpio.h ****     }
ARM GAS  C:\Users\seeho\AppData\Local\Temp\ccUkk7Dc.s 			page 60


 1635              		.loc 2 813 0
 1636 0174 1B4B     		ldr	r3, .L75+12
 1637 0176 0422     		movs	r2, #4
 1638 0178 5A60     		str	r2, [r3, #4]
 1639              	.LVL189:
 1640              	.LBE464:
 1641              	.LBE463:
 1642              	.LBB465:
 1643              	.LBB466:
 1644 017a 0822     		movs	r2, #8
 1645 017c 5A60     		str	r2, [r3, #4]
 1646              	.LVL190:
 1647              	.LBE466:
 1648              	.LBE465:
 1649              	.LBB467:
 1650              	.LBB468:
 1651              		.loc 2 817 0
 1652 017e 1022     		movs	r2, #16
 1653 0180 9A60     		str	r2, [r3, #8]
 1654              	.LVL191:
 1655              	.LBE468:
 1656              	.LBE467:
 1657              	.LBB469:
 1658              	.LBB470:
 1659 0182 2022     		movs	r2, #32
 1660 0184 9A60     		str	r2, [r3, #8]
 1661 0186 10BD     		pop	{r4, pc}
 1662              	.LVL192:
 1663              	.L71:
 1664              	.LBE470:
 1665              	.LBE469:
 447:main_cm4.c    ****             Cy_GPIO_Write(MUX0_0_PORT, MUX0_0_NUM, 1UL);
 1666              		.loc 1 447 0
 1667 0188 2348     		ldr	r0, .L75+64
 1668 018a FFF7FEFF 		bl	puts
 1669              	.LVL193:
 1670              	.LBB471:
 1671              	.LBB472:
 1672              		.loc 2 817 0
 1673 018e 154B     		ldr	r3, .L75+12
 1674 0190 0422     		movs	r2, #4
 1675 0192 9A60     		str	r2, [r3, #8]
 1676              	.LVL194:
 1677              	.LBE472:
 1678              	.LBE471:
 1679              	.LBB473:
 1680              	.LBB474:
 813:Generated_Source\PSoC6\pdl\drivers/peripheral/gpio/cy_gpio.h ****     }
 1681              		.loc 2 813 0
 1682 0194 0822     		movs	r2, #8
 1683 0196 5A60     		str	r2, [r3, #4]
 1684              	.LVL195:
 1685              	.LBE474:
 1686              	.LBE473:
 1687              	.LBB475:
 1688              	.LBB476:
 1689              		.loc 2 817 0
ARM GAS  C:\Users\seeho\AppData\Local\Temp\ccUkk7Dc.s 			page 61


 1690 0198 1022     		movs	r2, #16
 1691 019a 9A60     		str	r2, [r3, #8]
 1692              	.LVL196:
 1693              	.LBE476:
 1694              	.LBE475:
 1695              	.LBB477:
 1696              	.LBB478:
 1697 019c 2022     		movs	r2, #32
 1698 019e 9A60     		str	r2, [r3, #8]
 1699 01a0 10BD     		pop	{r4, pc}
 1700              	.LVL197:
 1701              	.L72:
 1702              	.LBE478:
 1703              	.LBE477:
 455:main_cm4.c    ****             Cy_GPIO_Write(MUX0_0_PORT, MUX0_0_NUM, 0UL);
 1704              		.loc 1 455 0
 1705 01a2 1E48     		ldr	r0, .L75+68
 1706 01a4 FFF7FEFF 		bl	puts
 1707              	.LVL198:
 1708              	.LBB479:
 1709              	.LBB480:
 813:Generated_Source\PSoC6\pdl\drivers/peripheral/gpio/cy_gpio.h ****     }
 1710              		.loc 2 813 0
 1711 01a8 0E4B     		ldr	r3, .L75+12
 1712 01aa 0422     		movs	r2, #4
 1713 01ac 5A60     		str	r2, [r3, #4]
 1714              	.LVL199:
 1715              	.LBE480:
 1716              	.LBE479:
 1717              	.LBB481:
 1718              	.LBB482:
 1719              		.loc 2 817 0
 1720 01ae 0822     		movs	r2, #8
 1721 01b0 9A60     		str	r2, [r3, #8]
 1722              	.LVL200:
 1723              	.LBE482:
 1724              	.LBE481:
 1725              	.LBB483:
 1726              	.LBB484:
 1727 01b2 1022     		movs	r2, #16
 1728 01b4 9A60     		str	r2, [r3, #8]
 1729              	.LVL201:
 1730              	.LBE484:
 1731              	.LBE483:
 1732              	.LBB485:
 1733              	.LBB486:
 1734 01b6 2022     		movs	r2, #32
 1735 01b8 9A60     		str	r2, [r3, #8]
 1736 01ba 10BD     		pop	{r4, pc}
 1737              	.LVL202:
 1738              	.L56:
 1739              	.LBE486:
 1740              	.LBE485:
 463:main_cm4.c    ****             Cy_GPIO_Write(MUX0_0_PORT, MUX0_0_NUM, 1UL);
 1741              		.loc 1 463 0
 1742 01bc 1848     		ldr	r0, .L75+72
 1743 01be FFF7FEFF 		bl	puts
ARM GAS  C:\Users\seeho\AppData\Local\Temp\ccUkk7Dc.s 			page 62


 1744              	.LVL203:
 1745              	.LBB487:
 1746              	.LBB488:
 1747              		.loc 2 817 0
 1748 01c2 084B     		ldr	r3, .L75+12
 1749 01c4 0422     		movs	r2, #4
 1750 01c6 9A60     		str	r2, [r3, #8]
 1751              	.LVL204:
 1752              	.LBE488:
 1753              	.LBE487:
 1754              	.LBB489:
 1755              	.LBB490:
 1756 01c8 0822     		movs	r2, #8
 1757 01ca 9A60     		str	r2, [r3, #8]
 1758              	.LVL205:
 1759              	.LBE490:
 1760              	.LBE489:
 1761              	.LBB491:
 1762              	.LBB492:
 1763 01cc 1022     		movs	r2, #16
 1764 01ce 9A60     		str	r2, [r3, #8]
 1765              	.LVL206:
 1766              	.LBE492:
 1767              	.LBE491:
 1768              	.LBB493:
 1769              	.LBB494:
 1770 01d0 2022     		movs	r2, #32
 1771 01d2 9A60     		str	r2, [r3, #8]
 1772 01d4 10BD     		pop	{r4, pc}
 1773              	.L76:
 1774 01d6 00BF     		.align	2
 1775              	.L75:
 1776 01d8 00000000 		.word	.LANCHOR0
 1777 01dc 38020000 		.word	.LC26
 1778 01e0 50020000 		.word	.LC27
 1779 01e4 80023240 		.word	1077019264
 1780 01e8 60020000 		.word	.LC28
 1781 01ec 70020000 		.word	.LC29
 1782 01f0 80020000 		.word	.LC30
 1783 01f4 90020000 		.word	.LC31
 1784 01f8 A0020000 		.word	.LC32
 1785 01fc B0020000 		.word	.LC33
 1786 0200 C0020000 		.word	.LC34
 1787 0204 D0020000 		.word	.LC35
 1788 0208 E0020000 		.word	.LC36
 1789 020c F0020000 		.word	.LC37
 1790 0210 00030000 		.word	.LC38
 1791 0214 10030000 		.word	.LC39
 1792 0218 20030000 		.word	.LC40
 1793 021c 30030000 		.word	.LC41
 1794 0220 40030000 		.word	.LC42
 1795              	.LBE494:
 1796              	.LBE493:
 1797              		.cfi_endproc
 1798              	.LFE644:
 1799              		.size	writeDisplayMUX, .-writeDisplayMUX
 1800              		.section	.text.writeDisplayOSC,"ax",%progbits
ARM GAS  C:\Users\seeho\AppData\Local\Temp\ccUkk7Dc.s 			page 63


 1801              		.align	2
 1802              		.global	writeDisplayOSC
 1803              		.thumb
 1804              		.thumb_func
 1805              		.type	writeDisplayOSC, %function
 1806              	writeDisplayOSC:
 1807              	.LFB645:
 480:main_cm4.c    ****     printf("OSC Client: %x \r\n", valOSC);
 1808              		.loc 1 480 0
 1809              		.cfi_startproc
 1810              		@ args = 0, pretend = 0, frame = 0
 1811              		@ frame_needed = 0, uses_anonymous_args = 0
 1812 0000 08B5     		push	{r3, lr}
 1813              		.cfi_def_cfa_offset 8
 1814              		.cfi_offset 3, -8
 1815              		.cfi_offset 14, -4
 481:main_cm4.c    ****     /* Empty for now */
 1816              		.loc 1 481 0
 1817 0002 034B     		ldr	r3, .L79
 1818 0004 5968     		ldr	r1, [r3, #4]
 1819 0006 0348     		ldr	r0, .L79+4
 1820 0008 FFF7FEFF 		bl	printf
 1821              	.LVL207:
 1822 000c 08BD     		pop	{r3, pc}
 1823              	.L80:
 1824 000e 00BF     		.align	2
 1825              	.L79:
 1826 0010 00000000 		.word	.LANCHOR1
 1827 0014 50030000 		.word	.LC43
 1828              		.cfi_endproc
 1829              	.LFE645:
 1830              		.size	writeDisplayOSC, .-writeDisplayOSC
 1831              		.section	.text.writeDisplayMISC,"ax",%progbits
 1832              		.align	2
 1833              		.global	writeDisplayMISC
 1834              		.thumb
 1835              		.thumb_func
 1836              		.type	writeDisplayMISC, %function
 1837              	writeDisplayMISC:
 1838              	.LFB646:
 495:main_cm4.c    ****     printf("MISC GATT Client: %x \r\n", valMISC);
 1839              		.loc 1 495 0
 1840              		.cfi_startproc
 1841              		@ args = 0, pretend = 0, frame = 0
 1842              		@ frame_needed = 0, uses_anonymous_args = 0
 1843 0000 08B5     		push	{r3, lr}
 1844              		.cfi_def_cfa_offset 8
 1845              		.cfi_offset 3, -8
 1846              		.cfi_offset 14, -4
 496:main_cm4.c    ****     /* Empty for now */
 1847              		.loc 1 496 0
 1848 0002 034B     		ldr	r3, .L83
 1849 0004 9968     		ldr	r1, [r3, #8]
 1850 0006 0348     		ldr	r0, .L83+4
 1851 0008 FFF7FEFF 		bl	printf
 1852              	.LVL208:
 1853 000c 08BD     		pop	{r3, pc}
ARM GAS  C:\Users\seeho\AppData\Local\Temp\ccUkk7Dc.s 			page 64


 1854              	.L84:
 1855 000e 00BF     		.align	2
 1856              	.L83:
 1857 0010 00000000 		.word	.LANCHOR0
 1858 0014 64030000 		.word	.LC44
 1859              		.cfi_endproc
 1860              	.LFE646:
 1861              		.size	writeDisplayMISC, .-writeDisplayMISC
 1862              		.section	.text.genericEventHandler,"ax",%progbits
 1863              		.align	2
 1864              		.global	genericEventHandler
 1865              		.thumb
 1866              		.thumb_func
 1867              		.type	genericEventHandler, %function
 1868              	genericEventHandler:
 1869              	.LFB647:
 511:main_cm4.c    ****     cy_stc_ble_gatts_write_cmd_req_param_t *writeReqParameter;
 1870              		.loc 1 511 0
 1871              		.cfi_startproc
 1872              		@ args = 0, pretend = 0, frame = 0
 1873              		@ frame_needed = 0, uses_anonymous_args = 0
 1874              	.LVL209:
 1875 0000 70B5     		push	{r4, r5, r6, lr}
 1876              		.cfi_def_cfa_offset 16
 1877              		.cfi_offset 4, -16
 1878              		.cfi_offset 5, -12
 1879              		.cfi_offset 6, -8
 1880              		.cfi_offset 14, -4
 515:main_cm4.c    **** 	{
 1881              		.loc 1 515 0
 1882 0002 44F20603 		movw	r3, #16390
 1883 0006 9842     		cmp	r0, r3
 1884 0008 00F08480 		beq	.L87
 1885 000c 0D46     		mov	r5, r1
 1886 000e 1ED8     		bhi	.L88
 1887 0010 B0F5005F 		cmp	r0, #8192
 1888 0014 53D0     		beq	.L89
 1889 0016 0CD8     		bhi	.L90
 1890 0018 41F20103 		movw	r3, #4097
 1891 001c 9842     		cmp	r0, r3
 1892 001e 4AD0     		beq	.L91
 1893 0020 41F20203 		movw	r3, #4098
 1894 0024 9842     		cmp	r0, r3
 1895 0026 4ED0     		beq	.L92
 1896 0028 B0F5805F 		cmp	r0, #4096
 1897 002c 40F0F080 		bne	.L86
 1898 0030 2CE0     		b	.L93
 1899              	.L90:
 1900 0032 43F20303 		movw	r3, #12291
 1901 0036 9842     		cmp	r0, r3
 1902 0038 4ED0     		beq	.L94
 1903 003a 43F20603 		movw	r3, #12294
 1904 003e 9842     		cmp	r0, r3
 1905 0040 64D0     		beq	.L95
 1906 0042 43F20203 		movw	r3, #12290
 1907 0046 9842     		cmp	r0, r3
 1908 0048 40F0E280 		bne	.L86
ARM GAS  C:\Users\seeho\AppData\Local\Temp\ccUkk7Dc.s 			page 65


 1909 004c 40E0     		b	.L96
 1910              	.L88:
 1911 004e 45F20103 		movw	r3, #20481
 1912 0052 9842     		cmp	r0, r3
 1913 0054 6AD0     		beq	.L97
 1914 0056 09D8     		bhi	.L98
 1915 0058 44F20803 		movw	r3, #16392
 1916 005c 9842     		cmp	r0, r3
 1917 005e 18D0     		beq	.L99
 1918 0060 5CD3     		bcc	.L100
 1919 0062 44F20A03 		movw	r3, #16394
 1920 0066 9842     		cmp	r0, r3
 1921 0068 5CD0     		beq	.L101
 1922 006a D1E0     		b	.L86
 1923              	.L98:
 1924 006c 45F20303 		movw	r3, #20483
 1925 0070 9842     		cmp	r0, r3
 1926 0072 00F0C580 		beq	.L102
 1927 0076 6AD3     		bcc	.L103
 1928 0078 45F20C03 		movw	r3, #20492
 1929 007c 9842     		cmp	r0, r3
 1930 007e 6AD0     		beq	.L104
 1931 0080 45F21703 		movw	r3, #20503
 1932 0084 9842     		cmp	r0, r3
 1933 0086 00F0BF80 		beq	.L105
 1934 008a C1E0     		b	.L86
 1935              	.L93:
 527:main_cm4.c    ****             
 1936              		.loc 1 527 0
 1937 008c 6348     		ldr	r0, .L118
 1938              	.LVL210:
 1939 008e FFF7FEFF 		bl	puts
 1940              	.LVL211:
 1941              	.L99:
 530:main_cm4.c    ****             Cy_BLE_GAPP_StartAdvertisement(CY_BLE_ADVERTISING_FAST, CY_BLE_PERIPHERAL_CONFIGURATION
 1942              		.loc 1 530 0
 1943 0092 FFF7FEFF 		bl	PWM_BLINK_Start
 1944              	.LVL212:
 531:main_cm4.c    ****             Cy_TCPWM_TriggerReloadOrIndex(PWM_DIM_HW,PWM_DIM_CNT_NUM);
 1945              		.loc 1 531 0
 1946 0096 0021     		movs	r1, #0
 1947 0098 0846     		mov	r0, r1
 1948 009a FFF7FEFF 		bl	Cy_BLE_GAPP_StartAdvertisement
 1949              	.LVL213:
 1950              	.LBB495:
 1951              	.LBB496:
 1952              		.file 3 "Generated_Source\\PSoC6\\pdl\\drivers/peripheral/tcpwm/cy_tcpwm.h"
   1:Generated_Source\PSoC6\pdl\drivers/peripheral/tcpwm/cy_tcpwm.h **** /***************************************************************************//**
   2:Generated_Source\PSoC6\pdl\drivers/peripheral/tcpwm/cy_tcpwm.h **** * \file cy_tcpwm.h
   3:Generated_Source\PSoC6\pdl\drivers/peripheral/tcpwm/cy_tcpwm.h **** * \version 1.10
   4:Generated_Source\PSoC6\pdl\drivers/peripheral/tcpwm/cy_tcpwm.h **** *
   5:Generated_Source\PSoC6\pdl\drivers/peripheral/tcpwm/cy_tcpwm.h **** * The header file of the TCPWM driver.
   6:Generated_Source\PSoC6\pdl\drivers/peripheral/tcpwm/cy_tcpwm.h **** *
   7:Generated_Source\PSoC6\pdl\drivers/peripheral/tcpwm/cy_tcpwm.h **** ********************************************************************************
   8:Generated_Source\PSoC6\pdl\drivers/peripheral/tcpwm/cy_tcpwm.h **** * \copyright
   9:Generated_Source\PSoC6\pdl\drivers/peripheral/tcpwm/cy_tcpwm.h **** * Copyright 2016-2018, Cypress Semiconductor Corporation. All rights reserved.
  10:Generated_Source\PSoC6\pdl\drivers/peripheral/tcpwm/cy_tcpwm.h **** * You may use this file only in accordance with the license, terms, conditions,
ARM GAS  C:\Users\seeho\AppData\Local\Temp\ccUkk7Dc.s 			page 66


  11:Generated_Source\PSoC6\pdl\drivers/peripheral/tcpwm/cy_tcpwm.h **** * disclaimers, and limitations in the end user license agreement accompanying
  12:Generated_Source\PSoC6\pdl\drivers/peripheral/tcpwm/cy_tcpwm.h **** * the software package with which this file was provided.
  13:Generated_Source\PSoC6\pdl\drivers/peripheral/tcpwm/cy_tcpwm.h **** *******************************************************************************/
  14:Generated_Source\PSoC6\pdl\drivers/peripheral/tcpwm/cy_tcpwm.h **** 
  15:Generated_Source\PSoC6\pdl\drivers/peripheral/tcpwm/cy_tcpwm.h **** /**
  16:Generated_Source\PSoC6\pdl\drivers/peripheral/tcpwm/cy_tcpwm.h **** * \addtogroup group_tcpwm
  17:Generated_Source\PSoC6\pdl\drivers/peripheral/tcpwm/cy_tcpwm.h **** * \{
  18:Generated_Source\PSoC6\pdl\drivers/peripheral/tcpwm/cy_tcpwm.h **** * \defgroup group_tcpwm_common  Common
  19:Generated_Source\PSoC6\pdl\drivers/peripheral/tcpwm/cy_tcpwm.h **** * \defgroup group_tcpwm_counter Timer/Counter (TCPWM)
  20:Generated_Source\PSoC6\pdl\drivers/peripheral/tcpwm/cy_tcpwm.h **** * \defgroup group_tcpwm_pwm     PWM (TCPWM)
  21:Generated_Source\PSoC6\pdl\drivers/peripheral/tcpwm/cy_tcpwm.h **** * \defgroup group_tcpwm_quaddec Quadrature Decoder (TCPWM)
  22:Generated_Source\PSoC6\pdl\drivers/peripheral/tcpwm/cy_tcpwm.h **** * \} */
  23:Generated_Source\PSoC6\pdl\drivers/peripheral/tcpwm/cy_tcpwm.h **** 
  24:Generated_Source\PSoC6\pdl\drivers/peripheral/tcpwm/cy_tcpwm.h **** /**
  25:Generated_Source\PSoC6\pdl\drivers/peripheral/tcpwm/cy_tcpwm.h **** * \addtogroup group_tcpwm
  26:Generated_Source\PSoC6\pdl\drivers/peripheral/tcpwm/cy_tcpwm.h **** * \{
  27:Generated_Source\PSoC6\pdl\drivers/peripheral/tcpwm/cy_tcpwm.h **** * 
  28:Generated_Source\PSoC6\pdl\drivers/peripheral/tcpwm/cy_tcpwm.h **** * The TCPWM driver is a multifunction driver that implements Timer Counter, 
  29:Generated_Source\PSoC6\pdl\drivers/peripheral/tcpwm/cy_tcpwm.h **** * PWM, and Quadrature Decoder functionality using the TCPWM block.
  30:Generated_Source\PSoC6\pdl\drivers/peripheral/tcpwm/cy_tcpwm.h **** *
  31:Generated_Source\PSoC6\pdl\drivers/peripheral/tcpwm/cy_tcpwm.h **** * The functions and other declarations used in this driver are in cy_tcpwm_counter.h, 
  32:Generated_Source\PSoC6\pdl\drivers/peripheral/tcpwm/cy_tcpwm.h **** * cy_tcpwm_pwm.h, cy_tcpwm_quaddec.h respectively. Include cy_pdl.h 
  33:Generated_Source\PSoC6\pdl\drivers/peripheral/tcpwm/cy_tcpwm.h **** * (ModusToolbox only) to get access to all functions and declarations in the PDL.
  34:Generated_Source\PSoC6\pdl\drivers/peripheral/tcpwm/cy_tcpwm.h **** *
  35:Generated_Source\PSoC6\pdl\drivers/peripheral/tcpwm/cy_tcpwm.h **** * Each TCPWM block is a collection of counters that can all be triggered 
  36:Generated_Source\PSoC6\pdl\drivers/peripheral/tcpwm/cy_tcpwm.h **** * simultaneously. For each function call, the base register address of 
  37:Generated_Source\PSoC6\pdl\drivers/peripheral/tcpwm/cy_tcpwm.h **** * the TCPWM being used must be passed first, followed by the index of 
  38:Generated_Source\PSoC6\pdl\drivers/peripheral/tcpwm/cy_tcpwm.h **** * the counter you want to touch next. 
  39:Generated_Source\PSoC6\pdl\drivers/peripheral/tcpwm/cy_tcpwm.h **** * For some functions, you can manage multiple counters simultaneously. You 
  40:Generated_Source\PSoC6\pdl\drivers/peripheral/tcpwm/cy_tcpwm.h **** * provide a bit field representing each counter, rather than the single counter 
  41:Generated_Source\PSoC6\pdl\drivers/peripheral/tcpwm/cy_tcpwm.h **** * index). 
  42:Generated_Source\PSoC6\pdl\drivers/peripheral/tcpwm/cy_tcpwm.h **** *
  43:Generated_Source\PSoC6\pdl\drivers/peripheral/tcpwm/cy_tcpwm.h **** * The TCPWM supports three operating modes:
  44:Generated_Source\PSoC6\pdl\drivers/peripheral/tcpwm/cy_tcpwm.h **** * * Timer/Counter
  45:Generated_Source\PSoC6\pdl\drivers/peripheral/tcpwm/cy_tcpwm.h **** * * PWM
  46:Generated_Source\PSoC6\pdl\drivers/peripheral/tcpwm/cy_tcpwm.h **** * * Quadrature Decoder
  47:Generated_Source\PSoC6\pdl\drivers/peripheral/tcpwm/cy_tcpwm.h **** *
  48:Generated_Source\PSoC6\pdl\drivers/peripheral/tcpwm/cy_tcpwm.h **** * \n
  49:Generated_Source\PSoC6\pdl\drivers/peripheral/tcpwm/cy_tcpwm.h **** * \b Timer/Counter
  50:Generated_Source\PSoC6\pdl\drivers/peripheral/tcpwm/cy_tcpwm.h **** *
  51:Generated_Source\PSoC6\pdl\drivers/peripheral/tcpwm/cy_tcpwm.h **** * Use this mode whenever a specific timing interval or measurement is 
  52:Generated_Source\PSoC6\pdl\drivers/peripheral/tcpwm/cy_tcpwm.h **** * needed. Examples include:
  53:Generated_Source\PSoC6\pdl\drivers/peripheral/tcpwm/cy_tcpwm.h **** * * Creating a periodic interrupt for running other system tasks
  54:Generated_Source\PSoC6\pdl\drivers/peripheral/tcpwm/cy_tcpwm.h **** * * Measuring frequency of an input signal
  55:Generated_Source\PSoC6\pdl\drivers/peripheral/tcpwm/cy_tcpwm.h **** * * Measuring pulse width of an input signal
  56:Generated_Source\PSoC6\pdl\drivers/peripheral/tcpwm/cy_tcpwm.h **** * * Measuring time between two external events
  57:Generated_Source\PSoC6\pdl\drivers/peripheral/tcpwm/cy_tcpwm.h **** * * Counting events
  58:Generated_Source\PSoC6\pdl\drivers/peripheral/tcpwm/cy_tcpwm.h **** * * Triggering other system resources after x number events
  59:Generated_Source\PSoC6\pdl\drivers/peripheral/tcpwm/cy_tcpwm.h **** * * Capturing time stamps when events occur
  60:Generated_Source\PSoC6\pdl\drivers/peripheral/tcpwm/cy_tcpwm.h **** *
  61:Generated_Source\PSoC6\pdl\drivers/peripheral/tcpwm/cy_tcpwm.h **** * The Timer/Counter has the following features:
  62:Generated_Source\PSoC6\pdl\drivers/peripheral/tcpwm/cy_tcpwm.h **** * * 16- or 32-bit Timer/Counter
  63:Generated_Source\PSoC6\pdl\drivers/peripheral/tcpwm/cy_tcpwm.h **** * * Programmable Period Register
  64:Generated_Source\PSoC6\pdl\drivers/peripheral/tcpwm/cy_tcpwm.h **** * * Programmable Compare Register. Compare value can be swapped with a 
  65:Generated_Source\PSoC6\pdl\drivers/peripheral/tcpwm/cy_tcpwm.h **** * buffered compare value on comparison event
  66:Generated_Source\PSoC6\pdl\drivers/peripheral/tcpwm/cy_tcpwm.h **** * * Capture with buffer register
  67:Generated_Source\PSoC6\pdl\drivers/peripheral/tcpwm/cy_tcpwm.h **** * * Count Up, Count Down, or Count Up and Down Counting modes
ARM GAS  C:\Users\seeho\AppData\Local\Temp\ccUkk7Dc.s 			page 67


  68:Generated_Source\PSoC6\pdl\drivers/peripheral/tcpwm/cy_tcpwm.h **** * * Continuous or One Shot Run modes
  69:Generated_Source\PSoC6\pdl\drivers/peripheral/tcpwm/cy_tcpwm.h **** * * Interrupt and Output on Overflow, Underflow, Capture, or Compare 
  70:Generated_Source\PSoC6\pdl\drivers/peripheral/tcpwm/cy_tcpwm.h **** * * Start, Reload, Stop, Capture, and Count Inputs
  71:Generated_Source\PSoC6\pdl\drivers/peripheral/tcpwm/cy_tcpwm.h **** *
  72:Generated_Source\PSoC6\pdl\drivers/peripheral/tcpwm/cy_tcpwm.h **** * \n
  73:Generated_Source\PSoC6\pdl\drivers/peripheral/tcpwm/cy_tcpwm.h **** * \b PWM
  74:Generated_Source\PSoC6\pdl\drivers/peripheral/tcpwm/cy_tcpwm.h **** *
  75:Generated_Source\PSoC6\pdl\drivers/peripheral/tcpwm/cy_tcpwm.h **** * Use this mode when an output square wave is needed with a specific 
  76:Generated_Source\PSoC6\pdl\drivers/peripheral/tcpwm/cy_tcpwm.h **** * period and duty cycle, such as:
  77:Generated_Source\PSoC6\pdl\drivers/peripheral/tcpwm/cy_tcpwm.h **** * * Creating arbitrary square wave outputs
  78:Generated_Source\PSoC6\pdl\drivers/peripheral/tcpwm/cy_tcpwm.h **** * * Driving an LED (changing the brightness)
  79:Generated_Source\PSoC6\pdl\drivers/peripheral/tcpwm/cy_tcpwm.h **** * * Driving Motors (dead time assertion available)
  80:Generated_Source\PSoC6\pdl\drivers/peripheral/tcpwm/cy_tcpwm.h **** *
  81:Generated_Source\PSoC6\pdl\drivers/peripheral/tcpwm/cy_tcpwm.h **** * The PWM has the following features:
  82:Generated_Source\PSoC6\pdl\drivers/peripheral/tcpwm/cy_tcpwm.h **** * * 16- or 32-bit Counter
  83:Generated_Source\PSoC6\pdl\drivers/peripheral/tcpwm/cy_tcpwm.h **** * * Two Programmable Period registers that can be swapped
  84:Generated_Source\PSoC6\pdl\drivers/peripheral/tcpwm/cy_tcpwm.h **** * * Two Output Compare registers that can be swapped on overflow and/or 
  85:Generated_Source\PSoC6\pdl\drivers/peripheral/tcpwm/cy_tcpwm.h **** * underflow
  86:Generated_Source\PSoC6\pdl\drivers/peripheral/tcpwm/cy_tcpwm.h **** * * Left Aligned, Right Aligned, Center Aligned, and Asymmetric Aligned modes
  87:Generated_Source\PSoC6\pdl\drivers/peripheral/tcpwm/cy_tcpwm.h **** * * Continuous or One Shot run modes
  88:Generated_Source\PSoC6\pdl\drivers/peripheral/tcpwm/cy_tcpwm.h **** * * Pseudo Random mode
  89:Generated_Source\PSoC6\pdl\drivers/peripheral/tcpwm/cy_tcpwm.h **** * * Two PWM outputs with Dead Time insertion, and programmable polarity
  90:Generated_Source\PSoC6\pdl\drivers/peripheral/tcpwm/cy_tcpwm.h **** * * Interrupt and Output on Overflow, Underflow, or Compare 
  91:Generated_Source\PSoC6\pdl\drivers/peripheral/tcpwm/cy_tcpwm.h **** * * Start, Reload, Stop, Swap (Capture), and Count Inputs
  92:Generated_Source\PSoC6\pdl\drivers/peripheral/tcpwm/cy_tcpwm.h **** * * Multiple Components can be synchronized together for applications 
  93:Generated_Source\PSoC6\pdl\drivers/peripheral/tcpwm/cy_tcpwm.h **** * such as three phase motor control
  94:Generated_Source\PSoC6\pdl\drivers/peripheral/tcpwm/cy_tcpwm.h **** *
  95:Generated_Source\PSoC6\pdl\drivers/peripheral/tcpwm/cy_tcpwm.h **** * \n
  96:Generated_Source\PSoC6\pdl\drivers/peripheral/tcpwm/cy_tcpwm.h **** * \b Quadrature \b Decoder
  97:Generated_Source\PSoC6\pdl\drivers/peripheral/tcpwm/cy_tcpwm.h **** *
  98:Generated_Source\PSoC6\pdl\drivers/peripheral/tcpwm/cy_tcpwm.h **** * A quadrature decoder is used to decode the output of a quadrature encoder. 
  99:Generated_Source\PSoC6\pdl\drivers/peripheral/tcpwm/cy_tcpwm.h **** * A quadrature encoder senses the position, velocity, and direction of 
 100:Generated_Source\PSoC6\pdl\drivers/peripheral/tcpwm/cy_tcpwm.h **** * an object (for example a rotating axle, or a spinning mouse ball). 
 101:Generated_Source\PSoC6\pdl\drivers/peripheral/tcpwm/cy_tcpwm.h **** * A quadrature decoder can also be used for precision measurement of speed, 
 102:Generated_Source\PSoC6\pdl\drivers/peripheral/tcpwm/cy_tcpwm.h **** * acceleration, and position of a motor's rotor, or with a rotary switch to 
 103:Generated_Source\PSoC6\pdl\drivers/peripheral/tcpwm/cy_tcpwm.h **** * determine user input. \n
 104:Generated_Source\PSoC6\pdl\drivers/peripheral/tcpwm/cy_tcpwm.h **** * 
 105:Generated_Source\PSoC6\pdl\drivers/peripheral/tcpwm/cy_tcpwm.h **** * The Quadrature Decoder has the following features:
 106:Generated_Source\PSoC6\pdl\drivers/peripheral/tcpwm/cy_tcpwm.h **** * * 16- or 32-bit Counter
 107:Generated_Source\PSoC6\pdl\drivers/peripheral/tcpwm/cy_tcpwm.h **** * * Counter Resolution of x1, x2, and x4 the frequency of the phiA (Count) and 
 108:Generated_Source\PSoC6\pdl\drivers/peripheral/tcpwm/cy_tcpwm.h **** * phiB (Start) inputs
 109:Generated_Source\PSoC6\pdl\drivers/peripheral/tcpwm/cy_tcpwm.h **** * * Index Input to determine absolute position
 110:Generated_Source\PSoC6\pdl\drivers/peripheral/tcpwm/cy_tcpwm.h **** * * A positive edge on phiA increments the counter when phiB is 0 and decrements
 111:Generated_Source\PSoC6\pdl\drivers/peripheral/tcpwm/cy_tcpwm.h **** * the counter when phiB is 1
 112:Generated_Source\PSoC6\pdl\drivers/peripheral/tcpwm/cy_tcpwm.h **** *
 113:Generated_Source\PSoC6\pdl\drivers/peripheral/tcpwm/cy_tcpwm.h **** * \section group_tcpwm_configuration Configuration Considerations
 114:Generated_Source\PSoC6\pdl\drivers/peripheral/tcpwm/cy_tcpwm.h **** *
 115:Generated_Source\PSoC6\pdl\drivers/peripheral/tcpwm/cy_tcpwm.h **** * For each mode, the TCPWM driver has a configuration structure, an Init 
 116:Generated_Source\PSoC6\pdl\drivers/peripheral/tcpwm/cy_tcpwm.h **** * function, and an Enable function. 
 117:Generated_Source\PSoC6\pdl\drivers/peripheral/tcpwm/cy_tcpwm.h **** *
 118:Generated_Source\PSoC6\pdl\drivers/peripheral/tcpwm/cy_tcpwm.h **** * Provide the configuration parameters in the appropriate structure (see
 119:Generated_Source\PSoC6\pdl\drivers/peripheral/tcpwm/cy_tcpwm.h **** * Counter \ref group_tcpwm_data_structures_counter, PWM 
 120:Generated_Source\PSoC6\pdl\drivers/peripheral/tcpwm/cy_tcpwm.h **** * \ref group_tcpwm_data_structures_pwm, or QuadDec 
 121:Generated_Source\PSoC6\pdl\drivers/peripheral/tcpwm/cy_tcpwm.h **** * \ref group_tcpwm_data_structures_quaddec). 
 122:Generated_Source\PSoC6\pdl\drivers/peripheral/tcpwm/cy_tcpwm.h **** * Then call the appropriate Init function: 
 123:Generated_Source\PSoC6\pdl\drivers/peripheral/tcpwm/cy_tcpwm.h **** * \ref Cy_TCPWM_Counter_Init, \ref Cy_TCPWM_PWM_Init, or 
 124:Generated_Source\PSoC6\pdl\drivers/peripheral/tcpwm/cy_tcpwm.h **** * \ref Cy_TCPWM_QuadDec_Init. Provide the address of the filled structure as a 
ARM GAS  C:\Users\seeho\AppData\Local\Temp\ccUkk7Dc.s 			page 68


 125:Generated_Source\PSoC6\pdl\drivers/peripheral/tcpwm/cy_tcpwm.h **** * parameter. To enable the counter, call the appropriate Enable function: 
 126:Generated_Source\PSoC6\pdl\drivers/peripheral/tcpwm/cy_tcpwm.h **** * \ref Cy_TCPWM_Counter_Enable, \ref Cy_TCPWM_PWM_Enable, or 
 127:Generated_Source\PSoC6\pdl\drivers/peripheral/tcpwm/cy_tcpwm.h **** * \ref Cy_TCPWM_QuadDec_Enable).
 128:Generated_Source\PSoC6\pdl\drivers/peripheral/tcpwm/cy_tcpwm.h **** *
 129:Generated_Source\PSoC6\pdl\drivers/peripheral/tcpwm/cy_tcpwm.h **** * Many functions work with an individual counter. You can also manage multiple 
 130:Generated_Source\PSoC6\pdl\drivers/peripheral/tcpwm/cy_tcpwm.h **** * counters simultaneously for certain functions. These are listed in the 
 131:Generated_Source\PSoC6\pdl\drivers/peripheral/tcpwm/cy_tcpwm.h **** * \ref group_tcpwm_functions_common 
 132:Generated_Source\PSoC6\pdl\drivers/peripheral/tcpwm/cy_tcpwm.h **** * section of the TCPWM. You can enable, disable, or trigger (in various ways) 
 133:Generated_Source\PSoC6\pdl\drivers/peripheral/tcpwm/cy_tcpwm.h **** * multiple counters simultaneously. For these functions you provide a bit field 
 134:Generated_Source\PSoC6\pdl\drivers/peripheral/tcpwm/cy_tcpwm.h **** * representing each counter in the TCPWM you want to control. You can 
 135:Generated_Source\PSoC6\pdl\drivers/peripheral/tcpwm/cy_tcpwm.h **** * represent the bit field as an ORed mask of each counter, like 
 136:Generated_Source\PSoC6\pdl\drivers/peripheral/tcpwm/cy_tcpwm.h **** * ((1U << cntNumX) | (1U << cntNumX) | (1U << cntNumX)), where X is the counter 
 137:Generated_Source\PSoC6\pdl\drivers/peripheral/tcpwm/cy_tcpwm.h **** * number from 0 to 31.
 138:Generated_Source\PSoC6\pdl\drivers/peripheral/tcpwm/cy_tcpwm.h **** *
 139:Generated_Source\PSoC6\pdl\drivers/peripheral/tcpwm/cy_tcpwm.h **** * \note
 140:Generated_Source\PSoC6\pdl\drivers/peripheral/tcpwm/cy_tcpwm.h **** * * If none of the input terminals (start, reload(index)) are used, the 
 141:Generated_Source\PSoC6\pdl\drivers/peripheral/tcpwm/cy_tcpwm.h **** * software event \ref Cy_TCPWM_TriggerStart or 
 142:Generated_Source\PSoC6\pdl\drivers/peripheral/tcpwm/cy_tcpwm.h **** * \ref Cy_TCPWM_TriggerReloadOrIndex must be called to start the counting.
 143:Generated_Source\PSoC6\pdl\drivers/peripheral/tcpwm/cy_tcpwm.h **** * * If count input terminal is not used, the \ref CY_TCPWM_INPUT_LEVEL macro 
 144:Generated_Source\PSoC6\pdl\drivers/peripheral/tcpwm/cy_tcpwm.h **** * should be set for the countInputMode parameter and the \ref CY_TCPWM_INPUT_1 
 145:Generated_Source\PSoC6\pdl\drivers/peripheral/tcpwm/cy_tcpwm.h **** * macro should be set for the countInput parameter in the configuration 
 146:Generated_Source\PSoC6\pdl\drivers/peripheral/tcpwm/cy_tcpwm.h **** * structure of the appropriate mode(Counter 
 147:Generated_Source\PSoC6\pdl\drivers/peripheral/tcpwm/cy_tcpwm.h **** * \ref group_tcpwm_data_structures_counter, PWM 
 148:Generated_Source\PSoC6\pdl\drivers/peripheral/tcpwm/cy_tcpwm.h **** * \ref group_tcpwm_data_structures_pwm, or QuadDec 
 149:Generated_Source\PSoC6\pdl\drivers/peripheral/tcpwm/cy_tcpwm.h **** * \ref group_tcpwm_data_structures_quaddec).
 150:Generated_Source\PSoC6\pdl\drivers/peripheral/tcpwm/cy_tcpwm.h **** *
 151:Generated_Source\PSoC6\pdl\drivers/peripheral/tcpwm/cy_tcpwm.h **** * \subsection group_tcpwm_pins Assign and Configure Pins
 152:Generated_Source\PSoC6\pdl\drivers/peripheral/tcpwm/cy_tcpwm.h **** * The dedicated TCPWM pins can be used. The HSIOM register must be configured to
 153:Generated_Source\PSoC6\pdl\drivers/peripheral/tcpwm/cy_tcpwm.h **** * connect the block to the pins. Use the \ref group_gpio driver API to do that.
 154:Generated_Source\PSoC6\pdl\drivers/peripheral/tcpwm/cy_tcpwm.h **** *
 155:Generated_Source\PSoC6\pdl\drivers/peripheral/tcpwm/cy_tcpwm.h **** * \snippet tcpwm\1.10\counter\snippet\main.c snippet_Cy_TCPWM_Pins
 156:Generated_Source\PSoC6\pdl\drivers/peripheral/tcpwm/cy_tcpwm.h **** *
 157:Generated_Source\PSoC6\pdl\drivers/peripheral/tcpwm/cy_tcpwm.h **** * \subsection group_tcpwm_clock Assign Clock Divider
 158:Generated_Source\PSoC6\pdl\drivers/peripheral/tcpwm/cy_tcpwm.h **** * The clock source must be connected to proper working.
 159:Generated_Source\PSoC6\pdl\drivers/peripheral/tcpwm/cy_tcpwm.h **** * Any of the peripheral clock dividers could be used. Use the  
 160:Generated_Source\PSoC6\pdl\drivers/peripheral/tcpwm/cy_tcpwm.h **** * \ref group_sysclk driver API to do that.
 161:Generated_Source\PSoC6\pdl\drivers/peripheral/tcpwm/cy_tcpwm.h **** *
 162:Generated_Source\PSoC6\pdl\drivers/peripheral/tcpwm/cy_tcpwm.h **** * \snippet tcpwm\1.10\counter\snippet\main.c snippet_Cy_TCPWM_Clock
 163:Generated_Source\PSoC6\pdl\drivers/peripheral/tcpwm/cy_tcpwm.h **** *
 164:Generated_Source\PSoC6\pdl\drivers/peripheral/tcpwm/cy_tcpwm.h **** * \section group_tcpwm_more_information More Information
 165:Generated_Source\PSoC6\pdl\drivers/peripheral/tcpwm/cy_tcpwm.h **** *
 166:Generated_Source\PSoC6\pdl\drivers/peripheral/tcpwm/cy_tcpwm.h **** * For more information on the TCPWM peripheral, refer to the technical 
 167:Generated_Source\PSoC6\pdl\drivers/peripheral/tcpwm/cy_tcpwm.h **** * reference manual (TRM).
 168:Generated_Source\PSoC6\pdl\drivers/peripheral/tcpwm/cy_tcpwm.h **** *
 169:Generated_Source\PSoC6\pdl\drivers/peripheral/tcpwm/cy_tcpwm.h **** * \section group_tcpwm_MISRA MISRA-C Compliance 
 170:Generated_Source\PSoC6\pdl\drivers/peripheral/tcpwm/cy_tcpwm.h **** * <table class="doxtable">
 171:Generated_Source\PSoC6\pdl\drivers/peripheral/tcpwm/cy_tcpwm.h **** *   <tr>
 172:Generated_Source\PSoC6\pdl\drivers/peripheral/tcpwm/cy_tcpwm.h **** *     <th>MISRA Rule</th>
 173:Generated_Source\PSoC6\pdl\drivers/peripheral/tcpwm/cy_tcpwm.h **** *     <th>Rule Class (Required/Advisory)</th>
 174:Generated_Source\PSoC6\pdl\drivers/peripheral/tcpwm/cy_tcpwm.h **** *     <th>Rule Description</th>
 175:Generated_Source\PSoC6\pdl\drivers/peripheral/tcpwm/cy_tcpwm.h **** *     <th>Description of Deviation(s)</th>
 176:Generated_Source\PSoC6\pdl\drivers/peripheral/tcpwm/cy_tcpwm.h **** *   </tr>
 177:Generated_Source\PSoC6\pdl\drivers/peripheral/tcpwm/cy_tcpwm.h **** *   <tr>
 178:Generated_Source\PSoC6\pdl\drivers/peripheral/tcpwm/cy_tcpwm.h **** *     <td>14.2</td>
 179:Generated_Source\PSoC6\pdl\drivers/peripheral/tcpwm/cy_tcpwm.h **** *     <td>R</td>
 180:Generated_Source\PSoC6\pdl\drivers/peripheral/tcpwm/cy_tcpwm.h **** *     <td>All non-null statements shall either: a) have at least one side-effect
 181:Generated_Source\PSoC6\pdl\drivers/peripheral/tcpwm/cy_tcpwm.h **** *         however executed, or b) cause control flow to change.</td>
ARM GAS  C:\Users\seeho\AppData\Local\Temp\ccUkk7Dc.s 			page 69


 182:Generated_Source\PSoC6\pdl\drivers/peripheral/tcpwm/cy_tcpwm.h **** *     <td>The unused function parameters are cast to void. This statement
 183:Generated_Source\PSoC6\pdl\drivers/peripheral/tcpwm/cy_tcpwm.h **** *         has no side-effect and is used to suppress a compiler warning.</td>
 184:Generated_Source\PSoC6\pdl\drivers/peripheral/tcpwm/cy_tcpwm.h **** *   </tr>
 185:Generated_Source\PSoC6\pdl\drivers/peripheral/tcpwm/cy_tcpwm.h **** * </table>
 186:Generated_Source\PSoC6\pdl\drivers/peripheral/tcpwm/cy_tcpwm.h **** *
 187:Generated_Source\PSoC6\pdl\drivers/peripheral/tcpwm/cy_tcpwm.h **** * \section group_tcpwm_changelog Changelog
 188:Generated_Source\PSoC6\pdl\drivers/peripheral/tcpwm/cy_tcpwm.h **** * <table class="doxtable">
 189:Generated_Source\PSoC6\pdl\drivers/peripheral/tcpwm/cy_tcpwm.h **** *   <tr><th>Version</th><th>Changes</th><th>Reason for Change</th></tr>
 190:Generated_Source\PSoC6\pdl\drivers/peripheral/tcpwm/cy_tcpwm.h **** *   <tr>
 191:Generated_Source\PSoC6\pdl\drivers/peripheral/tcpwm/cy_tcpwm.h **** *     <td rowspan="2">1.10</td>
 192:Generated_Source\PSoC6\pdl\drivers/peripheral/tcpwm/cy_tcpwm.h **** *     <td>Flattened the organization of the driver source code into the single 
 193:Generated_Source\PSoC6\pdl\drivers/peripheral/tcpwm/cy_tcpwm.h **** *         source directory and the single include directory.
 194:Generated_Source\PSoC6\pdl\drivers/peripheral/tcpwm/cy_tcpwm.h **** *     </td>
 195:Generated_Source\PSoC6\pdl\drivers/peripheral/tcpwm/cy_tcpwm.h **** *     <td>Driver library directory-structure simplification.</td>
 196:Generated_Source\PSoC6\pdl\drivers/peripheral/tcpwm/cy_tcpwm.h **** *   </tr>
 197:Generated_Source\PSoC6\pdl\drivers/peripheral/tcpwm/cy_tcpwm.h **** *   <tr>
 198:Generated_Source\PSoC6\pdl\drivers/peripheral/tcpwm/cy_tcpwm.h **** *     <td>Added register access layer. Use register access macros instead
 199:Generated_Source\PSoC6\pdl\drivers/peripheral/tcpwm/cy_tcpwm.h **** *         of direct register access using dereferenced pointers.</td>
 200:Generated_Source\PSoC6\pdl\drivers/peripheral/tcpwm/cy_tcpwm.h **** *     <td>Makes register access device-independent, so that the PDL does 
 201:Generated_Source\PSoC6\pdl\drivers/peripheral/tcpwm/cy_tcpwm.h **** *         not need to be recompiled for each supported part number.</td>
 202:Generated_Source\PSoC6\pdl\drivers/peripheral/tcpwm/cy_tcpwm.h **** *   </tr>
 203:Generated_Source\PSoC6\pdl\drivers/peripheral/tcpwm/cy_tcpwm.h **** *   <tr>
 204:Generated_Source\PSoC6\pdl\drivers/peripheral/tcpwm/cy_tcpwm.h **** *     <td>1.0.1</td>
 205:Generated_Source\PSoC6\pdl\drivers/peripheral/tcpwm/cy_tcpwm.h **** *     <td>Added a deviation to the MISRA Compliance section.
 206:Generated_Source\PSoC6\pdl\drivers/peripheral/tcpwm/cy_tcpwm.h **** *         Added function-level code snippets.</td>
 207:Generated_Source\PSoC6\pdl\drivers/peripheral/tcpwm/cy_tcpwm.h **** *     <td>Documentation update and clarification</td>
 208:Generated_Source\PSoC6\pdl\drivers/peripheral/tcpwm/cy_tcpwm.h **** *   </tr>
 209:Generated_Source\PSoC6\pdl\drivers/peripheral/tcpwm/cy_tcpwm.h **** *   <tr>
 210:Generated_Source\PSoC6\pdl\drivers/peripheral/tcpwm/cy_tcpwm.h **** *     <td>1.0</td>
 211:Generated_Source\PSoC6\pdl\drivers/peripheral/tcpwm/cy_tcpwm.h **** *     <td>Initial version</td>
 212:Generated_Source\PSoC6\pdl\drivers/peripheral/tcpwm/cy_tcpwm.h **** *     <td></td>
 213:Generated_Source\PSoC6\pdl\drivers/peripheral/tcpwm/cy_tcpwm.h **** *   </tr>
 214:Generated_Source\PSoC6\pdl\drivers/peripheral/tcpwm/cy_tcpwm.h **** * </table>
 215:Generated_Source\PSoC6\pdl\drivers/peripheral/tcpwm/cy_tcpwm.h **** */
 216:Generated_Source\PSoC6\pdl\drivers/peripheral/tcpwm/cy_tcpwm.h **** 
 217:Generated_Source\PSoC6\pdl\drivers/peripheral/tcpwm/cy_tcpwm.h **** /** \} group_tcpwm */
 218:Generated_Source\PSoC6\pdl\drivers/peripheral/tcpwm/cy_tcpwm.h **** 
 219:Generated_Source\PSoC6\pdl\drivers/peripheral/tcpwm/cy_tcpwm.h **** /**
 220:Generated_Source\PSoC6\pdl\drivers/peripheral/tcpwm/cy_tcpwm.h **** * \addtogroup group_tcpwm_common
 221:Generated_Source\PSoC6\pdl\drivers/peripheral/tcpwm/cy_tcpwm.h **** * Common API for the Timer Counter PWM Block.
 222:Generated_Source\PSoC6\pdl\drivers/peripheral/tcpwm/cy_tcpwm.h **** *
 223:Generated_Source\PSoC6\pdl\drivers/peripheral/tcpwm/cy_tcpwm.h **** * This is the common API that provides an interface to the TCPWM hardware.
 224:Generated_Source\PSoC6\pdl\drivers/peripheral/tcpwm/cy_tcpwm.h **** * The Timer Counter, PWM, and Quadrature Decoder drivers use this common API.
 225:Generated_Source\PSoC6\pdl\drivers/peripheral/tcpwm/cy_tcpwm.h **** * Most users will use individual drivers and do not need to use the common
 226:Generated_Source\PSoC6\pdl\drivers/peripheral/tcpwm/cy_tcpwm.h **** * API for the TCPWM.
 227:Generated_Source\PSoC6\pdl\drivers/peripheral/tcpwm/cy_tcpwm.h **** *
 228:Generated_Source\PSoC6\pdl\drivers/peripheral/tcpwm/cy_tcpwm.h **** * The functions and other declarations used in this part of the driver are in cy_tcpwm.h. 
 229:Generated_Source\PSoC6\pdl\drivers/peripheral/tcpwm/cy_tcpwm.h **** * Include either of cy_tcpwm_counter.h, cy_tcpwm_pwm.h, cy_tcpwm_quaddec.h 
 230:Generated_Source\PSoC6\pdl\drivers/peripheral/tcpwm/cy_tcpwm.h **** * depending on the desired functionality. You can also include cy_pdl.h 
 231:Generated_Source\PSoC6\pdl\drivers/peripheral/tcpwm/cy_tcpwm.h **** * to get access to all functions and declarations in the PDL.
 232:Generated_Source\PSoC6\pdl\drivers/peripheral/tcpwm/cy_tcpwm.h **** *
 233:Generated_Source\PSoC6\pdl\drivers/peripheral/tcpwm/cy_tcpwm.h **** * \{
 234:Generated_Source\PSoC6\pdl\drivers/peripheral/tcpwm/cy_tcpwm.h **** * \defgroup group_tcpwm_macros_common           Macros
 235:Generated_Source\PSoC6\pdl\drivers/peripheral/tcpwm/cy_tcpwm.h **** * \defgroup group_tcpwm_functions_common        Functions
 236:Generated_Source\PSoC6\pdl\drivers/peripheral/tcpwm/cy_tcpwm.h **** * \defgroup group_tcpwm_data_structures_common  Data Structures
 237:Generated_Source\PSoC6\pdl\drivers/peripheral/tcpwm/cy_tcpwm.h **** * \defgroup group_tcpwm_enums Enumerated Types
 238:Generated_Source\PSoC6\pdl\drivers/peripheral/tcpwm/cy_tcpwm.h **** */
ARM GAS  C:\Users\seeho\AppData\Local\Temp\ccUkk7Dc.s 			page 70


 239:Generated_Source\PSoC6\pdl\drivers/peripheral/tcpwm/cy_tcpwm.h **** 
 240:Generated_Source\PSoC6\pdl\drivers/peripheral/tcpwm/cy_tcpwm.h **** 
 241:Generated_Source\PSoC6\pdl\drivers/peripheral/tcpwm/cy_tcpwm.h **** #if !defined(CY_TCPWM_H)
 242:Generated_Source\PSoC6\pdl\drivers/peripheral/tcpwm/cy_tcpwm.h **** #define CY_TCPWM_H
 243:Generated_Source\PSoC6\pdl\drivers/peripheral/tcpwm/cy_tcpwm.h **** 
 244:Generated_Source\PSoC6\pdl\drivers/peripheral/tcpwm/cy_tcpwm.h **** #include <stdint.h>
 245:Generated_Source\PSoC6\pdl\drivers/peripheral/tcpwm/cy_tcpwm.h **** #include <stdbool.h>
 246:Generated_Source\PSoC6\pdl\drivers/peripheral/tcpwm/cy_tcpwm.h **** #include <stddef.h>
 247:Generated_Source\PSoC6\pdl\drivers/peripheral/tcpwm/cy_tcpwm.h **** #include "cy_syslib.h"
 248:Generated_Source\PSoC6\pdl\drivers/peripheral/tcpwm/cy_tcpwm.h **** #include "cy_device_headers.h"
 249:Generated_Source\PSoC6\pdl\drivers/peripheral/tcpwm/cy_tcpwm.h **** #include "cy_device.h"
 250:Generated_Source\PSoC6\pdl\drivers/peripheral/tcpwm/cy_tcpwm.h **** 
 251:Generated_Source\PSoC6\pdl\drivers/peripheral/tcpwm/cy_tcpwm.h **** #ifdef CY_IP_MXTCPWM
 252:Generated_Source\PSoC6\pdl\drivers/peripheral/tcpwm/cy_tcpwm.h **** 
 253:Generated_Source\PSoC6\pdl\drivers/peripheral/tcpwm/cy_tcpwm.h **** #if defined(__cplusplus)
 254:Generated_Source\PSoC6\pdl\drivers/peripheral/tcpwm/cy_tcpwm.h **** extern "C" {
 255:Generated_Source\PSoC6\pdl\drivers/peripheral/tcpwm/cy_tcpwm.h **** #endif
 256:Generated_Source\PSoC6\pdl\drivers/peripheral/tcpwm/cy_tcpwm.h **** 
 257:Generated_Source\PSoC6\pdl\drivers/peripheral/tcpwm/cy_tcpwm.h **** /**
 258:Generated_Source\PSoC6\pdl\drivers/peripheral/tcpwm/cy_tcpwm.h **** * \addtogroup group_tcpwm_macros_common
 259:Generated_Source\PSoC6\pdl\drivers/peripheral/tcpwm/cy_tcpwm.h **** * \{
 260:Generated_Source\PSoC6\pdl\drivers/peripheral/tcpwm/cy_tcpwm.h **** */
 261:Generated_Source\PSoC6\pdl\drivers/peripheral/tcpwm/cy_tcpwm.h **** 
 262:Generated_Source\PSoC6\pdl\drivers/peripheral/tcpwm/cy_tcpwm.h **** /** Driver major version */
 263:Generated_Source\PSoC6\pdl\drivers/peripheral/tcpwm/cy_tcpwm.h **** #define CY_TCPWM_DRV_VERSION_MAJOR       1
 264:Generated_Source\PSoC6\pdl\drivers/peripheral/tcpwm/cy_tcpwm.h **** 
 265:Generated_Source\PSoC6\pdl\drivers/peripheral/tcpwm/cy_tcpwm.h **** /** Driver minor version */
 266:Generated_Source\PSoC6\pdl\drivers/peripheral/tcpwm/cy_tcpwm.h **** #define CY_TCPWM_DRV_VERSION_MINOR       10
 267:Generated_Source\PSoC6\pdl\drivers/peripheral/tcpwm/cy_tcpwm.h **** 
 268:Generated_Source\PSoC6\pdl\drivers/peripheral/tcpwm/cy_tcpwm.h **** 
 269:Generated_Source\PSoC6\pdl\drivers/peripheral/tcpwm/cy_tcpwm.h **** /******************************************************************************
 270:Generated_Source\PSoC6\pdl\drivers/peripheral/tcpwm/cy_tcpwm.h **** * API Constants
 271:Generated_Source\PSoC6\pdl\drivers/peripheral/tcpwm/cy_tcpwm.h **** ******************************************************************************/
 272:Generated_Source\PSoC6\pdl\drivers/peripheral/tcpwm/cy_tcpwm.h **** 
 273:Generated_Source\PSoC6\pdl\drivers/peripheral/tcpwm/cy_tcpwm.h **** /** TCPWM driver identifier */
 274:Generated_Source\PSoC6\pdl\drivers/peripheral/tcpwm/cy_tcpwm.h **** #define CY_TCPWM_ID                     (CY_PDL_DRV_ID(0x2DU))
 275:Generated_Source\PSoC6\pdl\drivers/peripheral/tcpwm/cy_tcpwm.h **** 
 276:Generated_Source\PSoC6\pdl\drivers/peripheral/tcpwm/cy_tcpwm.h **** /** \defgroup group_tcpwm_input_selection  TCPWM Input Selection
 277:Generated_Source\PSoC6\pdl\drivers/peripheral/tcpwm/cy_tcpwm.h **** * \{
 278:Generated_Source\PSoC6\pdl\drivers/peripheral/tcpwm/cy_tcpwm.h **** * Selects which input to use
 279:Generated_Source\PSoC6\pdl\drivers/peripheral/tcpwm/cy_tcpwm.h **** */
 280:Generated_Source\PSoC6\pdl\drivers/peripheral/tcpwm/cy_tcpwm.h **** #define CY_TCPWM_INPUT_0                (0U)  /**< Input is tied to logic 0 */
 281:Generated_Source\PSoC6\pdl\drivers/peripheral/tcpwm/cy_tcpwm.h **** #define CY_TCPWM_INPUT_1                (1U)  /**< Input is tied to logic 1 */
 282:Generated_Source\PSoC6\pdl\drivers/peripheral/tcpwm/cy_tcpwm.h **** #define CY_TCPWM_INPUT_TRIG_0           (2U)  /**< Input is connected to the trigger input 0 */
 283:Generated_Source\PSoC6\pdl\drivers/peripheral/tcpwm/cy_tcpwm.h **** #define CY_TCPWM_INPUT_TRIG_1           (3U)  /**< Input is connected to the trigger input 1 */
 284:Generated_Source\PSoC6\pdl\drivers/peripheral/tcpwm/cy_tcpwm.h **** #define CY_TCPWM_INPUT_TRIG_2           (4U)  /**< Input is connected to the trigger input 2 */
 285:Generated_Source\PSoC6\pdl\drivers/peripheral/tcpwm/cy_tcpwm.h **** #define CY_TCPWM_INPUT_TRIG_3           (5U)  /**< Input is connected to the trigger input 3 */
 286:Generated_Source\PSoC6\pdl\drivers/peripheral/tcpwm/cy_tcpwm.h **** #define CY_TCPWM_INPUT_TRIG_4           (6U)  /**< Input is connected to the trigger input 4 */
 287:Generated_Source\PSoC6\pdl\drivers/peripheral/tcpwm/cy_tcpwm.h **** #define CY_TCPWM_INPUT_TRIG_5           (7U)  /**< Input is connected to the trigger input 5 */
 288:Generated_Source\PSoC6\pdl\drivers/peripheral/tcpwm/cy_tcpwm.h **** #define CY_TCPWM_INPUT_TRIG_6           (8U)  /**< Input is connected to the trigger input 6 */
 289:Generated_Source\PSoC6\pdl\drivers/peripheral/tcpwm/cy_tcpwm.h **** #define CY_TCPWM_INPUT_TRIG_7           (9U)  /**< Input is connected to the trigger input 7 */
 290:Generated_Source\PSoC6\pdl\drivers/peripheral/tcpwm/cy_tcpwm.h **** #define CY_TCPWM_INPUT_TRIG_8           (10U) /**< Input is connected to the trigger input 8 */
 291:Generated_Source\PSoC6\pdl\drivers/peripheral/tcpwm/cy_tcpwm.h **** #define CY_TCPWM_INPUT_TRIG_9           (11U) /**< Input is connected to the trigger input 9 */
 292:Generated_Source\PSoC6\pdl\drivers/peripheral/tcpwm/cy_tcpwm.h **** #define CY_TCPWM_INPUT_TRIG_10          (12U) /**< Input is connected to the trigger input 10 */
 293:Generated_Source\PSoC6\pdl\drivers/peripheral/tcpwm/cy_tcpwm.h **** #define CY_TCPWM_INPUT_TRIG_11          (13U) /**< Input is connected to the trigger input 11 */
 294:Generated_Source\PSoC6\pdl\drivers/peripheral/tcpwm/cy_tcpwm.h **** #define CY_TCPWM_INPUT_TRIG_12          (14U) /**< Input is connected to the trigger input 12 */
 295:Generated_Source\PSoC6\pdl\drivers/peripheral/tcpwm/cy_tcpwm.h **** #define CY_TCPWM_INPUT_TRIG_13          (15U) /**< Input is connected to the trigger input 13 */
ARM GAS  C:\Users\seeho\AppData\Local\Temp\ccUkk7Dc.s 			page 71


 296:Generated_Source\PSoC6\pdl\drivers/peripheral/tcpwm/cy_tcpwm.h **** 
 297:Generated_Source\PSoC6\pdl\drivers/peripheral/tcpwm/cy_tcpwm.h **** /** Input is defined by Creator, and Init() function does not need to configure input */
 298:Generated_Source\PSoC6\pdl\drivers/peripheral/tcpwm/cy_tcpwm.h **** #define CY_TCPWM_INPUT_CREATOR          (0xFFFFFFFFU)
 299:Generated_Source\PSoC6\pdl\drivers/peripheral/tcpwm/cy_tcpwm.h **** /** \} group_tcpwm_input_selection */
 300:Generated_Source\PSoC6\pdl\drivers/peripheral/tcpwm/cy_tcpwm.h **** 
 301:Generated_Source\PSoC6\pdl\drivers/peripheral/tcpwm/cy_tcpwm.h **** /**
 302:Generated_Source\PSoC6\pdl\drivers/peripheral/tcpwm/cy_tcpwm.h **** * \defgroup group_tcpwm_input_modes  Input Modes
 303:Generated_Source\PSoC6\pdl\drivers/peripheral/tcpwm/cy_tcpwm.h **** * \{
 304:Generated_Source\PSoC6\pdl\drivers/peripheral/tcpwm/cy_tcpwm.h **** * Configures how TCPWM inputs behave
 305:Generated_Source\PSoC6\pdl\drivers/peripheral/tcpwm/cy_tcpwm.h **** */
 306:Generated_Source\PSoC6\pdl\drivers/peripheral/tcpwm/cy_tcpwm.h **** /** A rising edge triggers the event (Capture, Start, Reload, etc..) */
 307:Generated_Source\PSoC6\pdl\drivers/peripheral/tcpwm/cy_tcpwm.h **** #define CY_TCPWM_INPUT_RISINGEDGE       (0U)
 308:Generated_Source\PSoC6\pdl\drivers/peripheral/tcpwm/cy_tcpwm.h **** /** A falling edge triggers the event (Capture, Start, Reload, etc..) */
 309:Generated_Source\PSoC6\pdl\drivers/peripheral/tcpwm/cy_tcpwm.h **** #define CY_TCPWM_INPUT_FALLINGEDGE      (1U)
 310:Generated_Source\PSoC6\pdl\drivers/peripheral/tcpwm/cy_tcpwm.h **** /** A rising edge or falling edge triggers the event (Capture, Start, Reload, etc..) */
 311:Generated_Source\PSoC6\pdl\drivers/peripheral/tcpwm/cy_tcpwm.h **** #define CY_TCPWM_INPUT_EITHEREDGE       (2U)
 312:Generated_Source\PSoC6\pdl\drivers/peripheral/tcpwm/cy_tcpwm.h **** /** The event is triggered on each edge of the TCPWM clock if the input is high */
 313:Generated_Source\PSoC6\pdl\drivers/peripheral/tcpwm/cy_tcpwm.h **** #define CY_TCPWM_INPUT_LEVEL            (3U)
 314:Generated_Source\PSoC6\pdl\drivers/peripheral/tcpwm/cy_tcpwm.h **** /** \} group_tcpwm_input_modes */
 315:Generated_Source\PSoC6\pdl\drivers/peripheral/tcpwm/cy_tcpwm.h **** 
 316:Generated_Source\PSoC6\pdl\drivers/peripheral/tcpwm/cy_tcpwm.h **** /**
 317:Generated_Source\PSoC6\pdl\drivers/peripheral/tcpwm/cy_tcpwm.h **** * \defgroup group_tcpwm_interrupt_sources  Interrupt Sources
 318:Generated_Source\PSoC6\pdl\drivers/peripheral/tcpwm/cy_tcpwm.h **** * \{
 319:Generated_Source\PSoC6\pdl\drivers/peripheral/tcpwm/cy_tcpwm.h **** * Interrupt Sources 
 320:Generated_Source\PSoC6\pdl\drivers/peripheral/tcpwm/cy_tcpwm.h **** */
 321:Generated_Source\PSoC6\pdl\drivers/peripheral/tcpwm/cy_tcpwm.h **** #define CY_TCPWM_INT_ON_TC              (1U) /**< Interrupt on Terminal count(TC) */
 322:Generated_Source\PSoC6\pdl\drivers/peripheral/tcpwm/cy_tcpwm.h **** #define CY_TCPWM_INT_ON_CC              (2U) /**< Interrupt on Compare/Capture(CC) */
 323:Generated_Source\PSoC6\pdl\drivers/peripheral/tcpwm/cy_tcpwm.h **** #define CY_TCPWM_INT_NONE               (0U) /**< No Interrupt */
 324:Generated_Source\PSoC6\pdl\drivers/peripheral/tcpwm/cy_tcpwm.h **** #define CY_TCPWM_INT_ON_CC_OR_TC        (3U) /**< Interrupt on TC or CC */
 325:Generated_Source\PSoC6\pdl\drivers/peripheral/tcpwm/cy_tcpwm.h **** /** \} group_tcpwm_interrupt_sources */
 326:Generated_Source\PSoC6\pdl\drivers/peripheral/tcpwm/cy_tcpwm.h **** 
 327:Generated_Source\PSoC6\pdl\drivers/peripheral/tcpwm/cy_tcpwm.h **** 
 328:Generated_Source\PSoC6\pdl\drivers/peripheral/tcpwm/cy_tcpwm.h **** /***************************************
 329:Generated_Source\PSoC6\pdl\drivers/peripheral/tcpwm/cy_tcpwm.h **** *        Registers Constants
 330:Generated_Source\PSoC6\pdl\drivers/peripheral/tcpwm/cy_tcpwm.h **** ***************************************/
 331:Generated_Source\PSoC6\pdl\drivers/peripheral/tcpwm/cy_tcpwm.h **** 
 332:Generated_Source\PSoC6\pdl\drivers/peripheral/tcpwm/cy_tcpwm.h **** /**
 333:Generated_Source\PSoC6\pdl\drivers/peripheral/tcpwm/cy_tcpwm.h **** * \defgroup group_tcpwm_reg_const Default registers constants
 334:Generated_Source\PSoC6\pdl\drivers/peripheral/tcpwm/cy_tcpwm.h **** * \{
 335:Generated_Source\PSoC6\pdl\drivers/peripheral/tcpwm/cy_tcpwm.h **** * Default constants for CNT Registers
 336:Generated_Source\PSoC6\pdl\drivers/peripheral/tcpwm/cy_tcpwm.h **** */
 337:Generated_Source\PSoC6\pdl\drivers/peripheral/tcpwm/cy_tcpwm.h **** #define CY_TCPWM_CNT_CTRL_DEFAULT           (0x0U) /**< Default value for CTRL register */
 338:Generated_Source\PSoC6\pdl\drivers/peripheral/tcpwm/cy_tcpwm.h **** #define CY_TCPWM_CNT_COUNTER_DEFAULT        (0x0U) /**< Default value for COUNTER register */
 339:Generated_Source\PSoC6\pdl\drivers/peripheral/tcpwm/cy_tcpwm.h **** #define CY_TCPWM_CNT_CC_DEFAULT             (0xFFFFFFFFU) /**< Default value for CC register */
 340:Generated_Source\PSoC6\pdl\drivers/peripheral/tcpwm/cy_tcpwm.h **** #define CY_TCPWM_CNT_CC_BUFF_DEFAULT        (0xFFFFFFFFU) /**< Default value for CC_BUFF register *
 341:Generated_Source\PSoC6\pdl\drivers/peripheral/tcpwm/cy_tcpwm.h **** #define CY_TCPWM_CNT_PERIOD_DEFAULT         (0xFFFFFFFFU) /**< Default value for PERIOD register */
 342:Generated_Source\PSoC6\pdl\drivers/peripheral/tcpwm/cy_tcpwm.h **** #define CY_TCPWM_CNT_PERIOD_BUFF_DEFAULT    (0xFFFFFFFFU) /**< Default value for PERIOD_BUFF regist
 343:Generated_Source\PSoC6\pdl\drivers/peripheral/tcpwm/cy_tcpwm.h **** #define CY_TCPWM_CNT_TR_CTRL0_DEFAULT       (0x10U)  /**< Default value for TR_CTRL0 register */
 344:Generated_Source\PSoC6\pdl\drivers/peripheral/tcpwm/cy_tcpwm.h **** #define CY_TCPWM_CNT_TR_CTRL1_DEFAULT       (0x3FFU) /**< Default value for TR_CTRL1 register */
 345:Generated_Source\PSoC6\pdl\drivers/peripheral/tcpwm/cy_tcpwm.h **** #define CY_TCPWM_CNT_TR_CTRL2_DEFAULT       (0x3FU)  /**< Default value for TR_CTRL2 register */
 346:Generated_Source\PSoC6\pdl\drivers/peripheral/tcpwm/cy_tcpwm.h **** #define CY_TCPWM_CNT_INTR_DEFAULT           (0x3U)   /**< Default value for INTR register */
 347:Generated_Source\PSoC6\pdl\drivers/peripheral/tcpwm/cy_tcpwm.h **** #define CY_TCPWM_CNT_INTR_SET_DEFAULT       (0x0U)   /**< Default value for INTR_SET register */
 348:Generated_Source\PSoC6\pdl\drivers/peripheral/tcpwm/cy_tcpwm.h **** #define CY_TCPWM_CNT_INTR_MASK_DEFAULT      (0x0U)   /**< Default value for INTR_MASK register */
 349:Generated_Source\PSoC6\pdl\drivers/peripheral/tcpwm/cy_tcpwm.h **** /** \} group_tcpwm_reg_const */
 350:Generated_Source\PSoC6\pdl\drivers/peripheral/tcpwm/cy_tcpwm.h **** 
 351:Generated_Source\PSoC6\pdl\drivers/peripheral/tcpwm/cy_tcpwm.h **** /** Position of Up counting counter status */
 352:Generated_Source\PSoC6\pdl\drivers/peripheral/tcpwm/cy_tcpwm.h **** #define CY_TCPWM_CNT_STATUS_UP_POS          (0x1U)
ARM GAS  C:\Users\seeho\AppData\Local\Temp\ccUkk7Dc.s 			page 72


 353:Generated_Source\PSoC6\pdl\drivers/peripheral/tcpwm/cy_tcpwm.h **** /** Initial value for the counter in the Up counting mode */
 354:Generated_Source\PSoC6\pdl\drivers/peripheral/tcpwm/cy_tcpwm.h **** #define CY_TCPWM_CNT_UP_INIT_VAL            (0x0U)
 355:Generated_Source\PSoC6\pdl\drivers/peripheral/tcpwm/cy_tcpwm.h **** /** Initial value for the counter in the Up/Down counting modes */
 356:Generated_Source\PSoC6\pdl\drivers/peripheral/tcpwm/cy_tcpwm.h **** #define CY_TCPWM_CNT_UP_DOWN_INIT_VAL       (0x1U)
 357:Generated_Source\PSoC6\pdl\drivers/peripheral/tcpwm/cy_tcpwm.h **** /** \} group_tcpwm_macros_common */
 358:Generated_Source\PSoC6\pdl\drivers/peripheral/tcpwm/cy_tcpwm.h **** 
 359:Generated_Source\PSoC6\pdl\drivers/peripheral/tcpwm/cy_tcpwm.h **** 
 360:Generated_Source\PSoC6\pdl\drivers/peripheral/tcpwm/cy_tcpwm.h **** /*******************************************************************************
 361:Generated_Source\PSoC6\pdl\drivers/peripheral/tcpwm/cy_tcpwm.h ****  * Enumerations
 362:Generated_Source\PSoC6\pdl\drivers/peripheral/tcpwm/cy_tcpwm.h ****  ******************************************************************************/
 363:Generated_Source\PSoC6\pdl\drivers/peripheral/tcpwm/cy_tcpwm.h **** 
 364:Generated_Source\PSoC6\pdl\drivers/peripheral/tcpwm/cy_tcpwm.h ****  /**
 365:Generated_Source\PSoC6\pdl\drivers/peripheral/tcpwm/cy_tcpwm.h **** * \addtogroup group_tcpwm_enums
 366:Generated_Source\PSoC6\pdl\drivers/peripheral/tcpwm/cy_tcpwm.h **** * \{
 367:Generated_Source\PSoC6\pdl\drivers/peripheral/tcpwm/cy_tcpwm.h **** */
 368:Generated_Source\PSoC6\pdl\drivers/peripheral/tcpwm/cy_tcpwm.h **** 
 369:Generated_Source\PSoC6\pdl\drivers/peripheral/tcpwm/cy_tcpwm.h **** /** TCPWM status definitions */
 370:Generated_Source\PSoC6\pdl\drivers/peripheral/tcpwm/cy_tcpwm.h **** typedef enum 
 371:Generated_Source\PSoC6\pdl\drivers/peripheral/tcpwm/cy_tcpwm.h **** {
 372:Generated_Source\PSoC6\pdl\drivers/peripheral/tcpwm/cy_tcpwm.h ****     CY_TCPWM_SUCCESS = 0x00U,                                           /**< Successful */
 373:Generated_Source\PSoC6\pdl\drivers/peripheral/tcpwm/cy_tcpwm.h ****     CY_TCPWM_BAD_PARAM = CY_TCPWM_ID | CY_PDL_STATUS_ERROR | 0x01U,     /**< One or more invalid pa
 374:Generated_Source\PSoC6\pdl\drivers/peripheral/tcpwm/cy_tcpwm.h **** } cy_en_tcpwm_status_t;
 375:Generated_Source\PSoC6\pdl\drivers/peripheral/tcpwm/cy_tcpwm.h **** /** \} group_tcpwm_enums */
 376:Generated_Source\PSoC6\pdl\drivers/peripheral/tcpwm/cy_tcpwm.h ****  
 377:Generated_Source\PSoC6\pdl\drivers/peripheral/tcpwm/cy_tcpwm.h **** /*******************************************************************************
 378:Generated_Source\PSoC6\pdl\drivers/peripheral/tcpwm/cy_tcpwm.h **** *        Function Prototypes
 379:Generated_Source\PSoC6\pdl\drivers/peripheral/tcpwm/cy_tcpwm.h **** *******************************************************************************/
 380:Generated_Source\PSoC6\pdl\drivers/peripheral/tcpwm/cy_tcpwm.h **** 
 381:Generated_Source\PSoC6\pdl\drivers/peripheral/tcpwm/cy_tcpwm.h **** /**
 382:Generated_Source\PSoC6\pdl\drivers/peripheral/tcpwm/cy_tcpwm.h **** * \addtogroup group_tcpwm_functions_common
 383:Generated_Source\PSoC6\pdl\drivers/peripheral/tcpwm/cy_tcpwm.h **** * \{
 384:Generated_Source\PSoC6\pdl\drivers/peripheral/tcpwm/cy_tcpwm.h **** */
 385:Generated_Source\PSoC6\pdl\drivers/peripheral/tcpwm/cy_tcpwm.h **** 
 386:Generated_Source\PSoC6\pdl\drivers/peripheral/tcpwm/cy_tcpwm.h **** __STATIC_INLINE void Cy_TCPWM_Enable_Multiple(TCPWM_Type *base, uint32_t counters);
 387:Generated_Source\PSoC6\pdl\drivers/peripheral/tcpwm/cy_tcpwm.h **** __STATIC_INLINE void Cy_TCPWM_Disable_Multiple(TCPWM_Type *base, uint32_t counters);
 388:Generated_Source\PSoC6\pdl\drivers/peripheral/tcpwm/cy_tcpwm.h **** __STATIC_INLINE void Cy_TCPWM_TriggerStart(TCPWM_Type *base, uint32_t counters);
 389:Generated_Source\PSoC6\pdl\drivers/peripheral/tcpwm/cy_tcpwm.h **** __STATIC_INLINE void Cy_TCPWM_TriggerReloadOrIndex(TCPWM_Type *base, uint32_t counters);
 390:Generated_Source\PSoC6\pdl\drivers/peripheral/tcpwm/cy_tcpwm.h **** __STATIC_INLINE void Cy_TCPWM_TriggerStopOrKill(TCPWM_Type *base, uint32_t counters);
 391:Generated_Source\PSoC6\pdl\drivers/peripheral/tcpwm/cy_tcpwm.h **** __STATIC_INLINE void Cy_TCPWM_TriggerCaptureOrSwap(TCPWM_Type *base, uint32_t counters);
 392:Generated_Source\PSoC6\pdl\drivers/peripheral/tcpwm/cy_tcpwm.h **** __STATIC_INLINE uint32_t Cy_TCPWM_GetInterruptStatus(TCPWM_Type const *base, uint32_t cntNum);
 393:Generated_Source\PSoC6\pdl\drivers/peripheral/tcpwm/cy_tcpwm.h **** __STATIC_INLINE void Cy_TCPWM_ClearInterrupt(TCPWM_Type *base, uint32_t cntNum, uint32_t source);
 394:Generated_Source\PSoC6\pdl\drivers/peripheral/tcpwm/cy_tcpwm.h **** __STATIC_INLINE void Cy_TCPWM_SetInterrupt(TCPWM_Type *base, uint32_t cntNum, uint32_t source);
 395:Generated_Source\PSoC6\pdl\drivers/peripheral/tcpwm/cy_tcpwm.h **** __STATIC_INLINE void Cy_TCPWM_SetInterruptMask(TCPWM_Type *base, uint32_t cntNum, uint32_t mask);
 396:Generated_Source\PSoC6\pdl\drivers/peripheral/tcpwm/cy_tcpwm.h **** __STATIC_INLINE uint32_t Cy_TCPWM_GetInterruptMask(TCPWM_Type const *base, uint32_t cntNum);
 397:Generated_Source\PSoC6\pdl\drivers/peripheral/tcpwm/cy_tcpwm.h **** __STATIC_INLINE uint32_t Cy_TCPWM_GetInterruptStatusMasked(TCPWM_Type const *base, uint32_t cntNum)
 398:Generated_Source\PSoC6\pdl\drivers/peripheral/tcpwm/cy_tcpwm.h **** 
 399:Generated_Source\PSoC6\pdl\drivers/peripheral/tcpwm/cy_tcpwm.h **** 
 400:Generated_Source\PSoC6\pdl\drivers/peripheral/tcpwm/cy_tcpwm.h **** /*******************************************************************************
 401:Generated_Source\PSoC6\pdl\drivers/peripheral/tcpwm/cy_tcpwm.h **** * Function Name: Cy_TCPWM_Enable_Multiple
 402:Generated_Source\PSoC6\pdl\drivers/peripheral/tcpwm/cy_tcpwm.h **** ****************************************************************************//**
 403:Generated_Source\PSoC6\pdl\drivers/peripheral/tcpwm/cy_tcpwm.h **** *
 404:Generated_Source\PSoC6\pdl\drivers/peripheral/tcpwm/cy_tcpwm.h **** * Enables the counter(s) in the TCPWM block. Multiple blocks can be started 
 405:Generated_Source\PSoC6\pdl\drivers/peripheral/tcpwm/cy_tcpwm.h **** * simultaneously.
 406:Generated_Source\PSoC6\pdl\drivers/peripheral/tcpwm/cy_tcpwm.h **** *
 407:Generated_Source\PSoC6\pdl\drivers/peripheral/tcpwm/cy_tcpwm.h **** * \param base
 408:Generated_Source\PSoC6\pdl\drivers/peripheral/tcpwm/cy_tcpwm.h **** * The pointer to a TCPWM instance.
 409:Generated_Source\PSoC6\pdl\drivers/peripheral/tcpwm/cy_tcpwm.h **** *
ARM GAS  C:\Users\seeho\AppData\Local\Temp\ccUkk7Dc.s 			page 73


 410:Generated_Source\PSoC6\pdl\drivers/peripheral/tcpwm/cy_tcpwm.h **** * \param counters
 411:Generated_Source\PSoC6\pdl\drivers/peripheral/tcpwm/cy_tcpwm.h **** * A bit field representing each counter in the TCPWM block.
 412:Generated_Source\PSoC6\pdl\drivers/peripheral/tcpwm/cy_tcpwm.h **** *
 413:Generated_Source\PSoC6\pdl\drivers/peripheral/tcpwm/cy_tcpwm.h **** * \funcusage
 414:Generated_Source\PSoC6\pdl\drivers/peripheral/tcpwm/cy_tcpwm.h **** * \snippet tcpwm\1.10\counter\snippet\main.c snippet_Cy_TCPWM_Enable_Multiple
 415:Generated_Source\PSoC6\pdl\drivers/peripheral/tcpwm/cy_tcpwm.h **** *
 416:Generated_Source\PSoC6\pdl\drivers/peripheral/tcpwm/cy_tcpwm.h **** *******************************************************************************/
 417:Generated_Source\PSoC6\pdl\drivers/peripheral/tcpwm/cy_tcpwm.h **** __STATIC_INLINE void Cy_TCPWM_Enable_Multiple(TCPWM_Type *base, uint32_t counters)
 418:Generated_Source\PSoC6\pdl\drivers/peripheral/tcpwm/cy_tcpwm.h **** {
 419:Generated_Source\PSoC6\pdl\drivers/peripheral/tcpwm/cy_tcpwm.h ****     TCPWM_CTRL_SET(base) = counters;
 420:Generated_Source\PSoC6\pdl\drivers/peripheral/tcpwm/cy_tcpwm.h **** }
 421:Generated_Source\PSoC6\pdl\drivers/peripheral/tcpwm/cy_tcpwm.h **** 
 422:Generated_Source\PSoC6\pdl\drivers/peripheral/tcpwm/cy_tcpwm.h **** 
 423:Generated_Source\PSoC6\pdl\drivers/peripheral/tcpwm/cy_tcpwm.h **** /*******************************************************************************
 424:Generated_Source\PSoC6\pdl\drivers/peripheral/tcpwm/cy_tcpwm.h **** * Function Name: Cy_TCPWM_Disable_Multiple
 425:Generated_Source\PSoC6\pdl\drivers/peripheral/tcpwm/cy_tcpwm.h **** ****************************************************************************//**
 426:Generated_Source\PSoC6\pdl\drivers/peripheral/tcpwm/cy_tcpwm.h **** *
 427:Generated_Source\PSoC6\pdl\drivers/peripheral/tcpwm/cy_tcpwm.h **** * Disables the counter(s) in the TCPWM block. Multiple TCPWM can be disabled 
 428:Generated_Source\PSoC6\pdl\drivers/peripheral/tcpwm/cy_tcpwm.h **** * simultaneously.
 429:Generated_Source\PSoC6\pdl\drivers/peripheral/tcpwm/cy_tcpwm.h **** *
 430:Generated_Source\PSoC6\pdl\drivers/peripheral/tcpwm/cy_tcpwm.h **** * \param base
 431:Generated_Source\PSoC6\pdl\drivers/peripheral/tcpwm/cy_tcpwm.h **** * The pointer to a TCPWM instance.
 432:Generated_Source\PSoC6\pdl\drivers/peripheral/tcpwm/cy_tcpwm.h **** *
 433:Generated_Source\PSoC6\pdl\drivers/peripheral/tcpwm/cy_tcpwm.h **** * \param counters
 434:Generated_Source\PSoC6\pdl\drivers/peripheral/tcpwm/cy_tcpwm.h **** * A bit field representing each counter in the TCPWM block.
 435:Generated_Source\PSoC6\pdl\drivers/peripheral/tcpwm/cy_tcpwm.h **** *
 436:Generated_Source\PSoC6\pdl\drivers/peripheral/tcpwm/cy_tcpwm.h **** * \funcusage
 437:Generated_Source\PSoC6\pdl\drivers/peripheral/tcpwm/cy_tcpwm.h **** * \snippet tcpwm\1.10\counter\snippet\main.c snippet_Cy_TCPWM_Disable_Multiple
 438:Generated_Source\PSoC6\pdl\drivers/peripheral/tcpwm/cy_tcpwm.h **** *
 439:Generated_Source\PSoC6\pdl\drivers/peripheral/tcpwm/cy_tcpwm.h **** *******************************************************************************/
 440:Generated_Source\PSoC6\pdl\drivers/peripheral/tcpwm/cy_tcpwm.h **** __STATIC_INLINE void Cy_TCPWM_Disable_Multiple(TCPWM_Type *base, uint32_t counters)
 441:Generated_Source\PSoC6\pdl\drivers/peripheral/tcpwm/cy_tcpwm.h **** {
 442:Generated_Source\PSoC6\pdl\drivers/peripheral/tcpwm/cy_tcpwm.h ****     TCPWM_CTRL_CLR(base) = counters;
 443:Generated_Source\PSoC6\pdl\drivers/peripheral/tcpwm/cy_tcpwm.h **** }
 444:Generated_Source\PSoC6\pdl\drivers/peripheral/tcpwm/cy_tcpwm.h **** 
 445:Generated_Source\PSoC6\pdl\drivers/peripheral/tcpwm/cy_tcpwm.h **** 
 446:Generated_Source\PSoC6\pdl\drivers/peripheral/tcpwm/cy_tcpwm.h **** /*******************************************************************************
 447:Generated_Source\PSoC6\pdl\drivers/peripheral/tcpwm/cy_tcpwm.h **** * Function Name: Cy_TCPWM_TriggerStart
 448:Generated_Source\PSoC6\pdl\drivers/peripheral/tcpwm/cy_tcpwm.h **** ****************************************************************************//**
 449:Generated_Source\PSoC6\pdl\drivers/peripheral/tcpwm/cy_tcpwm.h **** *
 450:Generated_Source\PSoC6\pdl\drivers/peripheral/tcpwm/cy_tcpwm.h **** * Triggers a software start on the selected TCPWMs.
 451:Generated_Source\PSoC6\pdl\drivers/peripheral/tcpwm/cy_tcpwm.h **** *
 452:Generated_Source\PSoC6\pdl\drivers/peripheral/tcpwm/cy_tcpwm.h **** * \param base
 453:Generated_Source\PSoC6\pdl\drivers/peripheral/tcpwm/cy_tcpwm.h **** * The pointer to a TCPWM instance.
 454:Generated_Source\PSoC6\pdl\drivers/peripheral/tcpwm/cy_tcpwm.h **** *
 455:Generated_Source\PSoC6\pdl\drivers/peripheral/tcpwm/cy_tcpwm.h **** * \param counters
 456:Generated_Source\PSoC6\pdl\drivers/peripheral/tcpwm/cy_tcpwm.h **** * A bit field representing each counter in the TCPWM block.
 457:Generated_Source\PSoC6\pdl\drivers/peripheral/tcpwm/cy_tcpwm.h **** *
 458:Generated_Source\PSoC6\pdl\drivers/peripheral/tcpwm/cy_tcpwm.h **** * \funcusage
 459:Generated_Source\PSoC6\pdl\drivers/peripheral/tcpwm/cy_tcpwm.h **** * \snippet tcpwm\1.10\counter\snippet\main.c snippet_Cy_TCPWM_Enable_Multiple
 460:Generated_Source\PSoC6\pdl\drivers/peripheral/tcpwm/cy_tcpwm.h **** *
 461:Generated_Source\PSoC6\pdl\drivers/peripheral/tcpwm/cy_tcpwm.h **** *******************************************************************************/
 462:Generated_Source\PSoC6\pdl\drivers/peripheral/tcpwm/cy_tcpwm.h **** __STATIC_INLINE  void Cy_TCPWM_TriggerStart(TCPWM_Type *base, uint32_t counters)
 463:Generated_Source\PSoC6\pdl\drivers/peripheral/tcpwm/cy_tcpwm.h **** {
 464:Generated_Source\PSoC6\pdl\drivers/peripheral/tcpwm/cy_tcpwm.h ****     TCPWM_CMD_START(base) = counters;
 465:Generated_Source\PSoC6\pdl\drivers/peripheral/tcpwm/cy_tcpwm.h **** }
 466:Generated_Source\PSoC6\pdl\drivers/peripheral/tcpwm/cy_tcpwm.h **** 
ARM GAS  C:\Users\seeho\AppData\Local\Temp\ccUkk7Dc.s 			page 74


 467:Generated_Source\PSoC6\pdl\drivers/peripheral/tcpwm/cy_tcpwm.h **** 
 468:Generated_Source\PSoC6\pdl\drivers/peripheral/tcpwm/cy_tcpwm.h **** /*******************************************************************************
 469:Generated_Source\PSoC6\pdl\drivers/peripheral/tcpwm/cy_tcpwm.h **** * Function Name: Cy_TCPWM_TriggerReloadOrIndex
 470:Generated_Source\PSoC6\pdl\drivers/peripheral/tcpwm/cy_tcpwm.h **** ****************************************************************************//**
 471:Generated_Source\PSoC6\pdl\drivers/peripheral/tcpwm/cy_tcpwm.h **** *
 472:Generated_Source\PSoC6\pdl\drivers/peripheral/tcpwm/cy_tcpwm.h **** * Triggers a software reload event (or index in QuadDec mode).
 473:Generated_Source\PSoC6\pdl\drivers/peripheral/tcpwm/cy_tcpwm.h **** *
 474:Generated_Source\PSoC6\pdl\drivers/peripheral/tcpwm/cy_tcpwm.h **** * \param base
 475:Generated_Source\PSoC6\pdl\drivers/peripheral/tcpwm/cy_tcpwm.h **** * The pointer to a TCPWM instance
 476:Generated_Source\PSoC6\pdl\drivers/peripheral/tcpwm/cy_tcpwm.h **** *
 477:Generated_Source\PSoC6\pdl\drivers/peripheral/tcpwm/cy_tcpwm.h **** * \param counters
 478:Generated_Source\PSoC6\pdl\drivers/peripheral/tcpwm/cy_tcpwm.h **** * A bit field representing each counter in the TCPWM block.
 479:Generated_Source\PSoC6\pdl\drivers/peripheral/tcpwm/cy_tcpwm.h **** *
 480:Generated_Source\PSoC6\pdl\drivers/peripheral/tcpwm/cy_tcpwm.h **** * \funcusage
 481:Generated_Source\PSoC6\pdl\drivers/peripheral/tcpwm/cy_tcpwm.h **** * \snippet tcpwm\1.10\counter\snippet\main.c snippet_Cy_TCPWM_TriggerReloadOrIndex
 482:Generated_Source\PSoC6\pdl\drivers/peripheral/tcpwm/cy_tcpwm.h **** *
 483:Generated_Source\PSoC6\pdl\drivers/peripheral/tcpwm/cy_tcpwm.h **** *******************************************************************************/
 484:Generated_Source\PSoC6\pdl\drivers/peripheral/tcpwm/cy_tcpwm.h **** __STATIC_INLINE void Cy_TCPWM_TriggerReloadOrIndex(TCPWM_Type *base, uint32_t counters)
 485:Generated_Source\PSoC6\pdl\drivers/peripheral/tcpwm/cy_tcpwm.h **** {
 486:Generated_Source\PSoC6\pdl\drivers/peripheral/tcpwm/cy_tcpwm.h ****     TCPWM_CMD_RELOAD(base) = counters;
 1953              		.loc 3 486 0
 1954 009e 604B     		ldr	r3, .L118+4
 1955 00a0 0122     		movs	r2, #1
 1956 00a2 1A61     		str	r2, [r3, #16]
 1957              	.LVL214:
 1958              	.LBE496:
 1959              	.LBE495:
 1960              	.LBB497:
 1961              	.LBB498:
 1962              		.file 4 "Generated_Source\\PSoC6\\pdl\\drivers/peripheral/tcpwm/cy_tcpwm_pwm.h"
   1:Generated_Source\PSoC6\pdl\drivers/peripheral/tcpwm/cy_tcpwm_pwm.h **** /***************************************************************************//**
   2:Generated_Source\PSoC6\pdl\drivers/peripheral/tcpwm/cy_tcpwm_pwm.h **** * \file cy_tcpwm_pwm.h
   3:Generated_Source\PSoC6\pdl\drivers/peripheral/tcpwm/cy_tcpwm_pwm.h **** * \version 1.10
   4:Generated_Source\PSoC6\pdl\drivers/peripheral/tcpwm/cy_tcpwm_pwm.h **** *
   5:Generated_Source\PSoC6\pdl\drivers/peripheral/tcpwm/cy_tcpwm_pwm.h **** * \brief
   6:Generated_Source\PSoC6\pdl\drivers/peripheral/tcpwm/cy_tcpwm_pwm.h **** * The header file of the TCPWM PWM driver.
   7:Generated_Source\PSoC6\pdl\drivers/peripheral/tcpwm/cy_tcpwm_pwm.h **** *
   8:Generated_Source\PSoC6\pdl\drivers/peripheral/tcpwm/cy_tcpwm_pwm.h **** ********************************************************************************
   9:Generated_Source\PSoC6\pdl\drivers/peripheral/tcpwm/cy_tcpwm_pwm.h **** * \copyright
  10:Generated_Source\PSoC6\pdl\drivers/peripheral/tcpwm/cy_tcpwm_pwm.h **** * Copyright 2016-2018, Cypress Semiconductor Corporation. All rights reserved.
  11:Generated_Source\PSoC6\pdl\drivers/peripheral/tcpwm/cy_tcpwm_pwm.h **** * You may use this file only in accordance with the license, terms, conditions,
  12:Generated_Source\PSoC6\pdl\drivers/peripheral/tcpwm/cy_tcpwm_pwm.h **** * disclaimers, and limitations in the end user license agreement accompanying
  13:Generated_Source\PSoC6\pdl\drivers/peripheral/tcpwm/cy_tcpwm_pwm.h **** * the software package with which this file was provided.
  14:Generated_Source\PSoC6\pdl\drivers/peripheral/tcpwm/cy_tcpwm_pwm.h **** *******************************************************************************/
  15:Generated_Source\PSoC6\pdl\drivers/peripheral/tcpwm/cy_tcpwm_pwm.h **** 
  16:Generated_Source\PSoC6\pdl\drivers/peripheral/tcpwm/cy_tcpwm_pwm.h **** #if !defined(CY_TCPWM_PWM_H)
  17:Generated_Source\PSoC6\pdl\drivers/peripheral/tcpwm/cy_tcpwm_pwm.h **** #define CY_TCPWM_PWM_H
  18:Generated_Source\PSoC6\pdl\drivers/peripheral/tcpwm/cy_tcpwm_pwm.h **** 
  19:Generated_Source\PSoC6\pdl\drivers/peripheral/tcpwm/cy_tcpwm_pwm.h **** #include "cy_tcpwm.h"
  20:Generated_Source\PSoC6\pdl\drivers/peripheral/tcpwm/cy_tcpwm_pwm.h **** 
  21:Generated_Source\PSoC6\pdl\drivers/peripheral/tcpwm/cy_tcpwm_pwm.h **** #if defined(__cplusplus)
  22:Generated_Source\PSoC6\pdl\drivers/peripheral/tcpwm/cy_tcpwm_pwm.h **** extern "C" {
  23:Generated_Source\PSoC6\pdl\drivers/peripheral/tcpwm/cy_tcpwm_pwm.h **** #endif
  24:Generated_Source\PSoC6\pdl\drivers/peripheral/tcpwm/cy_tcpwm_pwm.h **** 
  25:Generated_Source\PSoC6\pdl\drivers/peripheral/tcpwm/cy_tcpwm_pwm.h **** /**
  26:Generated_Source\PSoC6\pdl\drivers/peripheral/tcpwm/cy_tcpwm_pwm.h **** * \addtogroup group_tcpwm_pwm
  27:Generated_Source\PSoC6\pdl\drivers/peripheral/tcpwm/cy_tcpwm_pwm.h **** * Driver API for PWM.
ARM GAS  C:\Users\seeho\AppData\Local\Temp\ccUkk7Dc.s 			page 75


  28:Generated_Source\PSoC6\pdl\drivers/peripheral/tcpwm/cy_tcpwm_pwm.h **** *
  29:Generated_Source\PSoC6\pdl\drivers/peripheral/tcpwm/cy_tcpwm_pwm.h **** * The functions and other declarations used in this part of the driver are in cy_tcpwm_pwm.h. 
  30:Generated_Source\PSoC6\pdl\drivers/peripheral/tcpwm/cy_tcpwm_pwm.h **** * You can also include cy_pdl.h (ModusToolbox only) to get access to all  
  31:Generated_Source\PSoC6\pdl\drivers/peripheral/tcpwm/cy_tcpwm_pwm.h **** * functions and declarations in the PDL.
  32:Generated_Source\PSoC6\pdl\drivers/peripheral/tcpwm/cy_tcpwm_pwm.h **** * \{
  33:Generated_Source\PSoC6\pdl\drivers/peripheral/tcpwm/cy_tcpwm_pwm.h **** */
  34:Generated_Source\PSoC6\pdl\drivers/peripheral/tcpwm/cy_tcpwm_pwm.h **** 
  35:Generated_Source\PSoC6\pdl\drivers/peripheral/tcpwm/cy_tcpwm_pwm.h **** /**
  36:Generated_Source\PSoC6\pdl\drivers/peripheral/tcpwm/cy_tcpwm_pwm.h **** * \defgroup group_tcpwm_macros_pwm          Macros
  37:Generated_Source\PSoC6\pdl\drivers/peripheral/tcpwm/cy_tcpwm_pwm.h **** * \defgroup group_tcpwm_functions_pwm       Functions
  38:Generated_Source\PSoC6\pdl\drivers/peripheral/tcpwm/cy_tcpwm_pwm.h **** * \defgroup group_tcpwm_data_structures_pwm Data Structures
  39:Generated_Source\PSoC6\pdl\drivers/peripheral/tcpwm/cy_tcpwm_pwm.h **** * \} */
  40:Generated_Source\PSoC6\pdl\drivers/peripheral/tcpwm/cy_tcpwm_pwm.h **** 
  41:Generated_Source\PSoC6\pdl\drivers/peripheral/tcpwm/cy_tcpwm_pwm.h **** /**
  42:Generated_Source\PSoC6\pdl\drivers/peripheral/tcpwm/cy_tcpwm_pwm.h **** * \addtogroup group_tcpwm_data_structures_pwm
  43:Generated_Source\PSoC6\pdl\drivers/peripheral/tcpwm/cy_tcpwm_pwm.h **** * \{
  44:Generated_Source\PSoC6\pdl\drivers/peripheral/tcpwm/cy_tcpwm_pwm.h **** */
  45:Generated_Source\PSoC6\pdl\drivers/peripheral/tcpwm/cy_tcpwm_pwm.h **** 
  46:Generated_Source\PSoC6\pdl\drivers/peripheral/tcpwm/cy_tcpwm_pwm.h **** /** PWM configuration structure */
  47:Generated_Source\PSoC6\pdl\drivers/peripheral/tcpwm/cy_tcpwm_pwm.h **** typedef struct cy_stc_tcpwm_pwm_config
  48:Generated_Source\PSoC6\pdl\drivers/peripheral/tcpwm/cy_tcpwm_pwm.h **** {
  49:Generated_Source\PSoC6\pdl\drivers/peripheral/tcpwm/cy_tcpwm_pwm.h ****     uint32_t    pwmMode;            /**< Sets the PWM mode. See \ref group_tcpwm_pwm_modes */
  50:Generated_Source\PSoC6\pdl\drivers/peripheral/tcpwm/cy_tcpwm_pwm.h ****     /** Sets the clock prescaler inside the TCWPM block. See \ref group_tcpwm_pwm_clk_prescalers */
  51:Generated_Source\PSoC6\pdl\drivers/peripheral/tcpwm/cy_tcpwm_pwm.h ****     uint32_t     clockPrescaler;
  52:Generated_Source\PSoC6\pdl\drivers/peripheral/tcpwm/cy_tcpwm_pwm.h ****     uint32_t    pwmAlignment;       /**< Sets the PWM alignment. See \ref group_tcpwm_pwm_alignment
  53:Generated_Source\PSoC6\pdl\drivers/peripheral/tcpwm/cy_tcpwm_pwm.h ****     uint32_t    deadTimeClocks;     /**< The number of dead time-clocks if PWM with dead time is ch
  54:Generated_Source\PSoC6\pdl\drivers/peripheral/tcpwm/cy_tcpwm_pwm.h ****     uint32_t    runMode;            /**< Sets the PWM run mode. See \ref group_tcpwm_pwm_run_modes 
  55:Generated_Source\PSoC6\pdl\drivers/peripheral/tcpwm/cy_tcpwm_pwm.h ****     uint32_t    period0;            /**< Sets the period0 of the pwm */
  56:Generated_Source\PSoC6\pdl\drivers/peripheral/tcpwm/cy_tcpwm_pwm.h ****     uint32_t    period1;            /**< Sets the period1 of the pwm */
  57:Generated_Source\PSoC6\pdl\drivers/peripheral/tcpwm/cy_tcpwm_pwm.h ****     bool        enablePeriodSwap;   /**< Enables swapping of period 0 and period 1 on terminal coun
  58:Generated_Source\PSoC6\pdl\drivers/peripheral/tcpwm/cy_tcpwm_pwm.h ****     uint32_t    compare0;           /**< Sets the value for Compare0 */
  59:Generated_Source\PSoC6\pdl\drivers/peripheral/tcpwm/cy_tcpwm_pwm.h ****     uint32_t    compare1;           /**< Sets the value for Compare1 */
  60:Generated_Source\PSoC6\pdl\drivers/peripheral/tcpwm/cy_tcpwm_pwm.h ****     bool        enableCompareSwap;  /**< If enabled, the compare values are swapped on the terminal
  61:Generated_Source\PSoC6\pdl\drivers/peripheral/tcpwm/cy_tcpwm_pwm.h ****     /** Enables an interrupt on the terminal count, capture or compare. See \ref group_tcpwm_interr
  62:Generated_Source\PSoC6\pdl\drivers/peripheral/tcpwm/cy_tcpwm_pwm.h ****     uint32_t    interruptSources;
  63:Generated_Source\PSoC6\pdl\drivers/peripheral/tcpwm/cy_tcpwm_pwm.h ****     uint32_t    invertPWMOut;       /**< Inverts the PWM output */
  64:Generated_Source\PSoC6\pdl\drivers/peripheral/tcpwm/cy_tcpwm_pwm.h ****     uint32_t    invertPWMOutN;      /**< Inverts the PWM_n output */
  65:Generated_Source\PSoC6\pdl\drivers/peripheral/tcpwm/cy_tcpwm_pwm.h ****     uint32_t    killMode;           /**< Configures the PWM kill modes. See \ref group_tcpwm_pwm_ki
  66:Generated_Source\PSoC6\pdl\drivers/peripheral/tcpwm/cy_tcpwm_pwm.h ****     uint32_t    swapInputMode;      /**< Configures how the swap input behaves. See \ref group_tcpw
  67:Generated_Source\PSoC6\pdl\drivers/peripheral/tcpwm/cy_tcpwm_pwm.h ****     /** Selects which input the swap uses. Inputs are device-specific. See \ref group_tcpwm_input_s
  68:Generated_Source\PSoC6\pdl\drivers/peripheral/tcpwm/cy_tcpwm_pwm.h ****     uint32_t    swapInput;
  69:Generated_Source\PSoC6\pdl\drivers/peripheral/tcpwm/cy_tcpwm_pwm.h ****     uint32_t    reloadInputMode;    /**< Configures how the reload input behaves. See \ref group_tc
  70:Generated_Source\PSoC6\pdl\drivers/peripheral/tcpwm/cy_tcpwm_pwm.h ****     /** Selects which input the reload uses. The inputs are device-specific. See \ref group_tcpwm_i
  71:Generated_Source\PSoC6\pdl\drivers/peripheral/tcpwm/cy_tcpwm_pwm.h ****     uint32_t    reloadInput;            
  72:Generated_Source\PSoC6\pdl\drivers/peripheral/tcpwm/cy_tcpwm_pwm.h ****     uint32_t    startInputMode;     /**< Configures how the start input behaves. See \ref group_tcp
  73:Generated_Source\PSoC6\pdl\drivers/peripheral/tcpwm/cy_tcpwm_pwm.h ****     /** Selects which input the start uses. The inputs are device-specific. See \ref group_tcpwm_in
  74:Generated_Source\PSoC6\pdl\drivers/peripheral/tcpwm/cy_tcpwm_pwm.h ****     uint32_t    startInput;                
  75:Generated_Source\PSoC6\pdl\drivers/peripheral/tcpwm/cy_tcpwm_pwm.h ****     uint32_t    killInputMode;      /**< Configures how the kill input behaves. See \ref group_tcpw
  76:Generated_Source\PSoC6\pdl\drivers/peripheral/tcpwm/cy_tcpwm_pwm.h ****     /** Selects which input the kill uses. The inputs are device-specific. See \ref group_tcpwm_inp
  77:Generated_Source\PSoC6\pdl\drivers/peripheral/tcpwm/cy_tcpwm_pwm.h ****     uint32_t    killInput;
  78:Generated_Source\PSoC6\pdl\drivers/peripheral/tcpwm/cy_tcpwm_pwm.h ****     uint32_t    countInputMode;     /**< Configures how the count input behaves. See \ref group_tcp
  79:Generated_Source\PSoC6\pdl\drivers/peripheral/tcpwm/cy_tcpwm_pwm.h ****     /** Selects which input the count uses. The inputs are device-specific. See \ref group_tcpwm_in
  80:Generated_Source\PSoC6\pdl\drivers/peripheral/tcpwm/cy_tcpwm_pwm.h ****     uint32_t    countInput;
  81:Generated_Source\PSoC6\pdl\drivers/peripheral/tcpwm/cy_tcpwm_pwm.h **** }cy_stc_tcpwm_pwm_config_t;
  82:Generated_Source\PSoC6\pdl\drivers/peripheral/tcpwm/cy_tcpwm_pwm.h **** /** \} group_tcpwm_data_structures_pwm */
  83:Generated_Source\PSoC6\pdl\drivers/peripheral/tcpwm/cy_tcpwm_pwm.h **** 
  84:Generated_Source\PSoC6\pdl\drivers/peripheral/tcpwm/cy_tcpwm_pwm.h **** /**
ARM GAS  C:\Users\seeho\AppData\Local\Temp\ccUkk7Dc.s 			page 76


  85:Generated_Source\PSoC6\pdl\drivers/peripheral/tcpwm/cy_tcpwm_pwm.h **** * \addtogroup group_tcpwm_macros_pwm
  86:Generated_Source\PSoC6\pdl\drivers/peripheral/tcpwm/cy_tcpwm_pwm.h **** * \{
  87:Generated_Source\PSoC6\pdl\drivers/peripheral/tcpwm/cy_tcpwm_pwm.h **** * \defgroup group_tcpwm_pwm_run_modes PWM run modes
  88:Generated_Source\PSoC6\pdl\drivers/peripheral/tcpwm/cy_tcpwm_pwm.h **** * \{
  89:Generated_Source\PSoC6\pdl\drivers/peripheral/tcpwm/cy_tcpwm_pwm.h **** * Run modes for the pwm timer.
  90:Generated_Source\PSoC6\pdl\drivers/peripheral/tcpwm/cy_tcpwm_pwm.h **** */
  91:Generated_Source\PSoC6\pdl\drivers/peripheral/tcpwm/cy_tcpwm_pwm.h **** #define CY_TCPWM_PWM_ONESHOT            (1U)    /**< Counter runs once and then stops */
  92:Generated_Source\PSoC6\pdl\drivers/peripheral/tcpwm/cy_tcpwm_pwm.h **** #define CY_TCPWM_PWM_CONTINUOUS         (0U)    /**< Counter runs forever */
  93:Generated_Source\PSoC6\pdl\drivers/peripheral/tcpwm/cy_tcpwm_pwm.h **** /** \} group_tcpwm_pwm_run_modes */
  94:Generated_Source\PSoC6\pdl\drivers/peripheral/tcpwm/cy_tcpwm_pwm.h **** 
  95:Generated_Source\PSoC6\pdl\drivers/peripheral/tcpwm/cy_tcpwm_pwm.h **** /** \defgroup group_tcpwm_pwm_modes PWM modes 
  96:Generated_Source\PSoC6\pdl\drivers/peripheral/tcpwm/cy_tcpwm_pwm.h **** * \{
  97:Generated_Source\PSoC6\pdl\drivers/peripheral/tcpwm/cy_tcpwm_pwm.h **** * Sets the PWM modes.
  98:Generated_Source\PSoC6\pdl\drivers/peripheral/tcpwm/cy_tcpwm_pwm.h **** */
  99:Generated_Source\PSoC6\pdl\drivers/peripheral/tcpwm/cy_tcpwm_pwm.h **** #define CY_TCPWM_PWM_MODE_PWM           (4U) /**< Standard PWM Mode*/
 100:Generated_Source\PSoC6\pdl\drivers/peripheral/tcpwm/cy_tcpwm_pwm.h **** #define CY_TCPWM_PWM_MODE_DEADTIME      (5U)    /**< PWM with deadtime mode*/
 101:Generated_Source\PSoC6\pdl\drivers/peripheral/tcpwm/cy_tcpwm_pwm.h **** #define CY_TCPWM_PWM_MODE_PSEUDORANDOM  (6U)    /**< Pseudo Random PWM */
 102:Generated_Source\PSoC6\pdl\drivers/peripheral/tcpwm/cy_tcpwm_pwm.h **** /** \} group_tcpwm_pwm_modes */
 103:Generated_Source\PSoC6\pdl\drivers/peripheral/tcpwm/cy_tcpwm_pwm.h **** 
 104:Generated_Source\PSoC6\pdl\drivers/peripheral/tcpwm/cy_tcpwm_pwm.h **** /** \defgroup group_tcpwm_pwm_alignment PWM Alignment
 105:Generated_Source\PSoC6\pdl\drivers/peripheral/tcpwm/cy_tcpwm_pwm.h **** * Sets the alignment of the PWM.
 106:Generated_Source\PSoC6\pdl\drivers/peripheral/tcpwm/cy_tcpwm_pwm.h **** * \{
 107:Generated_Source\PSoC6\pdl\drivers/peripheral/tcpwm/cy_tcpwm_pwm.h **** */
 108:Generated_Source\PSoC6\pdl\drivers/peripheral/tcpwm/cy_tcpwm_pwm.h **** #define CY_TCPWM_PWM_LEFT_ALIGN         (0U)     /**< PWM is left aligned, meaning it starts high *
 109:Generated_Source\PSoC6\pdl\drivers/peripheral/tcpwm/cy_tcpwm_pwm.h **** #define CY_TCPWM_PWM_RIGHT_ALIGN        (1U)        /**< PWM is right aligned, meaning it starts lo
 110:Generated_Source\PSoC6\pdl\drivers/peripheral/tcpwm/cy_tcpwm_pwm.h **** /** PWM is centered aligned, terminal count only occurs on underflow */
 111:Generated_Source\PSoC6\pdl\drivers/peripheral/tcpwm/cy_tcpwm_pwm.h **** #define CY_TCPWM_PWM_CENTER_ALIGN       (2U)
 112:Generated_Source\PSoC6\pdl\drivers/peripheral/tcpwm/cy_tcpwm_pwm.h **** /** PWM is asymmetrically aligned, terminal count occurs on overflow and underflow */
 113:Generated_Source\PSoC6\pdl\drivers/peripheral/tcpwm/cy_tcpwm_pwm.h **** #define CY_TCPWM_PWM_ASYMMETRIC_ALIGN   (3U)
 114:Generated_Source\PSoC6\pdl\drivers/peripheral/tcpwm/cy_tcpwm_pwm.h **** /** \} group_tcpwm_pwm_alignment */
 115:Generated_Source\PSoC6\pdl\drivers/peripheral/tcpwm/cy_tcpwm_pwm.h **** 
 116:Generated_Source\PSoC6\pdl\drivers/peripheral/tcpwm/cy_tcpwm_pwm.h **** /** \defgroup group_tcpwm_pwm_kill_modes PWM kill modes
 117:Generated_Source\PSoC6\pdl\drivers/peripheral/tcpwm/cy_tcpwm_pwm.h **** * Sets the kill mode for the PWM.
 118:Generated_Source\PSoC6\pdl\drivers/peripheral/tcpwm/cy_tcpwm_pwm.h **** * \{
 119:Generated_Source\PSoC6\pdl\drivers/peripheral/tcpwm/cy_tcpwm_pwm.h **** */
 120:Generated_Source\PSoC6\pdl\drivers/peripheral/tcpwm/cy_tcpwm_pwm.h **** #define CY_TCPWM_PWM_STOP_ON_KILL       (2U)    /**< PWM stops counting on kill */
 121:Generated_Source\PSoC6\pdl\drivers/peripheral/tcpwm/cy_tcpwm_pwm.h **** #define CY_TCPWM_PWM_SYNCH_KILL         (1U)    /**< PWM output is killed after next TC*/
 122:Generated_Source\PSoC6\pdl\drivers/peripheral/tcpwm/cy_tcpwm_pwm.h **** #define CY_TCPWM_PWM_ASYNC_KILL         (0U)    /**< PWM output is killed instantly */
 123:Generated_Source\PSoC6\pdl\drivers/peripheral/tcpwm/cy_tcpwm_pwm.h **** /** \} group_tcpwm_pwm_kill_modes */
 124:Generated_Source\PSoC6\pdl\drivers/peripheral/tcpwm/cy_tcpwm_pwm.h **** 
 125:Generated_Source\PSoC6\pdl\drivers/peripheral/tcpwm/cy_tcpwm_pwm.h **** /** \defgroup group_tcpwm_pwm_clk_prescalers PWM CLK Prescaler values
 126:Generated_Source\PSoC6\pdl\drivers/peripheral/tcpwm/cy_tcpwm_pwm.h **** * \{
 127:Generated_Source\PSoC6\pdl\drivers/peripheral/tcpwm/cy_tcpwm_pwm.h **** * Clock prescaler values.
 128:Generated_Source\PSoC6\pdl\drivers/peripheral/tcpwm/cy_tcpwm_pwm.h **** */
 129:Generated_Source\PSoC6\pdl\drivers/peripheral/tcpwm/cy_tcpwm_pwm.h **** #define CY_TCPWM_PWM_PRESCALER_DIVBY_1      (0U) /**< Divide by 1 */
 130:Generated_Source\PSoC6\pdl\drivers/peripheral/tcpwm/cy_tcpwm_pwm.h **** #define CY_TCPWM_PWM_PRESCALER_DIVBY_2      (1U) /**< Divide by 2 */
 131:Generated_Source\PSoC6\pdl\drivers/peripheral/tcpwm/cy_tcpwm_pwm.h **** #define CY_TCPWM_PWM_PRESCALER_DIVBY_4      (2U) /**< Divide by 4 */
 132:Generated_Source\PSoC6\pdl\drivers/peripheral/tcpwm/cy_tcpwm_pwm.h **** #define CY_TCPWM_PWM_PRESCALER_DIVBY_8      (3U) /**< Divide by 8 */
 133:Generated_Source\PSoC6\pdl\drivers/peripheral/tcpwm/cy_tcpwm_pwm.h **** #define CY_TCPWM_PWM_PRESCALER_DIVBY_16     (4U) /**< Divide by 16 */
 134:Generated_Source\PSoC6\pdl\drivers/peripheral/tcpwm/cy_tcpwm_pwm.h **** #define CY_TCPWM_PWM_PRESCALER_DIVBY_32     (5U) /**< Divide by 32 */
 135:Generated_Source\PSoC6\pdl\drivers/peripheral/tcpwm/cy_tcpwm_pwm.h **** #define CY_TCPWM_PWM_PRESCALER_DIVBY_64     (6U) /**< Divide by 64 */
 136:Generated_Source\PSoC6\pdl\drivers/peripheral/tcpwm/cy_tcpwm_pwm.h **** #define CY_TCPWM_PWM_PRESCALER_DIVBY_128    (7U) /**< Divide by 128 */
 137:Generated_Source\PSoC6\pdl\drivers/peripheral/tcpwm/cy_tcpwm_pwm.h **** /** \} group_tcpwm_pwm_clk_prescalers */
 138:Generated_Source\PSoC6\pdl\drivers/peripheral/tcpwm/cy_tcpwm_pwm.h **** 
 139:Generated_Source\PSoC6\pdl\drivers/peripheral/tcpwm/cy_tcpwm_pwm.h **** /** \defgroup group_tcpwm_pwm_output_invert PWM output invert
 140:Generated_Source\PSoC6\pdl\drivers/peripheral/tcpwm/cy_tcpwm_pwm.h **** * \{
 141:Generated_Source\PSoC6\pdl\drivers/peripheral/tcpwm/cy_tcpwm_pwm.h **** * Output invert modes.
ARM GAS  C:\Users\seeho\AppData\Local\Temp\ccUkk7Dc.s 			page 77


 142:Generated_Source\PSoC6\pdl\drivers/peripheral/tcpwm/cy_tcpwm_pwm.h **** */
 143:Generated_Source\PSoC6\pdl\drivers/peripheral/tcpwm/cy_tcpwm_pwm.h **** #define CY_TCPWM_PWM_INVERT_ENABLE          (1U)  /**< Invert the output mode */
 144:Generated_Source\PSoC6\pdl\drivers/peripheral/tcpwm/cy_tcpwm_pwm.h **** #define CY_TCPWM_PWM_INVERT_DISABLE         (0U)  /**< Do not invert the output mode */
 145:Generated_Source\PSoC6\pdl\drivers/peripheral/tcpwm/cy_tcpwm_pwm.h **** /** \} group_tcpwm_pwm_output_invert */
 146:Generated_Source\PSoC6\pdl\drivers/peripheral/tcpwm/cy_tcpwm_pwm.h **** 
 147:Generated_Source\PSoC6\pdl\drivers/peripheral/tcpwm/cy_tcpwm_pwm.h **** /** \defgroup group_tcpwm_pwm_status PWM Status
 148:Generated_Source\PSoC6\pdl\drivers/peripheral/tcpwm/cy_tcpwm_pwm.h **** * \{
 149:Generated_Source\PSoC6\pdl\drivers/peripheral/tcpwm/cy_tcpwm_pwm.h **** * The counter status.
 150:Generated_Source\PSoC6\pdl\drivers/peripheral/tcpwm/cy_tcpwm_pwm.h **** */
 151:Generated_Source\PSoC6\pdl\drivers/peripheral/tcpwm/cy_tcpwm_pwm.h **** #define CY_TCPWM_PWM_STATUS_DOWN_COUNTING   (0x1UL)        /**< PWM is down counting */
 152:Generated_Source\PSoC6\pdl\drivers/peripheral/tcpwm/cy_tcpwm_pwm.h **** #define CY_TCPWM_PWM_STATUS_UP_COUNTING     (0x2UL)        /**< PWM is up counting */
 153:Generated_Source\PSoC6\pdl\drivers/peripheral/tcpwm/cy_tcpwm_pwm.h **** #define CY_TCPWM_PWM_STATUS_COUNTER_RUNNING (TCPWM_CNT_STATUS_RUNNING_Msk)     /**< PWM counter is 
 154:Generated_Source\PSoC6\pdl\drivers/peripheral/tcpwm/cy_tcpwm_pwm.h **** /** \} group_tcpwm_pwm_status */
 155:Generated_Source\PSoC6\pdl\drivers/peripheral/tcpwm/cy_tcpwm_pwm.h **** /** \} group_tcpwm_macros_pwm */
 156:Generated_Source\PSoC6\pdl\drivers/peripheral/tcpwm/cy_tcpwm_pwm.h **** 
 157:Generated_Source\PSoC6\pdl\drivers/peripheral/tcpwm/cy_tcpwm_pwm.h **** 
 158:Generated_Source\PSoC6\pdl\drivers/peripheral/tcpwm/cy_tcpwm_pwm.h **** /***************************************
 159:Generated_Source\PSoC6\pdl\drivers/peripheral/tcpwm/cy_tcpwm_pwm.h **** *        Registers Constants
 160:Generated_Source\PSoC6\pdl\drivers/peripheral/tcpwm/cy_tcpwm_pwm.h **** ***************************************/
 161:Generated_Source\PSoC6\pdl\drivers/peripheral/tcpwm/cy_tcpwm_pwm.h **** 
 162:Generated_Source\PSoC6\pdl\drivers/peripheral/tcpwm/cy_tcpwm_pwm.h **** /** \cond INTERNAL */
 163:Generated_Source\PSoC6\pdl\drivers/peripheral/tcpwm/cy_tcpwm_pwm.h **** #define CY_TCPWM_PWM_CTRL_SYNC_KILL_OR_STOP_ON_KILL_POS  (2U)
 164:Generated_Source\PSoC6\pdl\drivers/peripheral/tcpwm/cy_tcpwm_pwm.h **** #define CY_TCPWM_PWM_CTRL_SYNC_KILL_OR_STOP_ON_KILL_MASK (0x3UL << CY_TCPWM_PWM_CTRL_SYNC_KILL_OR_S
 165:Generated_Source\PSoC6\pdl\drivers/peripheral/tcpwm/cy_tcpwm_pwm.h **** 
 166:Generated_Source\PSoC6\pdl\drivers/peripheral/tcpwm/cy_tcpwm_pwm.h **** #define CY_TCPWM_PWM_TR_CTRL2_SET           (0UL) /**< Set define for PWM output signal configurati
 167:Generated_Source\PSoC6\pdl\drivers/peripheral/tcpwm/cy_tcpwm_pwm.h **** #define CY_TCPWM_PWM_TR_CTRL2_CLEAR         (1UL) /**< Clear define for PWM output signal configura
 168:Generated_Source\PSoC6\pdl\drivers/peripheral/tcpwm/cy_tcpwm_pwm.h **** #define CY_TCPWM_PWM_TR_CTRL2_INVERT        (2UL) /**< Invert define for PWM output signal configur
 169:Generated_Source\PSoC6\pdl\drivers/peripheral/tcpwm/cy_tcpwm_pwm.h **** #define CY_TCPWM_PWM_TR_CTRL2_NO_CHANGE     (3UL) /**< No change define for PWM output signal confi
 170:Generated_Source\PSoC6\pdl\drivers/peripheral/tcpwm/cy_tcpwm_pwm.h **** 
 171:Generated_Source\PSoC6\pdl\drivers/peripheral/tcpwm/cy_tcpwm_pwm.h **** /** The configuration of PWM output signal in Pseudo Random Mode */
 172:Generated_Source\PSoC6\pdl\drivers/peripheral/tcpwm/cy_tcpwm_pwm.h **** #define CY_TCPWM_PWM_MODE_PR         (_VAL2FLD(TCPWM_CNT_TR_CTRL2_CC_MATCH_MODE, CY_TCPWM_PWM_TR_CT
 173:Generated_Source\PSoC6\pdl\drivers/peripheral/tcpwm/cy_tcpwm_pwm.h ****                                       _VAL2FLD(TCPWM_CNT_TR_CTRL2_OVERFLOW_MODE, CY_TCPWM_PWM_TR_CT
 174:Generated_Source\PSoC6\pdl\drivers/peripheral/tcpwm/cy_tcpwm_pwm.h ****                                       _VAL2FLD(TCPWM_CNT_TR_CTRL2_UNDERFLOW_MODE, CY_TCPWM_PWM_TR_C
 175:Generated_Source\PSoC6\pdl\drivers/peripheral/tcpwm/cy_tcpwm_pwm.h **** 
 176:Generated_Source\PSoC6\pdl\drivers/peripheral/tcpwm/cy_tcpwm_pwm.h **** /** The configuration of PWM output signal for Left alignment */
 177:Generated_Source\PSoC6\pdl\drivers/peripheral/tcpwm/cy_tcpwm_pwm.h **** #define CY_TCPWM_PWM_MODE_LEFT       (_VAL2FLD(TCPWM_CNT_TR_CTRL2_CC_MATCH_MODE, CY_TCPWM_PWM_TR_CT
 178:Generated_Source\PSoC6\pdl\drivers/peripheral/tcpwm/cy_tcpwm_pwm.h ****                                       _VAL2FLD(TCPWM_CNT_TR_CTRL2_OVERFLOW_MODE, CY_TCPWM_PWM_TR_CT
 179:Generated_Source\PSoC6\pdl\drivers/peripheral/tcpwm/cy_tcpwm_pwm.h ****                                       _VAL2FLD(TCPWM_CNT_TR_CTRL2_UNDERFLOW_MODE, CY_TCPWM_PWM_TR_C
 180:Generated_Source\PSoC6\pdl\drivers/peripheral/tcpwm/cy_tcpwm_pwm.h **** 
 181:Generated_Source\PSoC6\pdl\drivers/peripheral/tcpwm/cy_tcpwm_pwm.h **** /** The configuration of PWM output signal for Right alignment */
 182:Generated_Source\PSoC6\pdl\drivers/peripheral/tcpwm/cy_tcpwm_pwm.h **** #define CY_TCPWM_PWM_MODE_RIGHT      (_VAL2FLD(TCPWM_CNT_TR_CTRL2_CC_MATCH_MODE, CY_TCPWM_PWM_TR_CT
 183:Generated_Source\PSoC6\pdl\drivers/peripheral/tcpwm/cy_tcpwm_pwm.h ****                                       _VAL2FLD(TCPWM_CNT_TR_CTRL2_OVERFLOW_MODE, CY_TCPWM_PWM_TR_CT
 184:Generated_Source\PSoC6\pdl\drivers/peripheral/tcpwm/cy_tcpwm_pwm.h ****                                       _VAL2FLD(TCPWM_CNT_TR_CTRL2_UNDERFLOW_MODE, CY_TCPWM_PWM_TR_C
 185:Generated_Source\PSoC6\pdl\drivers/peripheral/tcpwm/cy_tcpwm_pwm.h **** 
 186:Generated_Source\PSoC6\pdl\drivers/peripheral/tcpwm/cy_tcpwm_pwm.h **** /** The configuration of PWM output signal for Center and Asymmetric alignment */
 187:Generated_Source\PSoC6\pdl\drivers/peripheral/tcpwm/cy_tcpwm_pwm.h **** #define CY_TCPWM_PWM_MODE_CNTR_OR_ASYMM (_VAL2FLD(TCPWM_CNT_TR_CTRL2_CC_MATCH_MODE, CY_TCPWM_PWM_TR
 188:Generated_Source\PSoC6\pdl\drivers/peripheral/tcpwm/cy_tcpwm_pwm.h ****                                          _VAL2FLD(TCPWM_CNT_TR_CTRL2_OVERFLOW_MODE, CY_TCPWM_PWM_TR
 189:Generated_Source\PSoC6\pdl\drivers/peripheral/tcpwm/cy_tcpwm_pwm.h ****                                          _VAL2FLD(TCPWM_CNT_TR_CTRL2_UNDERFLOW_MODE, CY_TCPWM_PWM_T
 190:Generated_Source\PSoC6\pdl\drivers/peripheral/tcpwm/cy_tcpwm_pwm.h **** /** \endcond */
 191:Generated_Source\PSoC6\pdl\drivers/peripheral/tcpwm/cy_tcpwm_pwm.h **** 
 192:Generated_Source\PSoC6\pdl\drivers/peripheral/tcpwm/cy_tcpwm_pwm.h **** 
 193:Generated_Source\PSoC6\pdl\drivers/peripheral/tcpwm/cy_tcpwm_pwm.h **** /*******************************************************************************
 194:Generated_Source\PSoC6\pdl\drivers/peripheral/tcpwm/cy_tcpwm_pwm.h **** *        Function Prototypes
 195:Generated_Source\PSoC6\pdl\drivers/peripheral/tcpwm/cy_tcpwm_pwm.h **** *******************************************************************************/
 196:Generated_Source\PSoC6\pdl\drivers/peripheral/tcpwm/cy_tcpwm_pwm.h **** 
 197:Generated_Source\PSoC6\pdl\drivers/peripheral/tcpwm/cy_tcpwm_pwm.h **** /**
 198:Generated_Source\PSoC6\pdl\drivers/peripheral/tcpwm/cy_tcpwm_pwm.h **** * \addtogroup group_tcpwm_functions_pwm
ARM GAS  C:\Users\seeho\AppData\Local\Temp\ccUkk7Dc.s 			page 78


 199:Generated_Source\PSoC6\pdl\drivers/peripheral/tcpwm/cy_tcpwm_pwm.h **** * \{
 200:Generated_Source\PSoC6\pdl\drivers/peripheral/tcpwm/cy_tcpwm_pwm.h **** */
 201:Generated_Source\PSoC6\pdl\drivers/peripheral/tcpwm/cy_tcpwm_pwm.h **** 
 202:Generated_Source\PSoC6\pdl\drivers/peripheral/tcpwm/cy_tcpwm_pwm.h **** cy_en_tcpwm_status_t Cy_TCPWM_PWM_Init(TCPWM_Type *base, uint32_t cntNum, cy_stc_tcpwm_pwm_config_t
 203:Generated_Source\PSoC6\pdl\drivers/peripheral/tcpwm/cy_tcpwm_pwm.h **** void Cy_TCPWM_PWM_DeInit(TCPWM_Type *base, uint32_t cntNum, cy_stc_tcpwm_pwm_config_t const *config
 204:Generated_Source\PSoC6\pdl\drivers/peripheral/tcpwm/cy_tcpwm_pwm.h **** __STATIC_INLINE void Cy_TCPWM_PWM_Enable(TCPWM_Type *base, uint32_t cntNum);
 205:Generated_Source\PSoC6\pdl\drivers/peripheral/tcpwm/cy_tcpwm_pwm.h **** __STATIC_INLINE void Cy_TCPWM_PWM_Disable(TCPWM_Type *base, uint32_t cntNum);
 206:Generated_Source\PSoC6\pdl\drivers/peripheral/tcpwm/cy_tcpwm_pwm.h **** __STATIC_INLINE uint32_t Cy_TCPWM_PWM_GetStatus(TCPWM_Type const *base, uint32_t cntNum);
 207:Generated_Source\PSoC6\pdl\drivers/peripheral/tcpwm/cy_tcpwm_pwm.h **** __STATIC_INLINE void Cy_TCPWM_PWM_SetCompare0(TCPWM_Type *base, uint32_t cntNum, uint32_t compare0)
 208:Generated_Source\PSoC6\pdl\drivers/peripheral/tcpwm/cy_tcpwm_pwm.h **** __STATIC_INLINE uint32_t Cy_TCPWM_PWM_GetCompare0(TCPWM_Type const *base, uint32_t cntNum);
 209:Generated_Source\PSoC6\pdl\drivers/peripheral/tcpwm/cy_tcpwm_pwm.h **** __STATIC_INLINE void Cy_TCPWM_PWM_SetCompare1(TCPWM_Type *base, uint32_t cntNum, uint32_t compare1)
 210:Generated_Source\PSoC6\pdl\drivers/peripheral/tcpwm/cy_tcpwm_pwm.h **** __STATIC_INLINE uint32_t Cy_TCPWM_PWM_GetCompare1(TCPWM_Type const *base, uint32_t cntNum);
 211:Generated_Source\PSoC6\pdl\drivers/peripheral/tcpwm/cy_tcpwm_pwm.h **** __STATIC_INLINE void Cy_TCPWM_PWM_EnableCompareSwap(TCPWM_Type *base, uint32_t cntNum, bool enable)
 212:Generated_Source\PSoC6\pdl\drivers/peripheral/tcpwm/cy_tcpwm_pwm.h **** __STATIC_INLINE void Cy_TCPWM_PWM_SetCounter(TCPWM_Type *base, uint32_t cntNum, uint32_t count);
 213:Generated_Source\PSoC6\pdl\drivers/peripheral/tcpwm/cy_tcpwm_pwm.h **** __STATIC_INLINE uint32_t Cy_TCPWM_PWM_GetCounter(TCPWM_Type const *base, uint32_t cntNum);
 214:Generated_Source\PSoC6\pdl\drivers/peripheral/tcpwm/cy_tcpwm_pwm.h **** __STATIC_INLINE void Cy_TCPWM_PWM_SetPeriod0(TCPWM_Type *base, uint32_t cntNum, uint32_t period0);
 215:Generated_Source\PSoC6\pdl\drivers/peripheral/tcpwm/cy_tcpwm_pwm.h **** __STATIC_INLINE uint32_t Cy_TCPWM_PWM_GetPeriod0(TCPWM_Type const *base, uint32_t cntNum);
 216:Generated_Source\PSoC6\pdl\drivers/peripheral/tcpwm/cy_tcpwm_pwm.h **** __STATIC_INLINE void Cy_TCPWM_PWM_SetPeriod1(TCPWM_Type *base, uint32_t cntNum, uint32_t period1);
 217:Generated_Source\PSoC6\pdl\drivers/peripheral/tcpwm/cy_tcpwm_pwm.h **** __STATIC_INLINE uint32_t Cy_TCPWM_PWM_GetPeriod1(TCPWM_Type const *base, uint32_t cntNum);
 218:Generated_Source\PSoC6\pdl\drivers/peripheral/tcpwm/cy_tcpwm_pwm.h **** __STATIC_INLINE void Cy_TCPWM_PWM_EnablePeriodSwap(TCPWM_Type *base, uint32_t cntNum, bool enable);
 219:Generated_Source\PSoC6\pdl\drivers/peripheral/tcpwm/cy_tcpwm_pwm.h **** 
 220:Generated_Source\PSoC6\pdl\drivers/peripheral/tcpwm/cy_tcpwm_pwm.h **** 
 221:Generated_Source\PSoC6\pdl\drivers/peripheral/tcpwm/cy_tcpwm_pwm.h **** /*******************************************************************************
 222:Generated_Source\PSoC6\pdl\drivers/peripheral/tcpwm/cy_tcpwm_pwm.h **** * Function Name: Cy_TCPWM_PWM_Enable
 223:Generated_Source\PSoC6\pdl\drivers/peripheral/tcpwm/cy_tcpwm_pwm.h **** ****************************************************************************//**
 224:Generated_Source\PSoC6\pdl\drivers/peripheral/tcpwm/cy_tcpwm_pwm.h **** *
 225:Generated_Source\PSoC6\pdl\drivers/peripheral/tcpwm/cy_tcpwm_pwm.h **** * Enables the counter in the TCPWM block for the PWM operation.
 226:Generated_Source\PSoC6\pdl\drivers/peripheral/tcpwm/cy_tcpwm_pwm.h **** *
 227:Generated_Source\PSoC6\pdl\drivers/peripheral/tcpwm/cy_tcpwm_pwm.h **** * \param base
 228:Generated_Source\PSoC6\pdl\drivers/peripheral/tcpwm/cy_tcpwm_pwm.h **** * The pointer to a TCPWM instance.
 229:Generated_Source\PSoC6\pdl\drivers/peripheral/tcpwm/cy_tcpwm_pwm.h **** *
 230:Generated_Source\PSoC6\pdl\drivers/peripheral/tcpwm/cy_tcpwm_pwm.h **** * \param cntNum 
 231:Generated_Source\PSoC6\pdl\drivers/peripheral/tcpwm/cy_tcpwm_pwm.h **** * The Counter instance number in the selected TCPWM.
 232:Generated_Source\PSoC6\pdl\drivers/peripheral/tcpwm/cy_tcpwm_pwm.h **** *
 233:Generated_Source\PSoC6\pdl\drivers/peripheral/tcpwm/cy_tcpwm_pwm.h **** * \funcusage
 234:Generated_Source\PSoC6\pdl\drivers/peripheral/tcpwm/cy_tcpwm_pwm.h **** * \snippet tcpwm\1.10\pwm\snippet\main.c snippet_Cy_TCPWM_PWM_Init
 235:Generated_Source\PSoC6\pdl\drivers/peripheral/tcpwm/cy_tcpwm_pwm.h **** *
 236:Generated_Source\PSoC6\pdl\drivers/peripheral/tcpwm/cy_tcpwm_pwm.h **** *******************************************************************************/
 237:Generated_Source\PSoC6\pdl\drivers/peripheral/tcpwm/cy_tcpwm_pwm.h **** __STATIC_INLINE void Cy_TCPWM_PWM_Enable(TCPWM_Type *base, uint32_t cntNum)
 238:Generated_Source\PSoC6\pdl\drivers/peripheral/tcpwm/cy_tcpwm_pwm.h **** {
 239:Generated_Source\PSoC6\pdl\drivers/peripheral/tcpwm/cy_tcpwm_pwm.h ****     TCPWM_CTRL_SET(base) = (1UL << cntNum);
 240:Generated_Source\PSoC6\pdl\drivers/peripheral/tcpwm/cy_tcpwm_pwm.h **** }
 241:Generated_Source\PSoC6\pdl\drivers/peripheral/tcpwm/cy_tcpwm_pwm.h **** 
 242:Generated_Source\PSoC6\pdl\drivers/peripheral/tcpwm/cy_tcpwm_pwm.h **** /*******************************************************************************
 243:Generated_Source\PSoC6\pdl\drivers/peripheral/tcpwm/cy_tcpwm_pwm.h **** * Function Name: Cy_TCPWM_PWM_Disable
 244:Generated_Source\PSoC6\pdl\drivers/peripheral/tcpwm/cy_tcpwm_pwm.h **** ****************************************************************************//**
 245:Generated_Source\PSoC6\pdl\drivers/peripheral/tcpwm/cy_tcpwm_pwm.h **** *
 246:Generated_Source\PSoC6\pdl\drivers/peripheral/tcpwm/cy_tcpwm_pwm.h **** * Disables the counter in the TCPWM block.
 247:Generated_Source\PSoC6\pdl\drivers/peripheral/tcpwm/cy_tcpwm_pwm.h **** *
 248:Generated_Source\PSoC6\pdl\drivers/peripheral/tcpwm/cy_tcpwm_pwm.h **** * \param base
 249:Generated_Source\PSoC6\pdl\drivers/peripheral/tcpwm/cy_tcpwm_pwm.h **** * The pointer to a TCPWM instance.
 250:Generated_Source\PSoC6\pdl\drivers/peripheral/tcpwm/cy_tcpwm_pwm.h **** *
 251:Generated_Source\PSoC6\pdl\drivers/peripheral/tcpwm/cy_tcpwm_pwm.h **** * \param cntNum 
 252:Generated_Source\PSoC6\pdl\drivers/peripheral/tcpwm/cy_tcpwm_pwm.h **** * The Counter instance number in the selected TCPWM.
 253:Generated_Source\PSoC6\pdl\drivers/peripheral/tcpwm/cy_tcpwm_pwm.h **** *
 254:Generated_Source\PSoC6\pdl\drivers/peripheral/tcpwm/cy_tcpwm_pwm.h **** * \funcusage
 255:Generated_Source\PSoC6\pdl\drivers/peripheral/tcpwm/cy_tcpwm_pwm.h **** * \snippet tcpwm\1.10\pwm\snippet\main.c snippet_Cy_TCPWM_PWM_DeInit
ARM GAS  C:\Users\seeho\AppData\Local\Temp\ccUkk7Dc.s 			page 79


 256:Generated_Source\PSoC6\pdl\drivers/peripheral/tcpwm/cy_tcpwm_pwm.h **** *
 257:Generated_Source\PSoC6\pdl\drivers/peripheral/tcpwm/cy_tcpwm_pwm.h **** *******************************************************************************/
 258:Generated_Source\PSoC6\pdl\drivers/peripheral/tcpwm/cy_tcpwm_pwm.h **** __STATIC_INLINE void Cy_TCPWM_PWM_Disable(TCPWM_Type *base, uint32_t cntNum)
 259:Generated_Source\PSoC6\pdl\drivers/peripheral/tcpwm/cy_tcpwm_pwm.h **** {
 260:Generated_Source\PSoC6\pdl\drivers/peripheral/tcpwm/cy_tcpwm_pwm.h ****     TCPWM_CTRL_CLR(base) = (1UL << cntNum);
 1963              		.loc 4 260 0
 1964 00a4 0222     		movs	r2, #2
 1965 00a6 5A60     		str	r2, [r3, #4]
 1966              	.LVL215:
 1967              	.LBE498:
 1968              	.LBE497:
 534:main_cm4.c    ****             printf("RED_LED is blinking till paired: \r\n");
 1969              		.loc 1 534 0
 1970 00a8 5E48     		ldr	r0, .L118+8
 1971 00aa FFF7FEFF 		bl	puts
 1972              	.LVL216:
 535:main_cm4.c    ****             break;
 1973              		.loc 1 535 0
 1974 00ae 5E48     		ldr	r0, .L118+12
 1975 00b0 FFF7FEFF 		bl	puts
 1976              	.LVL217:
 536:main_cm4.c    ****             
 1977              		.loc 1 536 0
 1978 00b4 70BD     		pop	{r4, r5, r6, pc}
 1979              	.LVL218:
 1980              	.L91:
 540:main_cm4.c    ****             break;
 1981              		.loc 1 540 0
 1982 00b6 5D48     		ldr	r0, .L118+16
 1983              	.LVL219:
 1984 00b8 FFF7FEFF 		bl	puts
 1985              	.LVL220:
 541:main_cm4.c    ****             
 1986              		.loc 1 541 0
 1987 00bc 70BD     		pop	{r4, r5, r6, pc}
 1988              	.LVL221:
 1989              	.L89:
 545:main_cm4.c    **** 			break;
 1990              		.loc 1 545 0
 1991 00be 5C48     		ldr	r0, .L118+20
 1992              	.LVL222:
 1993 00c0 FFF7FEFF 		bl	puts
 1994              	.LVL223:
 546:main_cm4.c    ****             
 1995              		.loc 1 546 0
 1996 00c4 70BD     		pop	{r4, r5, r6, pc}
 1997              	.LVL224:
 1998              	.L92:
 555:main_cm4.c    ****             break;
 1999              		.loc 1 555 0
 2000 00c6 0978     		ldrb	r1, [r1]	@ zero_extendqisi2
 2001              	.LVL225:
 2002 00c8 5A48     		ldr	r0, .L118+24
 2003              	.LVL226:
 2004 00ca FFF7FEFF 		bl	printf
 2005              	.LVL227:
 556:main_cm4.c    ****             
ARM GAS  C:\Users\seeho\AppData\Local\Temp\ccUkk7Dc.s 			page 80


 2006              		.loc 1 556 0
 2007 00ce 70BD     		pop	{r4, r5, r6, pc}
 2008              	.LVL228:
 2009              	.L96:
 560:main_cm4.c    ****             break;
 2010              		.loc 1 560 0
 2011 00d0 5948     		ldr	r0, .L118+28
 2012              	.LVL229:
 2013 00d2 FFF7FEFF 		bl	puts
 2014              	.LVL230:
 561:main_cm4.c    ****             
 2015              		.loc 1 561 0
 2016 00d6 70BD     		pop	{r4, r5, r6, pc}
 2017              	.LVL231:
 2018              	.L94:
 566:main_cm4.c    ****             for(i = CY_BLE_GAP_BD_ADDR_SIZE; i > 0u; i--)
 2019              		.loc 1 566 0
 2020 00d8 5848     		ldr	r0, .L118+32
 2021              	.LVL232:
 2022 00da FFF7FEFF 		bl	printf
 2023              	.LVL233:
 567:main_cm4.c    ****             {
 2024              		.loc 1 567 0
 2025 00de 0624     		movs	r4, #6
 2026 00e0 0EE0     		b	.L107
 2027              	.LVL234:
 2028              	.L108:
 570:main_cm4.c    ****                 
 2029              		.loc 1 570 0 discriminator 3
 2030 00e2 6B68     		ldr	r3, [r5, #4]
 2031 00e4 1B68     		ldr	r3, [r3]
 2032 00e6 013C     		subs	r4, r4, #1
 2033              	.LVL235:
 2034 00e8 554E     		ldr	r6, .L118+36
 2035 00ea 195D     		ldrb	r1, [r3, r4]	@ zero_extendqisi2
 2036 00ec 3046     		mov	r0, r6
 2037 00ee FFF7FEFF 		bl	printf
 2038              	.LVL236:
 573:main_cm4.c    ****             }
 2039              		.loc 1 573 0 discriminator 3
 2040 00f2 6B68     		ldr	r3, [r5, #4]
 2041 00f4 5B68     		ldr	r3, [r3, #4]
 2042 00f6 195D     		ldrb	r1, [r3, r4]	@ zero_extendqisi2
 2043 00f8 3046     		mov	r0, r6
 2044 00fa FFF7FEFF 		bl	printf
 2045              	.LVL237:
 567:main_cm4.c    ****             {
 2046              		.loc 1 567 0 discriminator 3
 2047 00fe E4B2     		uxtb	r4, r4
 2048              	.LVL238:
 2049              	.L107:
 567:main_cm4.c    ****             {
 2050              		.loc 1 567 0 is_stmt 0 discriminator 1
 2051 0100 002C     		cmp	r4, #0
 2052 0102 EED1     		bne	.L108
 575:main_cm4.c    ****             break;
 2053              		.loc 1 575 0 is_stmt 1
ARM GAS  C:\Users\seeho\AppData\Local\Temp\ccUkk7Dc.s 			page 81


 2054 0104 4F48     		ldr	r0, .L118+40
 2055 0106 FFF7FEFF 		bl	puts
 2056              	.LVL239:
 576:main_cm4.c    ****          
 2057              		.loc 1 576 0
 2058 010a 70BD     		pop	{r4, r5, r6, pc}
 2059              	.LVL240:
 2060              	.L95:
 580:main_cm4.c    ****             break;
 2061              		.loc 1 580 0
 2062 010c 4E48     		ldr	r0, .L118+44
 2063              	.LVL241:
 2064 010e FFF7FEFF 		bl	puts
 2065              	.LVL242:
 581:main_cm4.c    ****                         
 2066              		.loc 1 581 0
 2067 0112 70BD     		pop	{r4, r5, r6, pc}
 2068              	.LVL243:
 2069              	.L87:
 590:main_cm4.c    ****             break;
 2070              		.loc 1 590 0
 2071 0114 4D48     		ldr	r0, .L118+48
 2072              	.LVL244:
 2073 0116 FFF7FEFF 		bl	printf
 2074              	.LVL245:
 591:main_cm4.c    ****             
 2075              		.loc 1 591 0
 2076 011a 70BD     		pop	{r4, r5, r6, pc}
 2077              	.LVL246:
 2078              	.L100:
 596:main_cm4.c    ****             break;
 2079              		.loc 1 596 0
 2080 011c 4C48     		ldr	r0, .L118+52
 2081              	.LVL247:
 2082 011e FFF7FEFF 		bl	puts
 2083              	.LVL248:
 597:main_cm4.c    ****         
 2084              		.loc 1 597 0
 2085 0122 70BD     		pop	{r4, r5, r6, pc}
 2086              	.LVL249:
 2087              	.L101:
 603:main_cm4.c    ****             break;
 2088              		.loc 1 603 0
 2089 0124 4B48     		ldr	r0, .L118+56
 2090              	.LVL250:
 2091 0126 FFF7FEFF 		bl	puts
 2092              	.LVL251:
 604:main_cm4.c    ****                      
 2093              		.loc 1 604 0
 2094 012a 70BD     		pop	{r4, r5, r6, pc}
 2095              	.LVL252:
 2096              	.L97:
 613:main_cm4.c    ****                         (*(cy_stc_ble_conn_handle_t *)eventParameter).attId, 
 2097              		.loc 1 613 0
 2098 012c 0A78     		ldrb	r2, [r1]	@ zero_extendqisi2
 2099 012e 4978     		ldrb	r1, [r1, #1]	@ zero_extendqisi2
 2100              	.LVL253:
ARM GAS  C:\Users\seeho\AppData\Local\Temp\ccUkk7Dc.s 			page 82


 2101 0130 4948     		ldr	r0, .L118+60
 2102              	.LVL254:
 2103 0132 FFF7FEFF 		bl	printf
 2104              	.LVL255:
 616:main_cm4.c    ****                         (*(cy_stc_ble_conn_handle_t *)eventParameter).attId);
 2105              		.loc 1 616 0
 2106 0136 6978     		ldrb	r1, [r5, #1]	@ zero_extendqisi2
 2107 0138 4848     		ldr	r0, .L118+64
 2108 013a FFF7FEFF 		bl	printf
 2109              	.LVL256:
 2110              	.LBB499:
 2111              	.LBB500:
 2112              		.loc 3 486 0
 2113 013e 384B     		ldr	r3, .L118+4
 2114 0140 0022     		movs	r2, #0
 2115 0142 1A61     		str	r2, [r3, #16]
 2116              	.LVL257:
 2117              	.LBE500:
 2118              	.LBE499:
 2119              	.LBB501:
 2120              	.LBB502:
 2121              		.loc 4 260 0
 2122 0144 0122     		movs	r2, #1
 2123 0146 5A60     		str	r2, [r3, #4]
 2124              	.LVL258:
 2125              	.LBE502:
 2126              	.LBE501:
 624:main_cm4.c    ****             break;
 2127              		.loc 1 624 0
 2128 0148 FFF7FEFF 		bl	PWM_DIM_Start
 2129              	.LVL259:
 625:main_cm4.c    ****             
 2130              		.loc 1 625 0
 2131 014c 70BD     		pop	{r4, r5, r6, pc}
 2132              	.LVL260:
 2133              	.L103:
 630:main_cm4.c    ****             break;
 2134              		.loc 1 630 0
 2135 014e 4448     		ldr	r0, .L118+68
 2136              	.LVL261:
 2137 0150 FFF7FEFF 		bl	puts
 2138              	.LVL262:
 631:main_cm4.c    ****             
 2139              		.loc 1 631 0
 2140 0154 70BD     		pop	{r4, r5, r6, pc}
 2141              	.LVL263:
 2142              	.L104:
 639:main_cm4.c    ****             writeReqParameter = (cy_stc_ble_gatts_write_cmd_req_param_t *)eventParameter; 
 2143              		.loc 1 639 0
 2144 0156 4348     		ldr	r0, .L118+72
 2145              	.LVL264:
 2146 0158 FFF7FEFF 		bl	puts
 2147              	.LVL265:
 642:main_cm4.c    ****             {
 2148              		.loc 1 642 0
 2149 015c 2B89     		ldrh	r3, [r5, #8]
 2150 015e 102B     		cmp	r3, #16
ARM GAS  C:\Users\seeho\AppData\Local\Temp\ccUkk7Dc.s 			page 83


 2151 0160 26D1     		bne	.L109
 653:main_cm4.c    ****                 {
 2152              		.loc 1 653 0
 2153 0162 0A21     		movs	r1, #10
 2154 0164 404B     		ldr	r3, .L118+76
 2155 0166 1868     		ldr	r0, [r3]
 2156 0168 FFF7FEFF 		bl	xQueueSemaphoreTake
 2157              	.LVL266:
 2158 016c 0128     		cmp	r0, #1
 2159 016e 10D1     		bne	.L110
 655:main_cm4.c    ****                     if(val>100) val = 100;
 2160              		.loc 1 655 0
 2161 0170 2B68     		ldr	r3, [r5]
 2162 0172 1B78     		ldrb	r3, [r3]	@ zero_extendqisi2
 2163 0174 3D4A     		ldr	r2, .L118+80
 2164 0176 5360     		str	r3, [r2, #4]
 656:main_cm4.c    ****                     
 2165              		.loc 1 656 0
 2166 0178 642B     		cmp	r3, #100
 2167 017a 02D9     		bls	.L111
 656:main_cm4.c    ****                     
 2168              		.loc 1 656 0 is_stmt 0 discriminator 1
 2169 017c 6422     		movs	r2, #100
 2170 017e 3B4B     		ldr	r3, .L118+80
 2171 0180 5A60     		str	r2, [r3, #4]
 2172              	.L111:
 658:main_cm4.c    ****                 }
 2173              		.loc 1 658 0 is_stmt 1
 2174 0182 0023     		movs	r3, #0
 2175 0184 1A46     		mov	r2, r3
 2176 0186 1946     		mov	r1, r3
 2177 0188 3748     		ldr	r0, .L118+76
 2178 018a 0068     		ldr	r0, [r0]
 2179 018c FFF7FEFF 		bl	xQueueGenericSend
 2180              	.LVL267:
 2181 0190 02E0     		b	.L112
 2182              	.L110:
 664:main_cm4.c    ****                 }               
 2183              		.loc 1 664 0
 2184 0192 3748     		ldr	r0, .L118+84
 2185 0194 FFF7FEFF 		bl	puts
 2186              	.LVL268:
 2187              	.L112:
 667:main_cm4.c    ****                 
 2188              		.loc 1 667 0
 2189 0198 344B     		ldr	r3, .L118+80
 2190 019a 5A68     		ldr	r2, [r3, #4]
 2191              	.LVL269:
 2192              	.LBB503:
 2193              	.LBB504:
 261:Generated_Source\PSoC6\pdl\drivers/peripheral/tcpwm/cy_tcpwm_pwm.h **** }
 262:Generated_Source\PSoC6\pdl\drivers/peripheral/tcpwm/cy_tcpwm_pwm.h **** 
 263:Generated_Source\PSoC6\pdl\drivers/peripheral/tcpwm/cy_tcpwm_pwm.h **** 
 264:Generated_Source\PSoC6\pdl\drivers/peripheral/tcpwm/cy_tcpwm_pwm.h **** /*******************************************************************************
 265:Generated_Source\PSoC6\pdl\drivers/peripheral/tcpwm/cy_tcpwm_pwm.h **** * Function Name: Cy_TCPWM_PWM_GetStatus
 266:Generated_Source\PSoC6\pdl\drivers/peripheral/tcpwm/cy_tcpwm_pwm.h **** ****************************************************************************//**
 267:Generated_Source\PSoC6\pdl\drivers/peripheral/tcpwm/cy_tcpwm_pwm.h **** *
ARM GAS  C:\Users\seeho\AppData\Local\Temp\ccUkk7Dc.s 			page 84


 268:Generated_Source\PSoC6\pdl\drivers/peripheral/tcpwm/cy_tcpwm_pwm.h **** * Returns the status of the PWM.
 269:Generated_Source\PSoC6\pdl\drivers/peripheral/tcpwm/cy_tcpwm_pwm.h **** *
 270:Generated_Source\PSoC6\pdl\drivers/peripheral/tcpwm/cy_tcpwm_pwm.h **** * \param base
 271:Generated_Source\PSoC6\pdl\drivers/peripheral/tcpwm/cy_tcpwm_pwm.h **** * The pointer to a TCPWM instance.
 272:Generated_Source\PSoC6\pdl\drivers/peripheral/tcpwm/cy_tcpwm_pwm.h **** *
 273:Generated_Source\PSoC6\pdl\drivers/peripheral/tcpwm/cy_tcpwm_pwm.h **** * \param cntNum 
 274:Generated_Source\PSoC6\pdl\drivers/peripheral/tcpwm/cy_tcpwm_pwm.h **** * The Counter instance number in the selected TCPWM.
 275:Generated_Source\PSoC6\pdl\drivers/peripheral/tcpwm/cy_tcpwm_pwm.h **** *
 276:Generated_Source\PSoC6\pdl\drivers/peripheral/tcpwm/cy_tcpwm_pwm.h **** * \return
 277:Generated_Source\PSoC6\pdl\drivers/peripheral/tcpwm/cy_tcpwm_pwm.h **** * The status. See \ref group_tcpwm_pwm_status
 278:Generated_Source\PSoC6\pdl\drivers/peripheral/tcpwm/cy_tcpwm_pwm.h **** *
 279:Generated_Source\PSoC6\pdl\drivers/peripheral/tcpwm/cy_tcpwm_pwm.h **** * \funcusage
 280:Generated_Source\PSoC6\pdl\drivers/peripheral/tcpwm/cy_tcpwm_pwm.h **** * \snippet tcpwm\1.10\pwm\snippet\main.c snippet_Cy_TCPWM_PWM_GetStatus
 281:Generated_Source\PSoC6\pdl\drivers/peripheral/tcpwm/cy_tcpwm_pwm.h **** *
 282:Generated_Source\PSoC6\pdl\drivers/peripheral/tcpwm/cy_tcpwm_pwm.h **** *******************************************************************************/
 283:Generated_Source\PSoC6\pdl\drivers/peripheral/tcpwm/cy_tcpwm_pwm.h **** __STATIC_INLINE uint32_t Cy_TCPWM_PWM_GetStatus(TCPWM_Type const *base, uint32_t cntNum)
 284:Generated_Source\PSoC6\pdl\drivers/peripheral/tcpwm/cy_tcpwm_pwm.h **** {
 285:Generated_Source\PSoC6\pdl\drivers/peripheral/tcpwm/cy_tcpwm_pwm.h ****     uint32_t status = TCPWM_CNT_STATUS(base, cntNum);
 286:Generated_Source\PSoC6\pdl\drivers/peripheral/tcpwm/cy_tcpwm_pwm.h ****     
 287:Generated_Source\PSoC6\pdl\drivers/peripheral/tcpwm/cy_tcpwm_pwm.h ****     /* Generates proper up counting status, does not generated by HW */
 288:Generated_Source\PSoC6\pdl\drivers/peripheral/tcpwm/cy_tcpwm_pwm.h ****     status &= ~CY_TCPWM_PWM_STATUS_UP_COUNTING;
 289:Generated_Source\PSoC6\pdl\drivers/peripheral/tcpwm/cy_tcpwm_pwm.h ****     status |= ((~status & CY_TCPWM_PWM_STATUS_DOWN_COUNTING & (status >> TCPWM_CNT_STATUS_RUNNING_P
 290:Generated_Source\PSoC6\pdl\drivers/peripheral/tcpwm/cy_tcpwm_pwm.h ****                CY_TCPWM_CNT_STATUS_UP_POS);
 291:Generated_Source\PSoC6\pdl\drivers/peripheral/tcpwm/cy_tcpwm_pwm.h ****     
 292:Generated_Source\PSoC6\pdl\drivers/peripheral/tcpwm/cy_tcpwm_pwm.h ****     return(status);
 293:Generated_Source\PSoC6\pdl\drivers/peripheral/tcpwm/cy_tcpwm_pwm.h **** }
 294:Generated_Source\PSoC6\pdl\drivers/peripheral/tcpwm/cy_tcpwm_pwm.h **** 
 295:Generated_Source\PSoC6\pdl\drivers/peripheral/tcpwm/cy_tcpwm_pwm.h **** 
 296:Generated_Source\PSoC6\pdl\drivers/peripheral/tcpwm/cy_tcpwm_pwm.h **** /*******************************************************************************
 297:Generated_Source\PSoC6\pdl\drivers/peripheral/tcpwm/cy_tcpwm_pwm.h **** * Function Name: Cy_TCPWM_PWM_SetCompare0
 298:Generated_Source\PSoC6\pdl\drivers/peripheral/tcpwm/cy_tcpwm_pwm.h **** ****************************************************************************//**
 299:Generated_Source\PSoC6\pdl\drivers/peripheral/tcpwm/cy_tcpwm_pwm.h **** *
 300:Generated_Source\PSoC6\pdl\drivers/peripheral/tcpwm/cy_tcpwm_pwm.h **** * Sets the compare value for Compare0 when the compare mode enabled.
 301:Generated_Source\PSoC6\pdl\drivers/peripheral/tcpwm/cy_tcpwm_pwm.h **** *
 302:Generated_Source\PSoC6\pdl\drivers/peripheral/tcpwm/cy_tcpwm_pwm.h **** * \param base
 303:Generated_Source\PSoC6\pdl\drivers/peripheral/tcpwm/cy_tcpwm_pwm.h **** * The pointer to a TCPWM instance.
 304:Generated_Source\PSoC6\pdl\drivers/peripheral/tcpwm/cy_tcpwm_pwm.h **** *
 305:Generated_Source\PSoC6\pdl\drivers/peripheral/tcpwm/cy_tcpwm_pwm.h **** * \param cntNum 
 306:Generated_Source\PSoC6\pdl\drivers/peripheral/tcpwm/cy_tcpwm_pwm.h **** * The Counter instance number in the selected TCPWM.
 307:Generated_Source\PSoC6\pdl\drivers/peripheral/tcpwm/cy_tcpwm_pwm.h **** *
 308:Generated_Source\PSoC6\pdl\drivers/peripheral/tcpwm/cy_tcpwm_pwm.h **** * \param compare0
 309:Generated_Source\PSoC6\pdl\drivers/peripheral/tcpwm/cy_tcpwm_pwm.h **** * The Compare0 value.
 310:Generated_Source\PSoC6\pdl\drivers/peripheral/tcpwm/cy_tcpwm_pwm.h **** *
 311:Generated_Source\PSoC6\pdl\drivers/peripheral/tcpwm/cy_tcpwm_pwm.h **** * \funcusage
 312:Generated_Source\PSoC6\pdl\drivers/peripheral/tcpwm/cy_tcpwm_pwm.h **** * \snippet tcpwm\1.10\pwm\snippet\main.c snippet_Cy_TCPWM_PWM_SetCompare0
 313:Generated_Source\PSoC6\pdl\drivers/peripheral/tcpwm/cy_tcpwm_pwm.h **** *
 314:Generated_Source\PSoC6\pdl\drivers/peripheral/tcpwm/cy_tcpwm_pwm.h **** *******************************************************************************/
 315:Generated_Source\PSoC6\pdl\drivers/peripheral/tcpwm/cy_tcpwm_pwm.h **** __STATIC_INLINE void Cy_TCPWM_PWM_SetCompare0(TCPWM_Type *base, uint32_t cntNum,  uint32_t compare0
 316:Generated_Source\PSoC6\pdl\drivers/peripheral/tcpwm/cy_tcpwm_pwm.h **** {
 317:Generated_Source\PSoC6\pdl\drivers/peripheral/tcpwm/cy_tcpwm_pwm.h ****     TCPWM_CNT_CC(base, cntNum) = compare0;
 2194              		.loc 4 317 0
 2195 019c 204B     		ldr	r3, .L118+4
 2196 019e C3F84C21 		str	r2, [r3, #332]
 2197              	.LVL270:
 2198              	.LBE504:
 2199              	.LBE503:
 670:main_cm4.c    ****             writeDisplayEventHandler();
ARM GAS  C:\Users\seeho\AppData\Local\Temp\ccUkk7Dc.s 			page 85


 2200              		.loc 1 670 0
 2201 01a2 0A21     		movs	r1, #10
 2202 01a4 304B     		ldr	r3, .L118+76
 2203 01a6 1868     		ldr	r0, [r3]
 2204 01a8 FFF7FEFF 		bl	xQueueSemaphoreTake
 2205              	.LVL271:
 671:main_cm4.c    ****             }
 2206              		.loc 1 671 0
 2207 01ac FFF7FEFF 		bl	writeDisplayEventHandler
 2208              	.LVL272:
 2209              	.L109:
 684:main_cm4.c    ****             {
 2210              		.loc 1 684 0
 2211 01b0 2B89     		ldrh	r3, [r5, #8]
 2212 01b2 132B     		cmp	r3, #19
 2213 01b4 05D1     		bne	.L113
 686:main_cm4.c    ****                 writeDisplayPA(); /* Actual function for future use */    
 2214              		.loc 1 686 0
 2215 01b6 2B68     		ldr	r3, [r5]
 2216 01b8 1A78     		ldrb	r2, [r3]	@ zero_extendqisi2
 2217 01ba 2E4B     		ldr	r3, .L118+88
 2218 01bc 1A60     		str	r2, [r3]
 687:main_cm4.c    ****             }
 2219              		.loc 1 687 0
 2220 01be FFF7FEFF 		bl	writeDisplayPA
 2221              	.LVL273:
 2222              	.L113:
 695:main_cm4.c    ****             {
 2223              		.loc 1 695 0
 2224 01c2 2B89     		ldrh	r3, [r5, #8]
 2225 01c4 162B     		cmp	r3, #22
 2226 01c6 05D1     		bne	.L114
 697:main_cm4.c    ****                 writeDisplayMUX(); /* Actual function for future use */  
 2227              		.loc 1 697 0
 2228 01c8 2B68     		ldr	r3, [r5]
 2229 01ca 1A78     		ldrb	r2, [r3]	@ zero_extendqisi2
 2230 01cc 274B     		ldr	r3, .L118+80
 2231 01ce 1A60     		str	r2, [r3]
 698:main_cm4.c    ****             }
 2232              		.loc 1 698 0
 2233 01d0 FFF7FEFF 		bl	writeDisplayMUX
 2234              	.LVL274:
 2235              	.L114:
 706:main_cm4.c    ****             {
 2236              		.loc 1 706 0
 2237 01d4 2B89     		ldrh	r3, [r5, #8]
 2238 01d6 192B     		cmp	r3, #25
 2239 01d8 05D1     		bne	.L115
 708:main_cm4.c    ****                 writeDisplayOSC(); /* Actual function for future use */  
 2240              		.loc 1 708 0
 2241 01da 2B68     		ldr	r3, [r5]
 2242 01dc 1A78     		ldrb	r2, [r3]	@ zero_extendqisi2
 2243 01de 254B     		ldr	r3, .L118+88
 2244 01e0 5A60     		str	r2, [r3, #4]
 709:main_cm4.c    ****             }
 2245              		.loc 1 709 0
 2246 01e2 FFF7FEFF 		bl	writeDisplayOSC
ARM GAS  C:\Users\seeho\AppData\Local\Temp\ccUkk7Dc.s 			page 86


 2247              	.LVL275:
 2248              	.L115:
 717:main_cm4.c    ****             {
 2249              		.loc 1 717 0
 2250 01e6 2B89     		ldrh	r3, [r5, #8]
 2251 01e8 1C2B     		cmp	r3, #28
 2252 01ea 05D1     		bne	.L116
 719:main_cm4.c    ****                 writeDisplayMISC(); /* Actual function for future use */   
 2253              		.loc 1 719 0
 2254 01ec 2B68     		ldr	r3, [r5]
 2255 01ee 1A78     		ldrb	r2, [r3]	@ zero_extendqisi2
 2256 01f0 1E4B     		ldr	r3, .L118+80
 2257 01f2 9A60     		str	r2, [r3, #8]
 720:main_cm4.c    ****             }  
 2258              		.loc 1 720 0
 2259 01f4 FFF7FEFF 		bl	writeDisplayMISC
 2260              	.LVL276:
 2261              	.L116:
 726:main_cm4.c    ****             break;
 2262              		.loc 1 726 0
 2263 01f8 E868     		ldr	r0, [r5, #12]
 2264 01fa FFF7FEFF 		bl	Cy_BLE_GATTS_WriteRsp
 2265              	.LVL277:
 727:main_cm4.c    ****          
 2266              		.loc 1 727 0
 2267 01fe 70BD     		pop	{r4, r5, r6, pc}
 2268              	.LVL278:
 2269              	.L102:
 732:main_cm4.c    ****             break;
 2270              		.loc 1 732 0
 2271 0200 1D48     		ldr	r0, .L118+92
 2272              	.LVL279:
 2273 0202 FFF7FEFF 		bl	puts
 2274              	.LVL280:
 733:main_cm4.c    ****         
 2275              		.loc 1 733 0
 2276 0206 70BD     		pop	{r4, r5, r6, pc}
 2277              	.LVL281:
 2278              	.L105:
 738:main_cm4.c    ****             break;
 2279              		.loc 1 738 0
 2280 0208 1C48     		ldr	r0, .L118+96
 2281              	.LVL282:
 2282 020a FFF7FEFF 		bl	puts
 2283              	.LVL283:
 739:main_cm4.c    **** 
 2284              		.loc 1 739 0
 2285 020e 70BD     		pop	{r4, r5, r6, pc}
 2286              	.LVL284:
 2287              	.L86:
 745:main_cm4.c    **** 			break;
 2288              		.loc 1 745 0
 2289 0210 0146     		mov	r1, r0
 2290              	.LVL285:
 2291 0212 1B48     		ldr	r0, .L118+100
 2292              	.LVL286:
 2293 0214 FFF7FEFF 		bl	printf
ARM GAS  C:\Users\seeho\AppData\Local\Temp\ccUkk7Dc.s 			page 87


 2294              	.LVL287:
 2295 0218 70BD     		pop	{r4, r5, r6, pc}
 2296              	.LVL288:
 2297              	.L119:
 2298 021a 00BF     		.align	2
 2299              	.L118:
 2300 021c 7C030000 		.word	.LC45
 2301 0220 00003840 		.word	1077411840
 2302 0224 94030000 		.word	.LC46
 2303 0228 AC030000 		.word	.LC47
 2304 022c D0030000 		.word	.LC48
 2305 0230 E8030000 		.word	.LC49
 2306 0234 04040000 		.word	.LC50
 2307 0238 28040000 		.word	.LC51
 2308 023c 50040000 		.word	.LC52
 2309 0240 78040000 		.word	.LC53
 2310 0244 80040000 		.word	.LC54
 2311 0248 84040000 		.word	.LC55
 2312 024c A8040000 		.word	.LC56
 2313 0250 D4040000 		.word	.LC57
 2314 0254 F8040000 		.word	.LC58
 2315 0258 24050000 		.word	.LC59
 2316 025c 4C050000 		.word	.LC60
 2317 0260 70050000 		.word	.LC61
 2318 0264 94050000 		.word	.LC62
 2319 0268 00000000 		.word	bleSemaphoreval
 2320 026c 00000000 		.word	.LANCHOR0
 2321 0270 B0050000 		.word	.LC63
 2322 0274 00000000 		.word	.LANCHOR1
 2323 0278 C8050000 		.word	.LC64
 2324 027c EC050000 		.word	.LC65
 2325 0280 18060000 		.word	.LC66
 2326              		.cfi_endproc
 2327              	.LFE647:
 2328              		.size	genericEventHandler, .-genericEventHandler
 2329              		.section	.text.main,"ax",%progbits
 2330              		.align	2
 2331              		.global	main
 2332              		.thumb
 2333              		.thumb_func
 2334              		.type	main, %function
 2335              	main:
 2336              	.LFB650:
 815:main_cm4.c    ****     }   
 816:main_cm4.c    **** }
 817:main_cm4.c    **** 
 818:main_cm4.c    **** int main(void)
 819:main_cm4.c    **** {
 2337              		.loc 1 819 0
 2338              		.cfi_startproc
 2339              		@ Volatile: function does not return.
 2340              		@ args = 0, pretend = 0, frame = 0
 2341              		@ frame_needed = 0, uses_anonymous_args = 0
 2342 0000 00B5     		push	{lr}
 2343              		.cfi_def_cfa_offset 4
 2344              		.cfi_offset 14, -4
 2345 0002 83B0     		sub	sp, sp, #12
ARM GAS  C:\Users\seeho\AppData\Local\Temp\ccUkk7Dc.s 			page 88


 2346              		.cfi_def_cfa_offset 16
 2347              	.LBB505:
 2348              	.LBB506:
 2349              		.file 5 "Generated_Source\\PSoC6\\pdl\\cmsis/include/cmsis_gcc.h"
   1:Generated_Source\PSoC6\pdl\cmsis/include/cmsis_gcc.h **** /**************************************************************************//**
   2:Generated_Source\PSoC6\pdl\cmsis/include/cmsis_gcc.h ****  * @file     cmsis_gcc.h
   3:Generated_Source\PSoC6\pdl\cmsis/include/cmsis_gcc.h ****  * @brief    CMSIS compiler GCC header file
   4:Generated_Source\PSoC6\pdl\cmsis/include/cmsis_gcc.h ****  * @version  V5.0.3
   5:Generated_Source\PSoC6\pdl\cmsis/include/cmsis_gcc.h ****  * @date     16. January 2018
   6:Generated_Source\PSoC6\pdl\cmsis/include/cmsis_gcc.h ****  ******************************************************************************/
   7:Generated_Source\PSoC6\pdl\cmsis/include/cmsis_gcc.h **** /*
   8:Generated_Source\PSoC6\pdl\cmsis/include/cmsis_gcc.h ****  * Copyright (c) 2009-2017 ARM Limited. All rights reserved.
   9:Generated_Source\PSoC6\pdl\cmsis/include/cmsis_gcc.h ****  *
  10:Generated_Source\PSoC6\pdl\cmsis/include/cmsis_gcc.h ****  * SPDX-License-Identifier: Apache-2.0
  11:Generated_Source\PSoC6\pdl\cmsis/include/cmsis_gcc.h ****  *
  12:Generated_Source\PSoC6\pdl\cmsis/include/cmsis_gcc.h ****  * Licensed under the Apache License, Version 2.0 (the License); you may
  13:Generated_Source\PSoC6\pdl\cmsis/include/cmsis_gcc.h ****  * not use this file except in compliance with the License.
  14:Generated_Source\PSoC6\pdl\cmsis/include/cmsis_gcc.h ****  * You may obtain a copy of the License at
  15:Generated_Source\PSoC6\pdl\cmsis/include/cmsis_gcc.h ****  *
  16:Generated_Source\PSoC6\pdl\cmsis/include/cmsis_gcc.h ****  * www.apache.org/licenses/LICENSE-2.0
  17:Generated_Source\PSoC6\pdl\cmsis/include/cmsis_gcc.h ****  *
  18:Generated_Source\PSoC6\pdl\cmsis/include/cmsis_gcc.h ****  * Unless required by applicable law or agreed to in writing, software
  19:Generated_Source\PSoC6\pdl\cmsis/include/cmsis_gcc.h ****  * distributed under the License is distributed on an AS IS BASIS, WITHOUT
  20:Generated_Source\PSoC6\pdl\cmsis/include/cmsis_gcc.h ****  * WARRANTIES OR CONDITIONS OF ANY KIND, either express or implied.
  21:Generated_Source\PSoC6\pdl\cmsis/include/cmsis_gcc.h ****  * See the License for the specific language governing permissions and
  22:Generated_Source\PSoC6\pdl\cmsis/include/cmsis_gcc.h ****  * limitations under the License.
  23:Generated_Source\PSoC6\pdl\cmsis/include/cmsis_gcc.h ****  */
  24:Generated_Source\PSoC6\pdl\cmsis/include/cmsis_gcc.h **** 
  25:Generated_Source\PSoC6\pdl\cmsis/include/cmsis_gcc.h **** #ifndef __CMSIS_GCC_H
  26:Generated_Source\PSoC6\pdl\cmsis/include/cmsis_gcc.h **** #define __CMSIS_GCC_H
  27:Generated_Source\PSoC6\pdl\cmsis/include/cmsis_gcc.h **** 
  28:Generated_Source\PSoC6\pdl\cmsis/include/cmsis_gcc.h **** /* ignore some GCC warnings */
  29:Generated_Source\PSoC6\pdl\cmsis/include/cmsis_gcc.h **** #pragma GCC diagnostic push
  30:Generated_Source\PSoC6\pdl\cmsis/include/cmsis_gcc.h **** #pragma GCC diagnostic ignored "-Wsign-conversion"
  31:Generated_Source\PSoC6\pdl\cmsis/include/cmsis_gcc.h **** #pragma GCC diagnostic ignored "-Wconversion"
  32:Generated_Source\PSoC6\pdl\cmsis/include/cmsis_gcc.h **** #pragma GCC diagnostic ignored "-Wunused-parameter"
  33:Generated_Source\PSoC6\pdl\cmsis/include/cmsis_gcc.h **** 
  34:Generated_Source\PSoC6\pdl\cmsis/include/cmsis_gcc.h **** /* Fallback for __has_builtin */
  35:Generated_Source\PSoC6\pdl\cmsis/include/cmsis_gcc.h **** #ifndef __has_builtin
  36:Generated_Source\PSoC6\pdl\cmsis/include/cmsis_gcc.h ****   #define __has_builtin(x) (0)
  37:Generated_Source\PSoC6\pdl\cmsis/include/cmsis_gcc.h **** #endif
  38:Generated_Source\PSoC6\pdl\cmsis/include/cmsis_gcc.h **** 
  39:Generated_Source\PSoC6\pdl\cmsis/include/cmsis_gcc.h **** /* CMSIS compiler specific defines */
  40:Generated_Source\PSoC6\pdl\cmsis/include/cmsis_gcc.h **** #ifndef   __ASM
  41:Generated_Source\PSoC6\pdl\cmsis/include/cmsis_gcc.h ****   #define __ASM                                  __asm
  42:Generated_Source\PSoC6\pdl\cmsis/include/cmsis_gcc.h **** #endif
  43:Generated_Source\PSoC6\pdl\cmsis/include/cmsis_gcc.h **** #ifndef   __INLINE
  44:Generated_Source\PSoC6\pdl\cmsis/include/cmsis_gcc.h ****   #define __INLINE                               inline
  45:Generated_Source\PSoC6\pdl\cmsis/include/cmsis_gcc.h **** #endif
  46:Generated_Source\PSoC6\pdl\cmsis/include/cmsis_gcc.h **** #ifndef   __STATIC_INLINE
  47:Generated_Source\PSoC6\pdl\cmsis/include/cmsis_gcc.h ****   #define __STATIC_INLINE                        static inline
  48:Generated_Source\PSoC6\pdl\cmsis/include/cmsis_gcc.h **** #endif
  49:Generated_Source\PSoC6\pdl\cmsis/include/cmsis_gcc.h **** #ifndef   __STATIC_FORCEINLINE                 
  50:Generated_Source\PSoC6\pdl\cmsis/include/cmsis_gcc.h ****   #define __STATIC_FORCEINLINE                   __attribute__((always_inline)) static inline
  51:Generated_Source\PSoC6\pdl\cmsis/include/cmsis_gcc.h **** #endif                                           
  52:Generated_Source\PSoC6\pdl\cmsis/include/cmsis_gcc.h **** #ifndef   __NO_RETURN
  53:Generated_Source\PSoC6\pdl\cmsis/include/cmsis_gcc.h ****   #define __NO_RETURN                            __attribute__((__noreturn__))
ARM GAS  C:\Users\seeho\AppData\Local\Temp\ccUkk7Dc.s 			page 89


  54:Generated_Source\PSoC6\pdl\cmsis/include/cmsis_gcc.h **** #endif
  55:Generated_Source\PSoC6\pdl\cmsis/include/cmsis_gcc.h **** #ifndef   __USED
  56:Generated_Source\PSoC6\pdl\cmsis/include/cmsis_gcc.h ****   #define __USED                                 __attribute__((used))
  57:Generated_Source\PSoC6\pdl\cmsis/include/cmsis_gcc.h **** #endif
  58:Generated_Source\PSoC6\pdl\cmsis/include/cmsis_gcc.h **** #ifndef   __WEAK
  59:Generated_Source\PSoC6\pdl\cmsis/include/cmsis_gcc.h ****   #define __WEAK                                 __attribute__((weak))
  60:Generated_Source\PSoC6\pdl\cmsis/include/cmsis_gcc.h **** #endif
  61:Generated_Source\PSoC6\pdl\cmsis/include/cmsis_gcc.h **** #ifndef   __PACKED
  62:Generated_Source\PSoC6\pdl\cmsis/include/cmsis_gcc.h ****   #define __PACKED                               __attribute__((packed, aligned(1)))
  63:Generated_Source\PSoC6\pdl\cmsis/include/cmsis_gcc.h **** #endif
  64:Generated_Source\PSoC6\pdl\cmsis/include/cmsis_gcc.h **** #ifndef   __PACKED_STRUCT
  65:Generated_Source\PSoC6\pdl\cmsis/include/cmsis_gcc.h ****   #define __PACKED_STRUCT                        struct __attribute__((packed, aligned(1)))
  66:Generated_Source\PSoC6\pdl\cmsis/include/cmsis_gcc.h **** #endif
  67:Generated_Source\PSoC6\pdl\cmsis/include/cmsis_gcc.h **** #ifndef   __PACKED_UNION
  68:Generated_Source\PSoC6\pdl\cmsis/include/cmsis_gcc.h ****   #define __PACKED_UNION                         union __attribute__((packed, aligned(1)))
  69:Generated_Source\PSoC6\pdl\cmsis/include/cmsis_gcc.h **** #endif
  70:Generated_Source\PSoC6\pdl\cmsis/include/cmsis_gcc.h **** #ifndef   __UNALIGNED_UINT32        /* deprecated */
  71:Generated_Source\PSoC6\pdl\cmsis/include/cmsis_gcc.h ****   #pragma GCC diagnostic push
  72:Generated_Source\PSoC6\pdl\cmsis/include/cmsis_gcc.h ****   #pragma GCC diagnostic ignored "-Wpacked"
  73:Generated_Source\PSoC6\pdl\cmsis/include/cmsis_gcc.h ****   #pragma GCC diagnostic ignored "-Wattributes"
  74:Generated_Source\PSoC6\pdl\cmsis/include/cmsis_gcc.h ****   struct __attribute__((packed)) T_UINT32 { uint32_t v; };
  75:Generated_Source\PSoC6\pdl\cmsis/include/cmsis_gcc.h ****   #pragma GCC diagnostic pop
  76:Generated_Source\PSoC6\pdl\cmsis/include/cmsis_gcc.h ****   #define __UNALIGNED_UINT32(x)                  (((struct T_UINT32 *)(x))->v)
  77:Generated_Source\PSoC6\pdl\cmsis/include/cmsis_gcc.h **** #endif
  78:Generated_Source\PSoC6\pdl\cmsis/include/cmsis_gcc.h **** #ifndef   __UNALIGNED_UINT16_WRITE
  79:Generated_Source\PSoC6\pdl\cmsis/include/cmsis_gcc.h ****   #pragma GCC diagnostic push
  80:Generated_Source\PSoC6\pdl\cmsis/include/cmsis_gcc.h ****   #pragma GCC diagnostic ignored "-Wpacked"
  81:Generated_Source\PSoC6\pdl\cmsis/include/cmsis_gcc.h ****   #pragma GCC diagnostic ignored "-Wattributes"
  82:Generated_Source\PSoC6\pdl\cmsis/include/cmsis_gcc.h ****   __PACKED_STRUCT T_UINT16_WRITE { uint16_t v; };
  83:Generated_Source\PSoC6\pdl\cmsis/include/cmsis_gcc.h ****   #pragma GCC diagnostic pop
  84:Generated_Source\PSoC6\pdl\cmsis/include/cmsis_gcc.h ****   #define __UNALIGNED_UINT16_WRITE(addr, val)    (void)((((struct T_UINT16_WRITE *)(void *)(addr))-
  85:Generated_Source\PSoC6\pdl\cmsis/include/cmsis_gcc.h **** #endif
  86:Generated_Source\PSoC6\pdl\cmsis/include/cmsis_gcc.h **** #ifndef   __UNALIGNED_UINT16_READ
  87:Generated_Source\PSoC6\pdl\cmsis/include/cmsis_gcc.h ****   #pragma GCC diagnostic push
  88:Generated_Source\PSoC6\pdl\cmsis/include/cmsis_gcc.h ****   #pragma GCC diagnostic ignored "-Wpacked"
  89:Generated_Source\PSoC6\pdl\cmsis/include/cmsis_gcc.h ****   #pragma GCC diagnostic ignored "-Wattributes"
  90:Generated_Source\PSoC6\pdl\cmsis/include/cmsis_gcc.h ****   __PACKED_STRUCT T_UINT16_READ { uint16_t v; };
  91:Generated_Source\PSoC6\pdl\cmsis/include/cmsis_gcc.h ****   #pragma GCC diagnostic pop
  92:Generated_Source\PSoC6\pdl\cmsis/include/cmsis_gcc.h ****   #define __UNALIGNED_UINT16_READ(addr)          (((const struct T_UINT16_READ *)(const void *)(add
  93:Generated_Source\PSoC6\pdl\cmsis/include/cmsis_gcc.h **** #endif
  94:Generated_Source\PSoC6\pdl\cmsis/include/cmsis_gcc.h **** #ifndef   __UNALIGNED_UINT32_WRITE
  95:Generated_Source\PSoC6\pdl\cmsis/include/cmsis_gcc.h ****   #pragma GCC diagnostic push
  96:Generated_Source\PSoC6\pdl\cmsis/include/cmsis_gcc.h ****   #pragma GCC diagnostic ignored "-Wpacked"
  97:Generated_Source\PSoC6\pdl\cmsis/include/cmsis_gcc.h ****   #pragma GCC diagnostic ignored "-Wattributes"
  98:Generated_Source\PSoC6\pdl\cmsis/include/cmsis_gcc.h ****   __PACKED_STRUCT T_UINT32_WRITE { uint32_t v; };
  99:Generated_Source\PSoC6\pdl\cmsis/include/cmsis_gcc.h ****   #pragma GCC diagnostic pop
 100:Generated_Source\PSoC6\pdl\cmsis/include/cmsis_gcc.h ****   #define __UNALIGNED_UINT32_WRITE(addr, val)    (void)((((struct T_UINT32_WRITE *)(void *)(addr))-
 101:Generated_Source\PSoC6\pdl\cmsis/include/cmsis_gcc.h **** #endif
 102:Generated_Source\PSoC6\pdl\cmsis/include/cmsis_gcc.h **** #ifndef   __UNALIGNED_UINT32_READ
 103:Generated_Source\PSoC6\pdl\cmsis/include/cmsis_gcc.h ****   #pragma GCC diagnostic push
 104:Generated_Source\PSoC6\pdl\cmsis/include/cmsis_gcc.h ****   #pragma GCC diagnostic ignored "-Wpacked"
 105:Generated_Source\PSoC6\pdl\cmsis/include/cmsis_gcc.h ****   #pragma GCC diagnostic ignored "-Wattributes"
 106:Generated_Source\PSoC6\pdl\cmsis/include/cmsis_gcc.h ****   __PACKED_STRUCT T_UINT32_READ { uint32_t v; };
 107:Generated_Source\PSoC6\pdl\cmsis/include/cmsis_gcc.h ****   #pragma GCC diagnostic pop
 108:Generated_Source\PSoC6\pdl\cmsis/include/cmsis_gcc.h ****   #define __UNALIGNED_UINT32_READ(addr)          (((const struct T_UINT32_READ *)(const void *)(add
 109:Generated_Source\PSoC6\pdl\cmsis/include/cmsis_gcc.h **** #endif
 110:Generated_Source\PSoC6\pdl\cmsis/include/cmsis_gcc.h **** #ifndef   __ALIGNED
ARM GAS  C:\Users\seeho\AppData\Local\Temp\ccUkk7Dc.s 			page 90


 111:Generated_Source\PSoC6\pdl\cmsis/include/cmsis_gcc.h ****   #define __ALIGNED(x)                           __attribute__((aligned(x)))
 112:Generated_Source\PSoC6\pdl\cmsis/include/cmsis_gcc.h **** #endif
 113:Generated_Source\PSoC6\pdl\cmsis/include/cmsis_gcc.h **** #ifndef   __RESTRICT
 114:Generated_Source\PSoC6\pdl\cmsis/include/cmsis_gcc.h ****   #define __RESTRICT                             __restrict
 115:Generated_Source\PSoC6\pdl\cmsis/include/cmsis_gcc.h **** #endif
 116:Generated_Source\PSoC6\pdl\cmsis/include/cmsis_gcc.h **** 
 117:Generated_Source\PSoC6\pdl\cmsis/include/cmsis_gcc.h **** 
 118:Generated_Source\PSoC6\pdl\cmsis/include/cmsis_gcc.h **** /* ###########################  Core Function Access  ########################### */
 119:Generated_Source\PSoC6\pdl\cmsis/include/cmsis_gcc.h **** /** \ingroup  CMSIS_Core_FunctionInterface
 120:Generated_Source\PSoC6\pdl\cmsis/include/cmsis_gcc.h ****     \defgroup CMSIS_Core_RegAccFunctions CMSIS Core Register Access Functions
 121:Generated_Source\PSoC6\pdl\cmsis/include/cmsis_gcc.h ****   @{
 122:Generated_Source\PSoC6\pdl\cmsis/include/cmsis_gcc.h ****  */
 123:Generated_Source\PSoC6\pdl\cmsis/include/cmsis_gcc.h **** 
 124:Generated_Source\PSoC6\pdl\cmsis/include/cmsis_gcc.h **** /**
 125:Generated_Source\PSoC6\pdl\cmsis/include/cmsis_gcc.h ****   \brief   Enable IRQ Interrupts
 126:Generated_Source\PSoC6\pdl\cmsis/include/cmsis_gcc.h ****   \details Enables IRQ interrupts by clearing the I-bit in the CPSR.
 127:Generated_Source\PSoC6\pdl\cmsis/include/cmsis_gcc.h ****            Can only be executed in Privileged modes.
 128:Generated_Source\PSoC6\pdl\cmsis/include/cmsis_gcc.h ****  */
 129:Generated_Source\PSoC6\pdl\cmsis/include/cmsis_gcc.h **** __STATIC_FORCEINLINE void __enable_irq(void)
 130:Generated_Source\PSoC6\pdl\cmsis/include/cmsis_gcc.h **** {
 131:Generated_Source\PSoC6\pdl\cmsis/include/cmsis_gcc.h ****   __ASM volatile ("cpsie i" : : : "memory");
 2350              		.loc 5 131 0
 2351              		.syntax unified
 2352              	@ 131 "Generated_Source\PSoC6\pdl\cmsis/include/cmsis_gcc.h" 1
 2353 0004 62B6     		cpsie i
 2354              	@ 0 "" 2
 2355              		.thumb
 2356              		.syntax unified
 2357              	.LBE506:
 2358              	.LBE505:
 820:main_cm4.c    ****     __enable_irq(); /* Enable global interrupts. */  
 821:main_cm4.c    ****     
 822:main_cm4.c    ****     UART_1_Start();
 2359              		.loc 1 822 0
 2360 0006 FFF7FEFF 		bl	UART_1_Start
 2361              	.LVL289:
 823:main_cm4.c    ****     setvbuf( stdin, NULL, _IONBF, 0 );
 2362              		.loc 1 823 0
 2363 000a 134C     		ldr	r4, .L123
 2364 000c 2068     		ldr	r0, [r4]
 2365 000e 0023     		movs	r3, #0
 2366 0010 0222     		movs	r2, #2
 2367 0012 1946     		mov	r1, r3
 2368 0014 4068     		ldr	r0, [r0, #4]
 2369 0016 FFF7FEFF 		bl	setvbuf
 2370              	.LVL290:
 824:main_cm4.c    ****     setvbuf( stdout, NULL, _IONBF, 0 );
 2371              		.loc 1 824 0
 2372 001a 2068     		ldr	r0, [r4]
 2373 001c 0023     		movs	r3, #0
 2374 001e 0222     		movs	r2, #2
 2375 0020 1946     		mov	r1, r3
 2376 0022 8068     		ldr	r0, [r0, #8]
 2377 0024 FFF7FEFF 		bl	setvbuf
 2378              	.LVL291:
 825:main_cm4.c    ****     printf("System Started Succesfully.\r\n");
 2379              		.loc 1 825 0
ARM GAS  C:\Users\seeho\AppData\Local\Temp\ccUkk7Dc.s 			page 91


 2380 0028 0C48     		ldr	r0, .L123+4
 2381 002a FFF7FEFF 		bl	puts
 2382              	.LVL292:
 826:main_cm4.c    ****     
 827:main_cm4.c    ****     /* Start two PWMs */
 828:main_cm4.c    ****     PWM_DIM_Start();
 2383              		.loc 1 828 0
 2384 002e FFF7FEFF 		bl	PWM_DIM_Start
 2385              	.LVL293:
 829:main_cm4.c    ****     PWM_BLINK_Start();
 2386              		.loc 1 829 0
 2387 0032 FFF7FEFF 		bl	PWM_BLINK_Start
 2388              	.LVL294:
 830:main_cm4.c    ****     
 831:main_cm4.c    ****     /**************************
 832:main_cm4.c    ****     * GPIO Initializartion Call
 833:main_cm4.c    ****     * PA, MUX, OSC, MISC, SW1
 834:main_cm4.c    ****     ***************************/
 835:main_cm4.c    ****     GPIOInit_1();
 2389              		.loc 1 835 0
 2390 0036 FFF7FEFF 		bl	GPIOInit_1
 2391              	.LVL295:
 836:main_cm4.c    ****     
 837:main_cm4.c    ****     /* Create one counter and call vTimerCallback */ 
 838:main_cm4.c    ****     CreateTimer_1();
 2392              		.loc 1 838 0
 2393 003a FFF7FEFF 		bl	CreateTimer_1
 2394              	.LVL296:
 839:main_cm4.c    ****     
 840:main_cm4.c    ****     xTaskCreate(bleTask,"bleTask",HEAP_SIZE_1,0,2,0);
 2395              		.loc 1 840 0
 2396 003e 0023     		movs	r3, #0
 2397 0040 0193     		str	r3, [sp, #4]
 2398 0042 0222     		movs	r2, #2
 2399 0044 0092     		str	r2, [sp]
 2400 0046 4FF40052 		mov	r2, #8192
 2401 004a 0549     		ldr	r1, .L123+8
 2402 004c 0548     		ldr	r0, .L123+12
 2403 004e FFF7FEFF 		bl	xTaskCreate
 2404              	.LVL297:
 841:main_cm4.c    ****     
 842:main_cm4.c    ****     vTaskStartScheduler();
 2405              		.loc 1 842 0
 2406 0052 FFF7FEFF 		bl	vTaskStartScheduler
 2407              	.LVL298:
 2408              	.L121:
 2409 0056 FEE7     		b	.L121
 2410              	.L124:
 2411              		.align	2
 2412              	.L123:
 2413 0058 00000000 		.word	_impure_ptr
 2414 005c 2C060000 		.word	.LC67
 2415 0060 4C060000 		.word	.LC68
 2416 0064 00000000 		.word	bleTask
 2417              		.cfi_endproc
 2418              	.LFE650:
 2419              		.size	main, .-main
ARM GAS  C:\Users\seeho\AppData\Local\Temp\ccUkk7Dc.s 			page 92


 2420              		.comm	xtimer,4,4
 2421              		.comm	bleSemaphoreval,4,4
 2422              		.comm	bleSemaphore,4,4
 2423              		.global	valMISC
 2424              		.global	valOSC
 2425              		.global	valMUX
 2426              		.global	valPA
 2427              		.global	val
 2428              		.data
 2429              		.align	2
 2430              		.set	.LANCHOR1,. + 0
 2431              		.type	valPA, %object
 2432              		.size	valPA, 4
 2433              	valPA:
 2434 0000 01000000 		.word	1
 2435              		.type	valOSC, %object
 2436              		.size	valOSC, 4
 2437              	valOSC:
 2438 0004 10000000 		.word	16
 2439              		.section	.rodata.str1.4,"aMS",%progbits,1
 2440              		.align	2
 2441              	.LC0:
 2442 0000 25642000 		.ascii	"%d \000"
 2443              	.LC1:
 2444 0004 0A282573 		.ascii	"\012(%s) expired at count: %d, \015\012\000"
 2444      29206578 
 2444      70697265 
 2444      64206174 
 2444      20636F75 
 2445 0023 00       		.space	1
 2446              	.LC2:
 2447 0024 0D0A7661 		.ascii	"\015\012val:[%x] PA:[%x] MUX:[%x] OSC:[%x] MISC:[%x"
 2447      6C3A5B25 
 2447      785D2050 
 2447      413A5B25 
 2447      785D204D 
 2448 0051 5D0D0A00 		.ascii	"]\015\012\000"
 2449 0055 000000   		.space	3
 2450              	.LC3:
 2451 0058 424C4520 		.ascii	"BLE Task Started\015\000"
 2451      5461736B 
 2451      20537461 
 2451      72746564 
 2451      0D00
 2452 006a 0000     		.space	2
 2453              	.LC4:
 2454 006c 27626C65 		.ascii	"'bleSemaphore' was created successfully \015\000"
 2454      53656D61 
 2454      70686F72 
 2454      65272077 
 2454      61732063 
 2455 0096 0000     		.space	2
 2456              	.LC5:
 2457 0098 27626C65 		.ascii	"'bleSemaphoreval' was created successfully \015\000"
 2457      53656D61 
 2457      70686F72 
 2457      6576616C 
ARM GAS  C:\Users\seeho\AppData\Local\Temp\ccUkk7Dc.s 			page 93


 2457      27207761 
 2458 00c5 000000   		.space	3
 2459              	.LC6:
 2460 00c8 43726561 		.ascii	"Creating one RTOS timer \015\000"
 2460      74696E67 
 2460      206F6E65 
 2460      2052544F 
 2460      53207469 
 2461 00e2 0000     		.space	2
 2462              	.LC7:
 2463 00e4 54696D65 		.ascii	"Timer_1\000"
 2463      725F3100 
 2464              	.LC8:
 2465 00ec 54686520 		.ascii	"The timer was not created\015\000"
 2465      74696D65 
 2465      72207761 
 2465      73206E6F 
 2465      74206372 
 2466 0107 00       		.space	1
 2467              	.LC9:
 2468 0108 54686520 		.ascii	"The timer could not be set into the Active state\015"
 2468      74696D65 
 2468      7220636F 
 2468      756C6420 
 2468      6E6F7420 
 2469 0139 00       		.ascii	"\000"
 2470 013a 0000     		.space	2
 2471              	.LC10:
 2472 013c 2753656D 		.ascii	"'Semaphored' HEX Value received for the GATT Client"
 2472      6170686F 
 2472      72656427 
 2472      20484558 
 2472      2056616C 
 2473 016f 3A202578 		.ascii	": %x \015\012\000"
 2473      200D0A00 
 2474 0177 00       		.space	1
 2475              	.LC11:
 2476 0178 50412047 		.ascii	"PA GATT Client: %x \015\012\000"
 2476      41545420 
 2476      436C6965 
 2476      6E743A20 
 2476      2578200D 
 2477 018e 0000     		.space	2
 2478              	.LC12:
 2479 0190 4761696E 		.ascii	"Gain:0 \015\000"
 2479      3A30200D 
 2479      00
 2480 0199 000000   		.space	3
 2481              	.LC13:
 2482 019c 4761696E 		.ascii	"Gain:1 \015\000"
 2482      3A31200D 
 2482      00
 2483 01a5 000000   		.space	3
 2484              	.LC14:
 2485 01a8 4761696E 		.ascii	"Gain:2 \015\000"
 2485      3A32200D 
 2485      00
ARM GAS  C:\Users\seeho\AppData\Local\Temp\ccUkk7Dc.s 			page 94


 2486 01b1 000000   		.space	3
 2487              	.LC15:
 2488 01b4 4761696E 		.ascii	"Gain:4 \015\000"
 2488      3A34200D 
 2488      00
 2489 01bd 000000   		.space	3
 2490              	.LC16:
 2491 01c0 4761696E 		.ascii	"Gain:8 \015\000"
 2491      3A38200D 
 2491      00
 2492 01c9 000000   		.space	3
 2493              	.LC17:
 2494 01cc 4761696E 		.ascii	"Gain:16 \015\000"
 2494      3A313620 
 2494      0D00
 2495 01d6 0000     		.space	2
 2496              	.LC18:
 2497 01d8 4761696E 		.ascii	"Gain:32 \015\000"
 2497      3A333220 
 2497      0D00
 2498 01e2 0000     		.space	2
 2499              	.LC19:
 2500 01e4 4761696E 		.ascii	"Gain:64 \015\000"
 2500      3A363420 
 2500      0D00
 2501 01ee 0000     		.space	2
 2502              	.LC20:
 2503 01f0 4761696E 		.ascii	"Gain128 \015\000"
 2503      31323820 
 2503      0D00
 2504 01fa 0000     		.space	2
 2505              	.LC21:
 2506 01fc 4761696E 		.ascii	"Gain:256 \015\000"
 2506      3A323536 
 2506      200D00
 2507 0207 00       		.space	1
 2508              	.LC22:
 2509 0208 4761696E 		.ascii	"Gain:512 \015\000"
 2509      3A353132 
 2509      200D00
 2510 0213 00       		.space	1
 2511              	.LC23:
 2512 0214 4761696E 		.ascii	"Gain:1024 \015\000"
 2512      3A313032 
 2512      34200D00 
 2513              	.LC24:
 2514 0220 4761696E 		.ascii	"Gain:2048 \015\000"
 2514      3A323034 
 2514      38200D00 
 2515              	.LC25:
 2516 022c 4761696E 		.ascii	"Gain:4096 \015\000"
 2516      3A343039 
 2516      36200D00 
 2517              	.LC26:
 2518 0238 4D555820 		.ascii	"MUX GATT Client: %x \015\012\000"
 2518      47415454 
 2518      20436C69 
ARM GAS  C:\Users\seeho\AppData\Local\Temp\ccUkk7Dc.s 			page 95


 2518      656E743A 
 2518      20257820 
 2519 024f 00       		.space	1
 2520              	.LC27:
 2521 0250 4F4E2053 		.ascii	"ON Switch:0 \015\000"
 2521      77697463 
 2521      683A3020 
 2521      0D00
 2522 025e 0000     		.space	2
 2523              	.LC28:
 2524 0260 4F4E2053 		.ascii	"ON Switch:1 \015\000"
 2524      77697463 
 2524      683A3120 
 2524      0D00
 2525 026e 0000     		.space	2
 2526              	.LC29:
 2527 0270 4F4E2053 		.ascii	"ON Switch:2 \015\000"
 2527      77697463 
 2527      683A3220 
 2527      0D00
 2528 027e 0000     		.space	2
 2529              	.LC30:
 2530 0280 4F4E2053 		.ascii	"ON Switch:3 \015\000"
 2530      77697463 
 2530      683A3320 
 2530      0D00
 2531 028e 0000     		.space	2
 2532              	.LC31:
 2533 0290 4F4E2053 		.ascii	"ON Switch:4 \015\000"
 2533      77697463 
 2533      683A3420 
 2533      0D00
 2534 029e 0000     		.space	2
 2535              	.LC32:
 2536 02a0 4F4E2053 		.ascii	"ON Switch:5 \015\000"
 2536      77697463 
 2536      683A3520 
 2536      0D00
 2537 02ae 0000     		.space	2
 2538              	.LC33:
 2539 02b0 4F4E2053 		.ascii	"ON Switch:6 \015\000"
 2539      77697463 
 2539      683A3620 
 2539      0D00
 2540 02be 0000     		.space	2
 2541              	.LC34:
 2542 02c0 4F4E2053 		.ascii	"ON Switch:7 \015\000"
 2542      77697463 
 2542      683A3720 
 2542      0D00
 2543 02ce 0000     		.space	2
 2544              	.LC35:
 2545 02d0 4F4E2053 		.ascii	"ON Switch:8 \015\000"
 2545      77697463 
 2545      683A3820 
 2545      0D00
 2546 02de 0000     		.space	2
ARM GAS  C:\Users\seeho\AppData\Local\Temp\ccUkk7Dc.s 			page 96


 2547              	.LC36:
 2548 02e0 4F4E2053 		.ascii	"ON Switch:9 \015\000"
 2548      77697463 
 2548      683A3920 
 2548      0D00
 2549 02ee 0000     		.space	2
 2550              	.LC37:
 2551 02f0 4F4E2053 		.ascii	"ON Switch:A \015\000"
 2551      77697463 
 2551      683A4120 
 2551      0D00
 2552 02fe 0000     		.space	2
 2553              	.LC38:
 2554 0300 4F4E2053 		.ascii	"ON Switch:B \015\000"
 2554      77697463 
 2554      683A4220 
 2554      0D00
 2555 030e 0000     		.space	2
 2556              	.LC39:
 2557 0310 4F4E2053 		.ascii	"ON Switch:C \015\000"
 2557      77697463 
 2557      683A4320 
 2557      0D00
 2558 031e 0000     		.space	2
 2559              	.LC40:
 2560 0320 4F4E2053 		.ascii	"ON Switch:D \015\000"
 2560      77697463 
 2560      683A4420 
 2560      0D00
 2561 032e 0000     		.space	2
 2562              	.LC41:
 2563 0330 4F4E2053 		.ascii	"ON Switch:E \015\000"
 2563      77697463 
 2563      683A4520 
 2563      0D00
 2564 033e 0000     		.space	2
 2565              	.LC42:
 2566 0340 4F4E2053 		.ascii	"ON Switch:F \015\000"
 2566      77697463 
 2566      683A4620 
 2566      0D00
 2567 034e 0000     		.space	2
 2568              	.LC43:
 2569 0350 4F534320 		.ascii	"OSC Client: %x \015\012\000"
 2569      436C6965 
 2569      6E743A20 
 2569      2578200D 
 2569      0A00
 2570 0362 0000     		.space	2
 2571              	.LC44:
 2572 0364 4D495343 		.ascii	"MISC GATT Client: %x \015\012\000"
 2572      20474154 
 2572      5420436C 
 2572      69656E74 
 2572      3A202578 
 2573              	.LC45:
 2574 037c 43595F42 		.ascii	"CY_BLE_EVT_STACK_ON: \015\000"
ARM GAS  C:\Users\seeho\AppData\Local\Temp\ccUkk7Dc.s 			page 97


 2574      4C455F45 
 2574      56545F53 
 2574      5441434B 
 2574      5F4F4E3A 
 2575 0393 00       		.space	1
 2576              	.LC46:
 2577 0394 53746172 		.ascii	"Start Advertising: \015\000"
 2577      74204164 
 2577      76657274 
 2577      6973696E 
 2577      673A200D 
 2578 03a9 000000   		.space	3
 2579              	.LC47:
 2580 03ac 5245445F 		.ascii	"RED_LED is blinking till paired: \015\000"
 2580      4C454420 
 2580      69732062 
 2580      6C696E6B 
 2580      696E6720 
 2581 03cf 00       		.space	1
 2582              	.LC48:
 2583 03d0 43595F42 		.ascii	"CY_BLE_EVT_TIMEOUT \015\000"
 2583      4C455F45 
 2583      56545F54 
 2583      494D454F 
 2583      5554200D 
 2584 03e5 000000   		.space	3
 2585              	.LC49:
 2586 03e8 43595F42 		.ascii	"CY_BLE_EVT_HARDWARE_ERROR \015\000"
 2586      4C455F45 
 2586      56545F48 
 2586      41524457 
 2586      4152455F 
 2587              	.LC50:
 2588 0404 43595F42 		.ascii	"CY_BLE_EVT_STACK_BUSY_STATUS: %x\015\012\000"
 2588      4C455F45 
 2588      56545F53 
 2588      5441434B 
 2588      5F425553 
 2589 0427 00       		.space	1
 2590              	.LC51:
 2591 0428 43595F42 		.ascii	"CY_BLE_EVT_SET_DEVICE_ADDR_COMPLETE \015\000"
 2591      4C455F45 
 2591      56545F53 
 2591      45545F44 
 2591      45564943 
 2592 044e 0000     		.space	2
 2593              	.LC52:
 2594 0450 43595F42 		.ascii	"CY_BLE_EVT_GET_DEVICE_ADDR_COMPLETE: \000"
 2594      4C455F45 
 2594      56545F47 
 2594      45545F44 
 2594      45564943 
 2595 0476 0000     		.space	2
 2596              	.LC53:
 2597 0478 25322E32 		.ascii	"%2.2x\000"
 2597      7800
 2598 047e 0000     		.space	2
ARM GAS  C:\Users\seeho\AppData\Local\Temp\ccUkk7Dc.s 			page 98


 2599              	.LC54:
 2600 0480 0D00     		.ascii	"\015\000"
 2601 0482 0000     		.space	2
 2602              	.LC55:
 2603 0484 43595F42 		.ascii	"CY_BLE_EVT_SET_TX_PWR_COMPLETE \015\000"
 2603      4C455F45 
 2603      56545F53 
 2603      45545F54 
 2603      585F5057 
 2604 04a5 000000   		.space	3
 2605              	.LC56:
 2606 04a8 43595F42 		.ascii	"CY_BLE_EVT_GAPP_ADVERTISEMENT_START_STOP: \000"
 2606      4C455F45 
 2606      56545F47 
 2606      4150505F 
 2606      41445645 
 2607 04d3 00       		.space	1
 2608              	.LC57:
 2609 04d4 43595F42 		.ascii	"CY_BLE_EVT_GAP_DEVICE_CONNECTED \015\000"
 2609      4C455F45 
 2609      56545F47 
 2609      41505F44 
 2609      45564943 
 2610 04f6 0000     		.space	2
 2611              	.LC58:
 2612 04f8 43595F42 		.ascii	"CY_BLE_EVT_GAP_CONNECTION_UPDATE_COMPLETE \015\000"
 2612      4C455F45 
 2612      56545F47 
 2612      41505F43 
 2612      4F4E4E45 
 2613              	.LC59:
 2614 0524 43595F42 		.ascii	"CY_BLE_EVT_GATT_CONNECT_IND: %x, %x \015\012\000"
 2614      4C455F45 
 2614      56545F47 
 2614      4154545F 
 2614      434F4E4E 
 2615 054b 00       		.space	1
 2616              	.LC60:
 2617 054c 41637469 		.ascii	"Active Connection Instance: %x \015\012\000"
 2617      76652043 
 2617      6F6E6E65 
 2617      6374696F 
 2617      6E20496E 
 2618 056e 0000     		.space	2
 2619              	.LC61:
 2620 0570 43595F42 		.ascii	"CY_BLE_EVT_GATT_DISCONNECT_IND \015\000"
 2620      4C455F45 
 2620      56545F47 
 2620      4154545F 
 2620      44495343 
 2621 0591 000000   		.space	3
 2622              	.LC62:
 2623 0594 43595F42 		.ascii	"CY_BLE_EVT_GATTS_WRITE_REQ\015\000"
 2623      4C455F45 
 2623      56545F47 
 2623      41545453 
 2623      5F575249 
ARM GAS  C:\Users\seeho\AppData\Local\Temp\ccUkk7Dc.s 			page 99


 2624              	.LC63:
 2625 05b0 626C6553 		.ascii	"bleSemaphoreval error\015\000"
 2625      656D6170 
 2625      686F7265 
 2625      76616C20 
 2625      6572726F 
 2626 05c7 00       		.space	1
 2627              	.LC64:
 2628 05c8 43595F42 		.ascii	"CY_BLE_EVT_GATTS_XCNHG_MTU_REQ \015\000"
 2628      4C455F45 
 2628      56545F47 
 2628      41545453 
 2628      5F58434E 
 2629 05e9 000000   		.space	3
 2630              	.LC65:
 2631 05ec 43595F42 		.ascii	"CY_BLE_EVT_GATTS_READ_CHAR_VAL_ACCESS_REQ \015\000"
 2631      4C455F45 
 2631      56545F47 
 2631      41545453 
 2631      5F524541 
 2632              	.LC66:
 2633 0618 4F746865 		.ascii	"Other event: %lx \015\012\000"
 2633      72206576 
 2633      656E743A 
 2633      20256C78 
 2633      200D0A00 
 2634              	.LC67:
 2635 062c 53797374 		.ascii	"System Started Succesfully.\015\000"
 2635      656D2053 
 2635      74617274 
 2635      65642053 
 2635      75636365 
 2636 0649 000000   		.space	3
 2637              	.LC68:
 2638 064c 626C6554 		.ascii	"bleTask\000"
 2638      61736B00 
 2639              		.bss
 2640              		.align	2
 2641              		.set	.LANCHOR0,. + 0
 2642              		.type	valMUX, %object
 2643              		.size	valMUX, 4
 2644              	valMUX:
 2645 0000 00000000 		.space	4
 2646              		.type	val, %object
 2647              		.size	val, 4
 2648              	val:
 2649 0004 00000000 		.space	4
 2650              		.type	valMISC, %object
 2651              		.size	valMISC, 4
 2652              	valMISC:
 2653 0008 00000000 		.space	4
 2654              		.text
 2655              	.Letext0:
 2656              		.file 6 "c:\\program files (x86)\\cypress\\psoc creator\\4.2\\psoc creator\\import\\gnu\\arm\\5.4.
 2657              		.file 7 "c:\\program files (x86)\\cypress\\psoc creator\\4.2\\psoc creator\\import\\gnu\\arm\\5.4.
 2658              		.file 8 "Generated_Source\\PSoC6\\pdl\\devices/psoc6/include/ip/cyip_gpio.h"
 2659              		.file 9 "Generated_Source\\PSoC6\\pdl\\devices/psoc6/include/ip/cyip_tcpwm.h"
ARM GAS  C:\Users\seeho\AppData\Local\Temp\ccUkk7Dc.s 			page 100


 2660              		.file 10 "Generated_Source\\PSoC6\\pdl\\devices/psoc6/include/psoc6_01_config.h"
 2661              		.file 11 "Generated_Source\\PSoC6\\pdl\\drivers/peripheral/device/cy_device.h"
 2662              		.file 12 "Generated_Source\\PSoC6\\pdl\\drivers/peripheral/syslib/cy_syslib.h"
 2663              		.file 13 "Generated_Source\\PSoC6\\pdl\\drivers/peripheral/scb/cy_scb_i2c.h"
 2664              		.file 14 "Generated_Source\\PSoC6\\pdl\\drivers/peripheral/scb/cy_scb_uart.h"
 2665              		.file 15 "c:\\program files (x86)\\cypress\\psoc creator\\4.2\\psoc creator\\import\\gnu\\arm\\5.4
 2666              		.file 16 "c:\\program files (x86)\\cypress\\psoc creator\\4.2\\psoc creator\\import\\gnu\\arm\\5.4
 2667              		.file 17 "c:\\program files (x86)\\cypress\\psoc creator\\4.2\\psoc creator\\import\\gnu\\arm\\5.4
 2668              		.file 18 "c:\\program files (x86)\\cypress\\psoc creator\\4.2\\psoc creator\\import\\gnu\\arm\\5.4
 2669              		.file 19 "Generated_Source\\PSoC6\\pdl\\middleware/ble/cy_ble_stack.h"
 2670              		.file 20 "Generated_Source\\PSoC6\\pdl\\middleware/ble/cy_ble_stack_host_main.h"
 2671              		.file 21 "Generated_Source\\PSoC6\\pdl\\middleware/ble/cy_ble_stack_gatt.h"
 2672              		.file 22 "Generated_Source\\PSoC6\\pdl\\middleware/ble/cy_ble_gap.h"
 2673              		.file 23 "Generated_Source\\PSoC6\\pdl\\middleware/ble/cy_ble_stack_gatt_server.h"
 2674              		.file 24 "Generated_Source\\PSoC6\\pdl\\rtos/FreeRTOS/10.0.1/Source/portable/GCC/CM4F/portmacro.h"
 2675              		.file 25 "Generated_Source\\PSoC6\\pdl\\rtos/FreeRTOS/10.0.1/Source/include/queue.h"
 2676              		.file 26 "Generated_Source\\PSoC6\\pdl\\rtos/FreeRTOS/10.0.1/Source/include/semphr.h"
 2677              		.file 27 "Generated_Source\\PSoC6\\pdl\\rtos/FreeRTOS/10.0.1/Source/include/timers.h"
 2678              		.file 28 "Generated_Source\\PSoC6\\pdl\\cmsis/include/core_cm4.h"
 2679              		.file 29 "Generated_Source\\PSoC6/UART_1.h"
 2680              		.file 30 "Generated_Source\\PSoC6/PWM_BLINK.h"
 2681              		.file 31 "Generated_Source\\PSoC6/PWM_DIM.h"
 2682              		.file 32 "Generated_Source\\PSoC6/I2C.h"
 2683              		.file 33 "c:\\program files (x86)\\cypress\\psoc creator\\4.2\\psoc creator\\import\\gnu\\arm\\5.4
 2684              		.file 34 "Generated_Source\\PSoC6\\pdl\\rtos/FreeRTOS/10.0.1/Source/include/task.h"
 2685              		.file 35 "Generated_Source\\PSoC6/BLE.h"
 2686              		.file 36 "Generated_Source\\PSoC6\\pdl\\middleware/ble/cy_ble.h"
 2687              		.file 37 "<built-in>"
 2688              		.section	.debug_info,"",%progbits
 2689              	.Ldebug_info0:
 2690 0000 B8400000 		.4byte	0x40b8
 2691 0004 0400     		.2byte	0x4
 2692 0006 00000000 		.4byte	.Ldebug_abbrev0
 2693 000a 04       		.byte	0x4
 2694 000b 01       		.uleb128 0x1
 2695 000c 8E160000 		.4byte	.LASF563
 2696 0010 0C       		.byte	0xc
 2697 0011 91090000 		.4byte	.LASF564
 2698 0015 6B080000 		.4byte	.LASF565
 2699 0019 00000000 		.4byte	.Ldebug_ranges0+0
 2700 001d 00000000 		.4byte	0
 2701 0021 00000000 		.4byte	.Ldebug_line0
 2702 0025 02       		.uleb128 0x2
 2703 0026 02       		.byte	0x2
 2704 0027 05       		.byte	0x5
 2705 0028 0A220000 		.4byte	.LASF0
 2706 002c 02       		.uleb128 0x2
 2707 002d 01       		.byte	0x1
 2708 002e 06       		.byte	0x6
 2709 002f DF070000 		.4byte	.LASF1
 2710 0033 03       		.uleb128 0x3
 2711 0034 C6040000 		.4byte	.LASF3
 2712 0038 06       		.byte	0x6
 2713 0039 1D       		.byte	0x1d
 2714 003a 3E000000 		.4byte	0x3e
 2715 003e 02       		.uleb128 0x2
 2716 003f 01       		.byte	0x1
ARM GAS  C:\Users\seeho\AppData\Local\Temp\ccUkk7Dc.s 			page 101


 2717 0040 08       		.byte	0x8
 2718 0041 34090000 		.4byte	.LASF2
 2719 0045 03       		.uleb128 0x3
 2720 0046 491F0000 		.4byte	.LASF4
 2721 004a 06       		.byte	0x6
 2722 004b 29       		.byte	0x29
 2723 004c 25000000 		.4byte	0x25
 2724 0050 03       		.uleb128 0x3
 2725 0051 980B0000 		.4byte	.LASF5
 2726 0055 06       		.byte	0x6
 2727 0056 2B       		.byte	0x2b
 2728 0057 5B000000 		.4byte	0x5b
 2729 005b 02       		.uleb128 0x2
 2730 005c 02       		.byte	0x2
 2731 005d 07       		.byte	0x7
 2732 005e 45250000 		.4byte	.LASF6
 2733 0062 03       		.uleb128 0x3
 2734 0063 84260000 		.4byte	.LASF7
 2735 0067 06       		.byte	0x6
 2736 0068 3F       		.byte	0x3f
 2737 0069 6D000000 		.4byte	0x6d
 2738 006d 02       		.uleb128 0x2
 2739 006e 04       		.byte	0x4
 2740 006f 05       		.byte	0x5
 2741 0070 79050000 		.4byte	.LASF8
 2742 0074 03       		.uleb128 0x3
 2743 0075 7A130000 		.4byte	.LASF9
 2744 0079 06       		.byte	0x6
 2745 007a 41       		.byte	0x41
 2746 007b 7F000000 		.4byte	0x7f
 2747 007f 02       		.uleb128 0x2
 2748 0080 04       		.byte	0x4
 2749 0081 07       		.byte	0x7
 2750 0082 E30F0000 		.4byte	.LASF10
 2751 0086 02       		.uleb128 0x2
 2752 0087 08       		.byte	0x8
 2753 0088 05       		.byte	0x5
 2754 0089 87240000 		.4byte	.LASF11
 2755 008d 02       		.uleb128 0x2
 2756 008e 08       		.byte	0x8
 2757 008f 07       		.byte	0x7
 2758 0090 B81C0000 		.4byte	.LASF12
 2759 0094 04       		.uleb128 0x4
 2760 0095 04       		.byte	0x4
 2761 0096 05       		.byte	0x5
 2762 0097 696E7400 		.ascii	"int\000"
 2763 009b 02       		.uleb128 0x2
 2764 009c 04       		.byte	0x4
 2765 009d 07       		.byte	0x7
 2766 009e 4B160000 		.4byte	.LASF13
 2767 00a2 03       		.uleb128 0x3
 2768 00a3 0D080000 		.4byte	.LASF14
 2769 00a7 07       		.byte	0x7
 2770 00a8 18       		.byte	0x18
 2771 00a9 33000000 		.4byte	0x33
 2772 00ad 03       		.uleb128 0x3
 2773 00ae 88220000 		.4byte	.LASF15
ARM GAS  C:\Users\seeho\AppData\Local\Temp\ccUkk7Dc.s 			page 102


 2774 00b2 07       		.byte	0x7
 2775 00b3 20       		.byte	0x20
 2776 00b4 45000000 		.4byte	0x45
 2777 00b8 03       		.uleb128 0x3
 2778 00b9 291D0000 		.4byte	.LASF16
 2779 00bd 07       		.byte	0x7
 2780 00be 24       		.byte	0x24
 2781 00bf 50000000 		.4byte	0x50
 2782 00c3 03       		.uleb128 0x3
 2783 00c4 D61E0000 		.4byte	.LASF17
 2784 00c8 07       		.byte	0x7
 2785 00c9 2C       		.byte	0x2c
 2786 00ca 62000000 		.4byte	0x62
 2787 00ce 03       		.uleb128 0x3
 2788 00cf B5240000 		.4byte	.LASF18
 2789 00d3 07       		.byte	0x7
 2790 00d4 30       		.byte	0x30
 2791 00d5 74000000 		.4byte	0x74
 2792 00d9 02       		.uleb128 0x2
 2793 00da 04       		.byte	0x4
 2794 00db 07       		.byte	0x7
 2795 00dc 5B000000 		.4byte	.LASF19
 2796 00e0 05       		.uleb128 0x5
 2797 00e1 CE000000 		.4byte	0xce
 2798 00e5 06       		.uleb128 0x6
 2799 00e6 E0000000 		.4byte	0xe0
 2800 00ea 07       		.uleb128 0x7
 2801 00eb E5000000 		.4byte	0xe5
 2802 00ef FA000000 		.4byte	0xfa
 2803 00f3 08       		.uleb128 0x8
 2804 00f4 D9000000 		.4byte	0xd9
 2805 00f8 0F       		.byte	0xf
 2806 00f9 00       		.byte	0
 2807 00fa 09       		.uleb128 0x9
 2808 00fb 80       		.byte	0x80
 2809 00fc 08       		.byte	0x8
 2810 00fd 22       		.byte	0x22
 2811 00fe CE010000 		.4byte	0x1ce
 2812 0102 0A       		.uleb128 0xa
 2813 0103 4F555400 		.ascii	"OUT\000"
 2814 0107 08       		.byte	0x8
 2815 0108 23       		.byte	0x23
 2816 0109 E0000000 		.4byte	0xe0
 2817 010d 00       		.byte	0
 2818 010e 0B       		.uleb128 0xb
 2819 010f F7020000 		.4byte	.LASF20
 2820 0113 08       		.byte	0x8
 2821 0114 24       		.byte	0x24
 2822 0115 E0000000 		.4byte	0xe0
 2823 0119 04       		.byte	0x4
 2824 011a 0B       		.uleb128 0xb
 2825 011b D2020000 		.4byte	.LASF21
 2826 011f 08       		.byte	0x8
 2827 0120 25       		.byte	0x25
 2828 0121 E0000000 		.4byte	0xe0
 2829 0125 08       		.byte	0x8
 2830 0126 0B       		.uleb128 0xb
ARM GAS  C:\Users\seeho\AppData\Local\Temp\ccUkk7Dc.s 			page 103


 2831 0127 1D240000 		.4byte	.LASF22
 2832 012b 08       		.byte	0x8
 2833 012c 26       		.byte	0x26
 2834 012d E0000000 		.4byte	0xe0
 2835 0131 0C       		.byte	0xc
 2836 0132 0A       		.uleb128 0xa
 2837 0133 494E00   		.ascii	"IN\000"
 2838 0136 08       		.byte	0x8
 2839 0137 27       		.byte	0x27
 2840 0138 E5000000 		.4byte	0xe5
 2841 013c 10       		.byte	0x10
 2842 013d 0B       		.uleb128 0xb
 2843 013e 74110000 		.4byte	.LASF23
 2844 0142 08       		.byte	0x8
 2845 0143 28       		.byte	0x28
 2846 0144 E0000000 		.4byte	0xe0
 2847 0148 14       		.byte	0x14
 2848 0149 0B       		.uleb128 0xb
 2849 014a 96030000 		.4byte	.LASF24
 2850 014e 08       		.byte	0x8
 2851 014f 29       		.byte	0x29
 2852 0150 E0000000 		.4byte	0xe0
 2853 0154 18       		.byte	0x18
 2854 0155 0B       		.uleb128 0xb
 2855 0156 271B0000 		.4byte	.LASF25
 2856 015a 08       		.byte	0x8
 2857 015b 2A       		.byte	0x2a
 2858 015c E5000000 		.4byte	0xe5
 2859 0160 1C       		.byte	0x1c
 2860 0161 0B       		.uleb128 0xb
 2861 0162 A01A0000 		.4byte	.LASF26
 2862 0166 08       		.byte	0x8
 2863 0167 2B       		.byte	0x2b
 2864 0168 E0000000 		.4byte	0xe0
 2865 016c 20       		.byte	0x20
 2866 016d 0B       		.uleb128 0xb
 2867 016e AD110000 		.4byte	.LASF27
 2868 0172 08       		.byte	0x8
 2869 0173 2C       		.byte	0x2c
 2870 0174 E0000000 		.4byte	0xe0
 2871 0178 24       		.byte	0x24
 2872 0179 0A       		.uleb128 0xa
 2873 017a 43464700 		.ascii	"CFG\000"
 2874 017e 08       		.byte	0x8
 2875 017f 2D       		.byte	0x2d
 2876 0180 E0000000 		.4byte	0xe0
 2877 0184 28       		.byte	0x28
 2878 0185 0B       		.uleb128 0xb
 2879 0186 580C0000 		.4byte	.LASF28
 2880 018a 08       		.byte	0x8
 2881 018b 2E       		.byte	0x2e
 2882 018c E0000000 		.4byte	0xe0
 2883 0190 2C       		.byte	0x2c
 2884 0191 0B       		.uleb128 0xb
 2885 0192 D50D0000 		.4byte	.LASF29
 2886 0196 08       		.byte	0x8
 2887 0197 2F       		.byte	0x2f
ARM GAS  C:\Users\seeho\AppData\Local\Temp\ccUkk7Dc.s 			page 104


 2888 0198 E0000000 		.4byte	0xe0
 2889 019c 30       		.byte	0x30
 2890 019d 0B       		.uleb128 0xb
 2891 019e 17200000 		.4byte	.LASF30
 2892 01a2 08       		.byte	0x8
 2893 01a3 30       		.byte	0x30
 2894 01a4 E0000000 		.4byte	0xe0
 2895 01a8 34       		.byte	0x34
 2896 01a9 0B       		.uleb128 0xb
 2897 01aa DD0D0000 		.4byte	.LASF31
 2898 01ae 08       		.byte	0x8
 2899 01af 31       		.byte	0x31
 2900 01b0 E5000000 		.4byte	0xe5
 2901 01b4 38       		.byte	0x38
 2902 01b5 0B       		.uleb128 0xb
 2903 01b6 68070000 		.4byte	.LASF32
 2904 01ba 08       		.byte	0x8
 2905 01bb 32       		.byte	0x32
 2906 01bc E0000000 		.4byte	0xe0
 2907 01c0 3C       		.byte	0x3c
 2908 01c1 0B       		.uleb128 0xb
 2909 01c2 2A090000 		.4byte	.LASF33
 2910 01c6 08       		.byte	0x8
 2911 01c7 33       		.byte	0x33
 2912 01c8 D3010000 		.4byte	0x1d3
 2913 01cc 40       		.byte	0x40
 2914 01cd 00       		.byte	0
 2915 01ce 05       		.uleb128 0x5
 2916 01cf EA000000 		.4byte	0xea
 2917 01d3 06       		.uleb128 0x6
 2918 01d4 CE010000 		.4byte	0x1ce
 2919 01d8 03       		.uleb128 0x3
 2920 01d9 621D0000 		.4byte	.LASF34
 2921 01dd 08       		.byte	0x8
 2922 01de 34       		.byte	0x34
 2923 01df FA000000 		.4byte	0xfa
 2924 01e3 0C       		.uleb128 0xc
 2925 01e4 2440     		.2byte	0x4024
 2926 01e6 08       		.byte	0x8
 2927 01e7 39       		.byte	0x39
 2928 01e8 6E020000 		.4byte	0x26e
 2929 01ec 0A       		.uleb128 0xa
 2930 01ed 50525400 		.ascii	"PRT\000"
 2931 01f1 08       		.byte	0x8
 2932 01f2 3A       		.byte	0x3a
 2933 01f3 6E020000 		.4byte	0x26e
 2934 01f7 00       		.byte	0
 2935 01f8 0D       		.uleb128 0xd
 2936 01f9 82050000 		.4byte	.LASF35
 2937 01fd 08       		.byte	0x8
 2938 01fe 3B       		.byte	0x3b
 2939 01ff E5000000 		.4byte	0xe5
 2940 0203 0040     		.2byte	0x4000
 2941 0205 0D       		.uleb128 0xd
 2942 0206 10270000 		.4byte	.LASF36
 2943 020a 08       		.byte	0x8
 2944 020b 3C       		.byte	0x3c
ARM GAS  C:\Users\seeho\AppData\Local\Temp\ccUkk7Dc.s 			page 105


 2945 020c E5000000 		.4byte	0xe5
 2946 0210 0440     		.2byte	0x4004
 2947 0212 0D       		.uleb128 0xd
 2948 0213 AD050000 		.4byte	.LASF37
 2949 0217 08       		.byte	0x8
 2950 0218 3D       		.byte	0x3d
 2951 0219 E5000000 		.4byte	0xe5
 2952 021d 0840     		.2byte	0x4008
 2953 021f 0D       		.uleb128 0xd
 2954 0220 B9050000 		.4byte	.LASF38
 2955 0224 08       		.byte	0x8
 2956 0225 3E       		.byte	0x3e
 2957 0226 E5000000 		.4byte	0xe5
 2958 022a 0C40     		.2byte	0x400c
 2959 022c 0D       		.uleb128 0xd
 2960 022d A2230000 		.4byte	.LASF39
 2961 0231 08       		.byte	0x8
 2962 0232 3F       		.byte	0x3f
 2963 0233 E5000000 		.4byte	0xe5
 2964 0237 1040     		.2byte	0x4010
 2965 0239 0D       		.uleb128 0xd
 2966 023a 4F1A0000 		.4byte	.LASF40
 2967 023e 08       		.byte	0x8
 2968 023f 40       		.byte	0x40
 2969 0240 E0000000 		.4byte	0xe0
 2970 0244 1440     		.2byte	0x4014
 2971 0246 0D       		.uleb128 0xd
 2972 0247 9D0C0000 		.4byte	.LASF41
 2973 024b 08       		.byte	0x8
 2974 024c 41       		.byte	0x41
 2975 024d E0000000 		.4byte	0xe0
 2976 0251 1840     		.2byte	0x4018
 2977 0253 0D       		.uleb128 0xd
 2978 0254 29120000 		.4byte	.LASF42
 2979 0258 08       		.byte	0x8
 2980 0259 42       		.byte	0x42
 2981 025a E5000000 		.4byte	0xe5
 2982 025e 1C40     		.2byte	0x401c
 2983 0260 0D       		.uleb128 0xd
 2984 0261 DE1E0000 		.4byte	.LASF43
 2985 0265 08       		.byte	0x8
 2986 0266 43       		.byte	0x43
 2987 0267 E0000000 		.4byte	0xe0
 2988 026b 2040     		.2byte	0x4020
 2989 026d 00       		.byte	0
 2990 026e 07       		.uleb128 0x7
 2991 026f D8010000 		.4byte	0x1d8
 2992 0273 7E020000 		.4byte	0x27e
 2993 0277 08       		.uleb128 0x8
 2994 0278 D9000000 		.4byte	0xd9
 2995 027c 7F       		.byte	0x7f
 2996 027d 00       		.byte	0
 2997 027e 03       		.uleb128 0x3
 2998 027f 600B0000 		.4byte	.LASF44
 2999 0283 08       		.byte	0x8
 3000 0284 44       		.byte	0x44
 3001 0285 E3010000 		.4byte	0x1e3
ARM GAS  C:\Users\seeho\AppData\Local\Temp\ccUkk7Dc.s 			page 106


 3002 0289 09       		.uleb128 0x9
 3003 028a 40       		.byte	0x40
 3004 028b 09       		.byte	0x9
 3005 028c 22       		.byte	0x22
 3006 028d 51030000 		.4byte	0x351
 3007 0291 0B       		.uleb128 0xb
 3008 0292 58160000 		.4byte	.LASF45
 3009 0296 09       		.byte	0x9
 3010 0297 23       		.byte	0x23
 3011 0298 E0000000 		.4byte	0xe0
 3012 029c 00       		.byte	0
 3013 029d 0B       		.uleb128 0xb
 3014 029e A41F0000 		.4byte	.LASF46
 3015 02a2 09       		.byte	0x9
 3016 02a3 24       		.byte	0x24
 3017 02a4 E5000000 		.4byte	0xe5
 3018 02a8 04       		.byte	0x4
 3019 02a9 0B       		.uleb128 0xb
 3020 02aa 66180000 		.4byte	.LASF47
 3021 02ae 09       		.byte	0x9
 3022 02af 25       		.byte	0x25
 3023 02b0 E0000000 		.4byte	0xe0
 3024 02b4 08       		.byte	0x8
 3025 02b5 0A       		.uleb128 0xa
 3026 02b6 434300   		.ascii	"CC\000"
 3027 02b9 09       		.byte	0x9
 3028 02ba 26       		.byte	0x26
 3029 02bb E0000000 		.4byte	0xe0
 3030 02bf 0C       		.byte	0xc
 3031 02c0 0B       		.uleb128 0xb
 3032 02c1 67150000 		.4byte	.LASF48
 3033 02c5 09       		.byte	0x9
 3034 02c6 27       		.byte	0x27
 3035 02c7 E0000000 		.4byte	0xe0
 3036 02cb 10       		.byte	0x10
 3037 02cc 0B       		.uleb128 0xb
 3038 02cd F0020000 		.4byte	.LASF49
 3039 02d1 09       		.byte	0x9
 3040 02d2 28       		.byte	0x28
 3041 02d3 E0000000 		.4byte	0xe0
 3042 02d7 14       		.byte	0x14
 3043 02d8 0B       		.uleb128 0xb
 3044 02d9 78210000 		.4byte	.LASF50
 3045 02dd 09       		.byte	0x9
 3046 02de 29       		.byte	0x29
 3047 02df E0000000 		.4byte	0xe0
 3048 02e3 18       		.byte	0x18
 3049 02e4 0B       		.uleb128 0xb
 3050 02e5 DD0D0000 		.4byte	.LASF31
 3051 02e9 09       		.byte	0x9
 3052 02ea 2A       		.byte	0x2a
 3053 02eb E5000000 		.4byte	0xe5
 3054 02ef 1C       		.byte	0x1c
 3055 02f0 0B       		.uleb128 0xb
 3056 02f1 95000000 		.4byte	.LASF51
 3057 02f5 09       		.byte	0x9
 3058 02f6 2B       		.byte	0x2b
ARM GAS  C:\Users\seeho\AppData\Local\Temp\ccUkk7Dc.s 			page 107


 3059 02f7 E0000000 		.4byte	0xe0
 3060 02fb 20       		.byte	0x20
 3061 02fc 0B       		.uleb128 0xb
 3062 02fd 9E000000 		.4byte	.LASF52
 3063 0301 09       		.byte	0x9
 3064 0302 2C       		.byte	0x2c
 3065 0303 E0000000 		.4byte	0xe0
 3066 0307 24       		.byte	0x24
 3067 0308 0B       		.uleb128 0xb
 3068 0309 A7000000 		.4byte	.LASF53
 3069 030d 09       		.byte	0x9
 3070 030e 2D       		.byte	0x2d
 3071 030f E0000000 		.4byte	0xe0
 3072 0313 28       		.byte	0x28
 3073 0314 0B       		.uleb128 0xb
 3074 0315 2A090000 		.4byte	.LASF33
 3075 0319 09       		.byte	0x9
 3076 031a 2E       		.byte	0x2e
 3077 031b E5000000 		.4byte	0xe5
 3078 031f 2C       		.byte	0x2c
 3079 0320 0B       		.uleb128 0xb
 3080 0321 74110000 		.4byte	.LASF23
 3081 0325 09       		.byte	0x9
 3082 0326 2F       		.byte	0x2f
 3083 0327 E0000000 		.4byte	0xe0
 3084 032b 30       		.byte	0x30
 3085 032c 0B       		.uleb128 0xb
 3086 032d A01A0000 		.4byte	.LASF26
 3087 0331 09       		.byte	0x9
 3088 0332 30       		.byte	0x30
 3089 0333 E0000000 		.4byte	0xe0
 3090 0337 34       		.byte	0x34
 3091 0338 0B       		.uleb128 0xb
 3092 0339 96030000 		.4byte	.LASF24
 3093 033d 09       		.byte	0x9
 3094 033e 31       		.byte	0x31
 3095 033f E0000000 		.4byte	0xe0
 3096 0343 38       		.byte	0x38
 3097 0344 0B       		.uleb128 0xb
 3098 0345 271B0000 		.4byte	.LASF25
 3099 0349 09       		.byte	0x9
 3100 034a 32       		.byte	0x32
 3101 034b E5000000 		.4byte	0xe5
 3102 034f 3C       		.byte	0x3c
 3103 0350 00       		.byte	0
 3104 0351 03       		.uleb128 0x3
 3105 0352 DD060000 		.4byte	.LASF54
 3106 0356 09       		.byte	0x9
 3107 0357 33       		.byte	0x33
 3108 0358 89020000 		.4byte	0x289
 3109 035c 0C       		.uleb128 0xc
 3110 035d 0009     		.2byte	0x900
 3111 035f 09       		.byte	0x9
 3112 0360 38       		.byte	0x38
 3113 0361 DF030000 		.4byte	0x3df
 3114 0365 0B       		.uleb128 0xb
 3115 0366 58160000 		.4byte	.LASF45
ARM GAS  C:\Users\seeho\AppData\Local\Temp\ccUkk7Dc.s 			page 108


 3116 036a 09       		.byte	0x9
 3117 036b 39       		.byte	0x39
 3118 036c E0000000 		.4byte	0xe0
 3119 0370 00       		.byte	0
 3120 0371 0B       		.uleb128 0xb
 3121 0372 7A140000 		.4byte	.LASF55
 3122 0376 09       		.byte	0x9
 3123 0377 3A       		.byte	0x3a
 3124 0378 E0000000 		.4byte	0xe0
 3125 037c 04       		.byte	0x4
 3126 037d 0B       		.uleb128 0xb
 3127 037e 39010000 		.4byte	.LASF56
 3128 0382 09       		.byte	0x9
 3129 0383 3B       		.byte	0x3b
 3130 0384 E0000000 		.4byte	0xe0
 3131 0388 08       		.byte	0x8
 3132 0389 0B       		.uleb128 0xb
 3133 038a 98180000 		.4byte	.LASF57
 3134 038e 09       		.byte	0x9
 3135 038f 3C       		.byte	0x3c
 3136 0390 E0000000 		.4byte	0xe0
 3137 0394 0C       		.byte	0xc
 3138 0395 0B       		.uleb128 0xb
 3139 0396 8D1F0000 		.4byte	.LASF58
 3140 039a 09       		.byte	0x9
 3141 039b 3D       		.byte	0x3d
 3142 039c E0000000 		.4byte	0xe0
 3143 03a0 10       		.byte	0x10
 3144 03a1 0B       		.uleb128 0xb
 3145 03a2 E61F0000 		.4byte	.LASF59
 3146 03a6 09       		.byte	0x9
 3147 03a7 3E       		.byte	0x3e
 3148 03a8 E0000000 		.4byte	0xe0
 3149 03ac 14       		.byte	0x14
 3150 03ad 0B       		.uleb128 0xb
 3151 03ae 701B0000 		.4byte	.LASF60
 3152 03b2 09       		.byte	0x9
 3153 03b3 3F       		.byte	0x3f
 3154 03b4 E0000000 		.4byte	0xe0
 3155 03b8 18       		.byte	0x18
 3156 03b9 0B       		.uleb128 0xb
 3157 03ba F4000000 		.4byte	.LASF61
 3158 03be 09       		.byte	0x9
 3159 03bf 40       		.byte	0x40
 3160 03c0 E5000000 		.4byte	0xe5
 3161 03c4 1C       		.byte	0x1c
 3162 03c5 0B       		.uleb128 0xb
 3163 03c6 DD0D0000 		.4byte	.LASF31
 3164 03ca 09       		.byte	0x9
 3165 03cb 41       		.byte	0x41
 3166 03cc F4030000 		.4byte	0x3f4
 3167 03d0 20       		.byte	0x20
 3168 03d1 0E       		.uleb128 0xe
 3169 03d2 434E5400 		.ascii	"CNT\000"
 3170 03d6 09       		.byte	0x9
 3171 03d7 42       		.byte	0x42
 3172 03d8 F9030000 		.4byte	0x3f9
ARM GAS  C:\Users\seeho\AppData\Local\Temp\ccUkk7Dc.s 			page 109


 3173 03dc 0001     		.2byte	0x100
 3174 03de 00       		.byte	0
 3175 03df 07       		.uleb128 0x7
 3176 03e0 E5000000 		.4byte	0xe5
 3177 03e4 EF030000 		.4byte	0x3ef
 3178 03e8 08       		.uleb128 0x8
 3179 03e9 D9000000 		.4byte	0xd9
 3180 03ed 37       		.byte	0x37
 3181 03ee 00       		.byte	0
 3182 03ef 05       		.uleb128 0x5
 3183 03f0 DF030000 		.4byte	0x3df
 3184 03f4 06       		.uleb128 0x6
 3185 03f5 EF030000 		.4byte	0x3ef
 3186 03f9 07       		.uleb128 0x7
 3187 03fa 51030000 		.4byte	0x351
 3188 03fe 09040000 		.4byte	0x409
 3189 0402 08       		.uleb128 0x8
 3190 0403 D9000000 		.4byte	0xd9
 3191 0407 1F       		.byte	0x1f
 3192 0408 00       		.byte	0
 3193 0409 03       		.uleb128 0x3
 3194 040a 42090000 		.4byte	.LASF62
 3195 040e 09       		.byte	0x9
 3196 040f 43       		.byte	0x43
 3197 0410 5C030000 		.4byte	0x35c
 3198 0414 0F       		.uleb128 0xf
 3199 0415 E0200000 		.4byte	.LASF63
 3200 0419 0A       		.byte	0xa
 3201 041a 3106     		.2byte	0x631
 3202 041c D8010000 		.4byte	0x1d8
 3203 0420 0F       		.uleb128 0xf
 3204 0421 511B0000 		.4byte	.LASF64
 3205 0425 0A       		.byte	0xa
 3206 0426 3206     		.2byte	0x632
 3207 0428 7E020000 		.4byte	0x27e
 3208 042c 0F       		.uleb128 0xf
 3209 042d B6110000 		.4byte	.LASF65
 3210 0431 0A       		.byte	0xa
 3211 0432 4206     		.2byte	0x642
 3212 0434 09040000 		.4byte	0x409
 3213 0438 02       		.uleb128 0x2
 3214 0439 08       		.byte	0x8
 3215 043a 04       		.byte	0x4
 3216 043b 7F1A0000 		.4byte	.LASF66
 3217 043f 09       		.uleb128 0x9
 3218 0440 B8       		.byte	0xb8
 3219 0441 0B       		.byte	0xb
 3220 0442 34       		.byte	0x34
 3221 0443 50080000 		.4byte	0x850
 3222 0447 0B       		.uleb128 0xb
 3223 0448 1F130000 		.4byte	.LASF67
 3224 044c 0B       		.byte	0xb
 3225 044d 37       		.byte	0x37
 3226 044e CE000000 		.4byte	0xce
 3227 0452 00       		.byte	0
 3228 0453 0B       		.uleb128 0xb
 3229 0454 FF020000 		.4byte	.LASF68
ARM GAS  C:\Users\seeho\AppData\Local\Temp\ccUkk7Dc.s 			page 110


 3230 0458 0B       		.byte	0xb
 3231 0459 38       		.byte	0x38
 3232 045a CE000000 		.4byte	0xce
 3233 045e 04       		.byte	0x4
 3234 045f 0B       		.uleb128 0xb
 3235 0460 190F0000 		.4byte	.LASF69
 3236 0464 0B       		.byte	0xb
 3237 0465 39       		.byte	0x39
 3238 0466 CE000000 		.4byte	0xce
 3239 046a 08       		.byte	0x8
 3240 046b 0B       		.uleb128 0xb
 3241 046c 950C0000 		.4byte	.LASF70
 3242 0470 0B       		.byte	0xb
 3243 0471 3A       		.byte	0x3a
 3244 0472 CE000000 		.4byte	0xce
 3245 0476 0C       		.byte	0xc
 3246 0477 0B       		.uleb128 0xb
 3247 0478 530F0000 		.4byte	.LASF71
 3248 047c 0B       		.byte	0xb
 3249 047d 3B       		.byte	0x3b
 3250 047e CE000000 		.4byte	0xce
 3251 0482 10       		.byte	0x10
 3252 0483 0B       		.uleb128 0xb
 3253 0484 76010000 		.4byte	.LASF72
 3254 0488 0B       		.byte	0xb
 3255 0489 3C       		.byte	0x3c
 3256 048a CE000000 		.4byte	0xce
 3257 048e 14       		.byte	0x14
 3258 048f 0B       		.uleb128 0xb
 3259 0490 3E200000 		.4byte	.LASF73
 3260 0494 0B       		.byte	0xb
 3261 0495 3D       		.byte	0x3d
 3262 0496 CE000000 		.4byte	0xce
 3263 049a 18       		.byte	0x18
 3264 049b 0B       		.uleb128 0xb
 3265 049c 760A0000 		.4byte	.LASF74
 3266 04a0 0B       		.byte	0xb
 3267 04a1 3E       		.byte	0x3e
 3268 04a2 CE000000 		.4byte	0xce
 3269 04a6 1C       		.byte	0x1c
 3270 04a7 0B       		.uleb128 0xb
 3271 04a8 03250000 		.4byte	.LASF75
 3272 04ac 0B       		.byte	0xb
 3273 04ad 3F       		.byte	0x3f
 3274 04ae CE000000 		.4byte	0xce
 3275 04b2 20       		.byte	0x20
 3276 04b3 0B       		.uleb128 0xb
 3277 04b4 50000000 		.4byte	.LASF76
 3278 04b8 0B       		.byte	0xb
 3279 04b9 40       		.byte	0x40
 3280 04ba CE000000 		.4byte	0xce
 3281 04be 24       		.byte	0x24
 3282 04bf 0B       		.uleb128 0xb
 3283 04c0 E1100000 		.4byte	.LASF77
 3284 04c4 0B       		.byte	0xb
 3285 04c5 43       		.byte	0x43
 3286 04c6 A2000000 		.4byte	0xa2
ARM GAS  C:\Users\seeho\AppData\Local\Temp\ccUkk7Dc.s 			page 111


 3287 04ca 28       		.byte	0x28
 3288 04cb 0B       		.uleb128 0xb
 3289 04cc BE260000 		.4byte	.LASF78
 3290 04d0 0B       		.byte	0xb
 3291 04d1 44       		.byte	0x44
 3292 04d2 A2000000 		.4byte	0xa2
 3293 04d6 29       		.byte	0x29
 3294 04d7 0B       		.uleb128 0xb
 3295 04d8 01200000 		.4byte	.LASF79
 3296 04dc 0B       		.byte	0xb
 3297 04dd 45       		.byte	0x45
 3298 04de A2000000 		.4byte	0xa2
 3299 04e2 2A       		.byte	0x2a
 3300 04e3 0B       		.uleb128 0xb
 3301 04e4 71170000 		.4byte	.LASF80
 3302 04e8 0B       		.byte	0xb
 3303 04e9 46       		.byte	0x46
 3304 04ea A2000000 		.4byte	0xa2
 3305 04ee 2B       		.byte	0x2b
 3306 04ef 0B       		.uleb128 0xb
 3307 04f0 C0230000 		.4byte	.LASF81
 3308 04f4 0B       		.byte	0xb
 3309 04f5 47       		.byte	0x47
 3310 04f6 A2000000 		.4byte	0xa2
 3311 04fa 2C       		.byte	0x2c
 3312 04fb 0B       		.uleb128 0xb
 3313 04fc 69280000 		.4byte	.LASF82
 3314 0500 0B       		.byte	0xb
 3315 0501 48       		.byte	0x48
 3316 0502 A2000000 		.4byte	0xa2
 3317 0506 2D       		.byte	0x2d
 3318 0507 0B       		.uleb128 0xb
 3319 0508 55130000 		.4byte	.LASF83
 3320 050c 0B       		.byte	0xb
 3321 050d 49       		.byte	0x49
 3322 050e A2000000 		.4byte	0xa2
 3323 0512 2E       		.byte	0x2e
 3324 0513 0B       		.uleb128 0xb
 3325 0514 21140000 		.4byte	.LASF84
 3326 0518 0B       		.byte	0xb
 3327 0519 4A       		.byte	0x4a
 3328 051a A2000000 		.4byte	0xa2
 3329 051e 2F       		.byte	0x2f
 3330 051f 0B       		.uleb128 0xb
 3331 0520 B3210000 		.4byte	.LASF85
 3332 0524 0B       		.byte	0xb
 3333 0525 4B       		.byte	0x4b
 3334 0526 A2000000 		.4byte	0xa2
 3335 052a 30       		.byte	0x30
 3336 052b 0B       		.uleb128 0xb
 3337 052c 35160000 		.4byte	.LASF86
 3338 0530 0B       		.byte	0xb
 3339 0531 4E       		.byte	0x4e
 3340 0532 A2000000 		.4byte	0xa2
 3341 0536 31       		.byte	0x31
 3342 0537 0B       		.uleb128 0xb
 3343 0538 C8200000 		.4byte	.LASF87
ARM GAS  C:\Users\seeho\AppData\Local\Temp\ccUkk7Dc.s 			page 112


 3344 053c 0B       		.byte	0xb
 3345 053d 4F       		.byte	0x4f
 3346 053e A2000000 		.4byte	0xa2
 3347 0542 32       		.byte	0x32
 3348 0543 0B       		.uleb128 0xb
 3349 0544 EB1E0000 		.4byte	.LASF88
 3350 0548 0B       		.byte	0xb
 3351 0549 50       		.byte	0x50
 3352 054a A2000000 		.4byte	0xa2
 3353 054e 33       		.byte	0x33
 3354 054f 0B       		.uleb128 0xb
 3355 0550 C40F0000 		.4byte	.LASF89
 3356 0554 0B       		.byte	0xb
 3357 0555 51       		.byte	0x51
 3358 0556 A2000000 		.4byte	0xa2
 3359 055a 34       		.byte	0x34
 3360 055b 0B       		.uleb128 0xb
 3361 055c 430C0000 		.4byte	.LASF90
 3362 0560 0B       		.byte	0xb
 3363 0561 52       		.byte	0x52
 3364 0562 AD000000 		.4byte	0xad
 3365 0566 36       		.byte	0x36
 3366 0567 0B       		.uleb128 0xb
 3367 0568 1D110000 		.4byte	.LASF91
 3368 056c 0B       		.byte	0xb
 3369 056d 53       		.byte	0x53
 3370 056e AD000000 		.4byte	0xad
 3371 0572 38       		.byte	0x38
 3372 0573 0B       		.uleb128 0xb
 3373 0574 B60E0000 		.4byte	.LASF92
 3374 0578 0B       		.byte	0xb
 3375 0579 54       		.byte	0x54
 3376 057a AD000000 		.4byte	0xad
 3377 057e 3A       		.byte	0x3a
 3378 057f 0B       		.uleb128 0xb
 3379 0580 C11D0000 		.4byte	.LASF93
 3380 0584 0B       		.byte	0xb
 3381 0585 55       		.byte	0x55
 3382 0586 A2000000 		.4byte	0xa2
 3383 058a 3C       		.byte	0x3c
 3384 058b 0B       		.uleb128 0xb
 3385 058c D6100000 		.4byte	.LASF94
 3386 0590 0B       		.byte	0xb
 3387 0591 56       		.byte	0x56
 3388 0592 A2000000 		.4byte	0xa2
 3389 0596 3D       		.byte	0x3d
 3390 0597 0B       		.uleb128 0xb
 3391 0598 1C030000 		.4byte	.LASF95
 3392 059c 0B       		.byte	0xb
 3393 059d 57       		.byte	0x57
 3394 059e A2000000 		.4byte	0xa2
 3395 05a2 3E       		.byte	0x3e
 3396 05a3 0B       		.uleb128 0xb
 3397 05a4 C5070000 		.4byte	.LASF96
 3398 05a8 0B       		.byte	0xb
 3399 05a9 58       		.byte	0x58
 3400 05aa A2000000 		.4byte	0xa2
ARM GAS  C:\Users\seeho\AppData\Local\Temp\ccUkk7Dc.s 			page 113


 3401 05ae 3F       		.byte	0x3f
 3402 05af 0B       		.uleb128 0xb
 3403 05b0 E9110000 		.4byte	.LASF97
 3404 05b4 0B       		.byte	0xb
 3405 05b5 59       		.byte	0x59
 3406 05b6 A2000000 		.4byte	0xa2
 3407 05ba 40       		.byte	0x40
 3408 05bb 0B       		.uleb128 0xb
 3409 05bc 9E130000 		.4byte	.LASF98
 3410 05c0 0B       		.byte	0xb
 3411 05c1 5A       		.byte	0x5a
 3412 05c2 A2000000 		.4byte	0xa2
 3413 05c6 41       		.byte	0x41
 3414 05c7 0B       		.uleb128 0xb
 3415 05c8 49100000 		.4byte	.LASF99
 3416 05cc 0B       		.byte	0xb
 3417 05cd 5B       		.byte	0x5b
 3418 05ce A2000000 		.4byte	0xa2
 3419 05d2 42       		.byte	0x42
 3420 05d3 0B       		.uleb128 0xb
 3421 05d4 54240000 		.4byte	.LASF100
 3422 05d8 0B       		.byte	0xb
 3423 05d9 5C       		.byte	0x5c
 3424 05da A2000000 		.4byte	0xa2
 3425 05de 43       		.byte	0x43
 3426 05df 0B       		.uleb128 0xb
 3427 05e0 8D200000 		.4byte	.LASF101
 3428 05e4 0B       		.byte	0xb
 3429 05e5 5D       		.byte	0x5d
 3430 05e6 A2000000 		.4byte	0xa2
 3431 05ea 44       		.byte	0x44
 3432 05eb 0B       		.uleb128 0xb
 3433 05ec 7B200000 		.4byte	.LASF102
 3434 05f0 0B       		.byte	0xb
 3435 05f1 5E       		.byte	0x5e
 3436 05f2 CE000000 		.4byte	0xce
 3437 05f6 48       		.byte	0x48
 3438 05f7 0B       		.uleb128 0xb
 3439 05f8 2B010000 		.4byte	.LASF103
 3440 05fc 0B       		.byte	0xb
 3441 05fd 5F       		.byte	0x5f
 3442 05fe CE000000 		.4byte	0xce
 3443 0602 4C       		.byte	0x4c
 3444 0603 0B       		.uleb128 0xb
 3445 0604 32150000 		.4byte	.LASF104
 3446 0608 0B       		.byte	0xb
 3447 0609 60       		.byte	0x60
 3448 060a A2000000 		.4byte	0xa2
 3449 060e 50       		.byte	0x50
 3450 060f 0B       		.uleb128 0xb
 3451 0610 A1120000 		.4byte	.LASF105
 3452 0614 0B       		.byte	0xb
 3453 0615 61       		.byte	0x61
 3454 0616 A2000000 		.4byte	0xa2
 3455 061a 51       		.byte	0x51
 3456 061b 0B       		.uleb128 0xb
 3457 061c 22150000 		.4byte	.LASF106
ARM GAS  C:\Users\seeho\AppData\Local\Temp\ccUkk7Dc.s 			page 114


 3458 0620 0B       		.byte	0xb
 3459 0621 62       		.byte	0x62
 3460 0622 A2000000 		.4byte	0xa2
 3461 0626 52       		.byte	0x52
 3462 0627 0B       		.uleb128 0xb
 3463 0628 5F230000 		.4byte	.LASF107
 3464 062c 0B       		.byte	0xb
 3465 062d 63       		.byte	0x63
 3466 062e A2000000 		.4byte	0xa2
 3467 0632 53       		.byte	0x53
 3468 0633 0B       		.uleb128 0xb
 3469 0634 2A1A0000 		.4byte	.LASF108
 3470 0638 0B       		.byte	0xb
 3471 0639 64       		.byte	0x64
 3472 063a A2000000 		.4byte	0xa2
 3473 063e 54       		.byte	0x54
 3474 063f 0B       		.uleb128 0xb
 3475 0640 32280000 		.4byte	.LASF109
 3476 0644 0B       		.byte	0xb
 3477 0645 65       		.byte	0x65
 3478 0646 A2000000 		.4byte	0xa2
 3479 064a 55       		.byte	0x55
 3480 064b 0B       		.uleb128 0xb
 3481 064c 90220000 		.4byte	.LASF110
 3482 0650 0B       		.byte	0xb
 3483 0651 66       		.byte	0x66
 3484 0652 A2000000 		.4byte	0xa2
 3485 0656 56       		.byte	0x56
 3486 0657 0B       		.uleb128 0xb
 3487 0658 081C0000 		.4byte	.LASF111
 3488 065c 0B       		.byte	0xb
 3489 065d 67       		.byte	0x67
 3490 065e A2000000 		.4byte	0xa2
 3491 0662 57       		.byte	0x57
 3492 0663 0B       		.uleb128 0xb
 3493 0664 43150000 		.4byte	.LASF112
 3494 0668 0B       		.byte	0xb
 3495 0669 68       		.byte	0x68
 3496 066a A2000000 		.4byte	0xa2
 3497 066e 58       		.byte	0x58
 3498 066f 0B       		.uleb128 0xb
 3499 0670 320E0000 		.4byte	.LASF113
 3500 0674 0B       		.byte	0xb
 3501 0675 69       		.byte	0x69
 3502 0676 A2000000 		.4byte	0xa2
 3503 067a 59       		.byte	0x59
 3504 067b 0B       		.uleb128 0xb
 3505 067c B3280000 		.4byte	.LASF114
 3506 0680 0B       		.byte	0xb
 3507 0681 6E       		.byte	0x6e
 3508 0682 B8000000 		.4byte	0xb8
 3509 0686 5A       		.byte	0x5a
 3510 0687 0B       		.uleb128 0xb
 3511 0688 6B110000 		.4byte	.LASF115
 3512 068c 0B       		.byte	0xb
 3513 068d 6F       		.byte	0x6f
 3514 068e B8000000 		.4byte	0xb8
ARM GAS  C:\Users\seeho\AppData\Local\Temp\ccUkk7Dc.s 			page 115


 3515 0692 5C       		.byte	0x5c
 3516 0693 0B       		.uleb128 0xb
 3517 0694 F4240000 		.4byte	.LASF116
 3518 0698 0B       		.byte	0xb
 3519 0699 70       		.byte	0x70
 3520 069a A2000000 		.4byte	0xa2
 3521 069e 5E       		.byte	0x5e
 3522 069f 0B       		.uleb128 0xb
 3523 06a0 2F250000 		.4byte	.LASF117
 3524 06a4 0B       		.byte	0xb
 3525 06a5 71       		.byte	0x71
 3526 06a6 A2000000 		.4byte	0xa2
 3527 06aa 5F       		.byte	0x5f
 3528 06ab 0B       		.uleb128 0xb
 3529 06ac D9030000 		.4byte	.LASF118
 3530 06b0 0B       		.byte	0xb
 3531 06b1 72       		.byte	0x72
 3532 06b2 A2000000 		.4byte	0xa2
 3533 06b6 60       		.byte	0x60
 3534 06b7 0B       		.uleb128 0xb
 3535 06b8 C2190000 		.4byte	.LASF119
 3536 06bc 0B       		.byte	0xb
 3537 06bd 73       		.byte	0x73
 3538 06be CE000000 		.4byte	0xce
 3539 06c2 64       		.byte	0x64
 3540 06c3 0B       		.uleb128 0xb
 3541 06c4 74260000 		.4byte	.LASF120
 3542 06c8 0B       		.byte	0xb
 3543 06c9 76       		.byte	0x76
 3544 06ca B8000000 		.4byte	0xb8
 3545 06ce 68       		.byte	0x68
 3546 06cf 0B       		.uleb128 0xb
 3547 06d0 32060000 		.4byte	.LASF121
 3548 06d4 0B       		.byte	0xb
 3549 06d5 77       		.byte	0x77
 3550 06d6 B8000000 		.4byte	0xb8
 3551 06da 6A       		.byte	0x6a
 3552 06db 0B       		.uleb128 0xb
 3553 06dc DD0C0000 		.4byte	.LASF122
 3554 06e0 0B       		.byte	0xb
 3555 06e1 78       		.byte	0x78
 3556 06e2 B8000000 		.4byte	0xb8
 3557 06e6 6C       		.byte	0x6c
 3558 06e7 0B       		.uleb128 0xb
 3559 06e8 8D060000 		.4byte	.LASF123
 3560 06ec 0B       		.byte	0xb
 3561 06ed 79       		.byte	0x79
 3562 06ee B8000000 		.4byte	0xb8
 3563 06f2 6E       		.byte	0x6e
 3564 06f3 0B       		.uleb128 0xb
 3565 06f4 AB1F0000 		.4byte	.LASF124
 3566 06f8 0B       		.byte	0xb
 3567 06f9 7B       		.byte	0x7b
 3568 06fa A2000000 		.4byte	0xa2
 3569 06fe 70       		.byte	0x70
 3570 06ff 0B       		.uleb128 0xb
 3571 0700 0A130000 		.4byte	.LASF125
ARM GAS  C:\Users\seeho\AppData\Local\Temp\ccUkk7Dc.s 			page 116


 3572 0704 0B       		.byte	0xb
 3573 0705 7C       		.byte	0x7c
 3574 0706 A2000000 		.4byte	0xa2
 3575 070a 71       		.byte	0x71
 3576 070b 0B       		.uleb128 0xb
 3577 070c 49080000 		.4byte	.LASF126
 3578 0710 0B       		.byte	0xb
 3579 0711 7D       		.byte	0x7d
 3580 0712 A2000000 		.4byte	0xa2
 3581 0716 72       		.byte	0x72
 3582 0717 0B       		.uleb128 0xb
 3583 0718 ED250000 		.4byte	.LASF127
 3584 071c 0B       		.byte	0xb
 3585 071d 7E       		.byte	0x7e
 3586 071e A2000000 		.4byte	0xa2
 3587 0722 73       		.byte	0x73
 3588 0723 0B       		.uleb128 0xb
 3589 0724 6C060000 		.4byte	.LASF128
 3590 0728 0B       		.byte	0xb
 3591 0729 80       		.byte	0x80
 3592 072a B8000000 		.4byte	0xb8
 3593 072e 74       		.byte	0x74
 3594 072f 0B       		.uleb128 0xb
 3595 0730 8E120000 		.4byte	.LASF129
 3596 0734 0B       		.byte	0xb
 3597 0735 81       		.byte	0x81
 3598 0736 B8000000 		.4byte	0xb8
 3599 073a 76       		.byte	0x76
 3600 073b 0B       		.uleb128 0xb
 3601 073c 82150000 		.4byte	.LASF130
 3602 0740 0B       		.byte	0xb
 3603 0741 82       		.byte	0x82
 3604 0742 B8000000 		.4byte	0xb8
 3605 0746 78       		.byte	0x78
 3606 0747 0B       		.uleb128 0xb
 3607 0748 F71E0000 		.4byte	.LASF131
 3608 074c 0B       		.byte	0xb
 3609 074d 83       		.byte	0x83
 3610 074e B8000000 		.4byte	0xb8
 3611 0752 7A       		.byte	0x7a
 3612 0753 0B       		.uleb128 0xb
 3613 0754 D7170000 		.4byte	.LASF132
 3614 0758 0B       		.byte	0xb
 3615 0759 86       		.byte	0x86
 3616 075a A2000000 		.4byte	0xa2
 3617 075e 7C       		.byte	0x7c
 3618 075f 0B       		.uleb128 0xb
 3619 0760 DA020000 		.4byte	.LASF133
 3620 0764 0B       		.byte	0xb
 3621 0765 87       		.byte	0x87
 3622 0766 A2000000 		.4byte	0xa2
 3623 076a 7D       		.byte	0x7d
 3624 076b 0B       		.uleb128 0xb
 3625 076c 060F0000 		.4byte	.LASF134
 3626 0770 0B       		.byte	0xb
 3627 0771 88       		.byte	0x88
 3628 0772 A2000000 		.4byte	0xa2
ARM GAS  C:\Users\seeho\AppData\Local\Temp\ccUkk7Dc.s 			page 117


 3629 0776 7E       		.byte	0x7e
 3630 0777 0B       		.uleb128 0xb
 3631 0778 B2140000 		.4byte	.LASF135
 3632 077c 0B       		.byte	0xb
 3633 077d 89       		.byte	0x89
 3634 077e A2000000 		.4byte	0xa2
 3635 0782 7F       		.byte	0x7f
 3636 0783 0B       		.uleb128 0xb
 3637 0784 CC230000 		.4byte	.LASF136
 3638 0788 0B       		.byte	0xb
 3639 0789 8A       		.byte	0x8a
 3640 078a A2000000 		.4byte	0xa2
 3641 078e 80       		.byte	0x80
 3642 078f 0B       		.uleb128 0xb
 3643 0790 C60C0000 		.4byte	.LASF137
 3644 0794 0B       		.byte	0xb
 3645 0795 8D       		.byte	0x8d
 3646 0796 CE000000 		.4byte	0xce
 3647 079a 84       		.byte	0x84
 3648 079b 0B       		.uleb128 0xb
 3649 079c B01E0000 		.4byte	.LASF138
 3650 07a0 0B       		.byte	0xb
 3651 07a1 8E       		.byte	0x8e
 3652 07a2 CE000000 		.4byte	0xce
 3653 07a6 88       		.byte	0x88
 3654 07a7 0B       		.uleb128 0xb
 3655 07a8 57190000 		.4byte	.LASF139
 3656 07ac 0B       		.byte	0xb
 3657 07ad 8F       		.byte	0x8f
 3658 07ae CE000000 		.4byte	0xce
 3659 07b2 8C       		.byte	0x8c
 3660 07b3 0B       		.uleb128 0xb
 3661 07b4 09190000 		.4byte	.LASF140
 3662 07b8 0B       		.byte	0xb
 3663 07b9 90       		.byte	0x90
 3664 07ba CE000000 		.4byte	0xce
 3665 07be 90       		.byte	0x90
 3666 07bf 0B       		.uleb128 0xb
 3667 07c0 ED0D0000 		.4byte	.LASF141
 3668 07c4 0B       		.byte	0xb
 3669 07c5 91       		.byte	0x91
 3670 07c6 CE000000 		.4byte	0xce
 3671 07ca 94       		.byte	0x94
 3672 07cb 0B       		.uleb128 0xb
 3673 07cc 140A0000 		.4byte	.LASF142
 3674 07d0 0B       		.byte	0xb
 3675 07d1 92       		.byte	0x92
 3676 07d2 CE000000 		.4byte	0xce
 3677 07d6 98       		.byte	0x98
 3678 07d7 0B       		.uleb128 0xb
 3679 07d8 7F0A0000 		.4byte	.LASF143
 3680 07dc 0B       		.byte	0xb
 3681 07dd 93       		.byte	0x93
 3682 07de CE000000 		.4byte	0xce
 3683 07e2 9C       		.byte	0x9c
 3684 07e3 0B       		.uleb128 0xb
 3685 07e4 B3120000 		.4byte	.LASF144
ARM GAS  C:\Users\seeho\AppData\Local\Temp\ccUkk7Dc.s 			page 118


 3686 07e8 0B       		.byte	0xb
 3687 07e9 94       		.byte	0x94
 3688 07ea CE000000 		.4byte	0xce
 3689 07ee A0       		.byte	0xa0
 3690 07ef 0B       		.uleb128 0xb
 3691 07f0 7A1B0000 		.4byte	.LASF145
 3692 07f4 0B       		.byte	0xb
 3693 07f5 95       		.byte	0x95
 3694 07f6 B8000000 		.4byte	0xb8
 3695 07fa A4       		.byte	0xa4
 3696 07fb 0B       		.uleb128 0xb
 3697 07fc 5B1B0000 		.4byte	.LASF146
 3698 0800 0B       		.byte	0xb
 3699 0801 96       		.byte	0x96
 3700 0802 B8000000 		.4byte	0xb8
 3701 0806 A6       		.byte	0xa6
 3702 0807 0B       		.uleb128 0xb
 3703 0808 5F080000 		.4byte	.LASF147
 3704 080c 0B       		.byte	0xb
 3705 080d 97       		.byte	0x97
 3706 080e B8000000 		.4byte	0xb8
 3707 0812 A8       		.byte	0xa8
 3708 0813 0B       		.uleb128 0xb
 3709 0814 0C1F0000 		.4byte	.LASF148
 3710 0818 0B       		.byte	0xb
 3711 0819 98       		.byte	0x98
 3712 081a B8000000 		.4byte	0xb8
 3713 081e AA       		.byte	0xaa
 3714 081f 0B       		.uleb128 0xb
 3715 0820 EC170000 		.4byte	.LASF149
 3716 0824 0B       		.byte	0xb
 3717 0825 99       		.byte	0x99
 3718 0826 B8000000 		.4byte	0xb8
 3719 082a AC       		.byte	0xac
 3720 082b 0B       		.uleb128 0xb
 3721 082c B7100000 		.4byte	.LASF150
 3722 0830 0B       		.byte	0xb
 3723 0831 9A       		.byte	0x9a
 3724 0832 B8000000 		.4byte	0xb8
 3725 0836 AE       		.byte	0xae
 3726 0837 0B       		.uleb128 0xb
 3727 0838 32260000 		.4byte	.LASF151
 3728 083c 0B       		.byte	0xb
 3729 083d 9D       		.byte	0x9d
 3730 083e B8000000 		.4byte	0xb8
 3731 0842 B0       		.byte	0xb0
 3732 0843 0B       		.uleb128 0xb
 3733 0844 FD0C0000 		.4byte	.LASF152
 3734 0848 0B       		.byte	0xb
 3735 0849 9E       		.byte	0x9e
 3736 084a CE000000 		.4byte	0xce
 3737 084e B4       		.byte	0xb4
 3738 084f 00       		.byte	0
 3739 0850 03       		.uleb128 0x3
 3740 0851 62140000 		.4byte	.LASF153
 3741 0855 0B       		.byte	0xb
 3742 0856 9F       		.byte	0x9f
ARM GAS  C:\Users\seeho\AppData\Local\Temp\ccUkk7Dc.s 			page 119


 3743 0857 3F040000 		.4byte	0x43f
 3744 085b 10       		.uleb128 0x10
 3745 085c 04       		.byte	0x4
 3746 085d 61080000 		.4byte	0x861
 3747 0861 11       		.uleb128 0x11
 3748 0862 0F       		.uleb128 0xf
 3749 0863 791C0000 		.4byte	.LASF154
 3750 0867 0C       		.byte	0xc
 3751 0868 F601     		.2byte	0x1f6
 3752 086a 6E080000 		.4byte	0x86e
 3753 086e 02       		.uleb128 0x2
 3754 086f 01       		.byte	0x1
 3755 0870 08       		.byte	0x8
 3756 0871 B80A0000 		.4byte	.LASF155
 3757 0875 02       		.uleb128 0x2
 3758 0876 04       		.byte	0x4
 3759 0877 04       		.byte	0x4
 3760 0878 DA150000 		.4byte	.LASF156
 3761 087c 02       		.uleb128 0x2
 3762 087d 08       		.byte	0x8
 3763 087e 04       		.byte	0x4
 3764 087f AB140000 		.4byte	.LASF157
 3765 0883 0F       		.uleb128 0xf
 3766 0884 AD210000 		.4byte	.LASF158
 3767 0888 0C       		.byte	0xc
 3768 0889 EA03     		.2byte	0x3ea
 3769 088b A2000000 		.4byte	0xa2
 3770 088f 12       		.uleb128 0x12
 3771 0890 04       		.byte	0x4
 3772 0891 02       		.uleb128 0x2
 3773 0892 01       		.byte	0x1
 3774 0893 02       		.byte	0x2
 3775 0894 620A0000 		.4byte	.LASF159
 3776 0898 13       		.uleb128 0x13
 3777 0899 01       		.byte	0x1
 3778 089a 3E000000 		.4byte	0x3e
 3779 089e 0D       		.byte	0xd
 3780 089f 2402     		.2byte	0x224
 3781 08a1 B2080000 		.4byte	0x8b2
 3782 08a5 14       		.uleb128 0x14
 3783 08a6 1E0E0000 		.4byte	.LASF160
 3784 08aa 00       		.byte	0
 3785 08ab 14       		.uleb128 0x14
 3786 08ac E5240000 		.4byte	.LASF161
 3787 08b0 01       		.byte	0x1
 3788 08b1 00       		.byte	0
 3789 08b2 0F       		.uleb128 0xf
 3790 08b3 80100000 		.4byte	.LASF162
 3791 08b7 0D       		.byte	0xd
 3792 08b8 2702     		.2byte	0x227
 3793 08ba 98080000 		.4byte	0x898
 3794 08be 0F       		.uleb128 0xf
 3795 08bf 6C190000 		.4byte	.LASF163
 3796 08c3 0D       		.byte	0xd
 3797 08c4 3902     		.2byte	0x239
 3798 08c6 CA080000 		.4byte	0x8ca
 3799 08ca 10       		.uleb128 0x10
ARM GAS  C:\Users\seeho\AppData\Local\Temp\ccUkk7Dc.s 			page 120


 3800 08cb 04       		.byte	0x4
 3801 08cc D0080000 		.4byte	0x8d0
 3802 08d0 15       		.uleb128 0x15
 3803 08d1 DB080000 		.4byte	0x8db
 3804 08d5 16       		.uleb128 0x16
 3805 08d6 CE000000 		.4byte	0xce
 3806 08da 00       		.byte	0
 3807 08db 0F       		.uleb128 0xf
 3808 08dc 97280000 		.4byte	.LASF164
 3809 08e0 0D       		.byte	0xd
 3810 08e1 4402     		.2byte	0x244
 3811 08e3 E7080000 		.4byte	0x8e7
 3812 08e7 10       		.uleb128 0x10
 3813 08e8 04       		.byte	0x4
 3814 08e9 ED080000 		.4byte	0x8ed
 3815 08ed 17       		.uleb128 0x17
 3816 08ee B2080000 		.4byte	0x8b2
 3817 08f2 FC080000 		.4byte	0x8fc
 3818 08f6 16       		.uleb128 0x16
 3819 08f7 CE000000 		.4byte	0xce
 3820 08fb 00       		.byte	0
 3821 08fc 18       		.uleb128 0x18
 3822 08fd 7C270000 		.4byte	.LASF188
 3823 0901 4C       		.byte	0x4c
 3824 0902 0D       		.byte	0xd
 3825 0903 C302     		.2byte	0x2c3
 3826 0905 1B0A0000 		.4byte	0xa1b
 3827 0909 19       		.uleb128 0x19
 3828 090a FF040000 		.4byte	.LASF165
 3829 090e 0D       		.byte	0xd
 3830 090f C602     		.2byte	0x2c6
 3831 0911 91080000 		.4byte	0x891
 3832 0915 00       		.byte	0
 3833 0916 19       		.uleb128 0x19
 3834 0917 5C1C0000 		.4byte	.LASF166
 3835 091b 0D       		.byte	0xd
 3836 091c C702     		.2byte	0x2c7
 3837 091e 91080000 		.4byte	0x891
 3838 0922 01       		.byte	0x1
 3839 0923 19       		.uleb128 0x19
 3840 0924 C6020000 		.4byte	.LASF167
 3841 0928 0D       		.byte	0xd
 3842 0929 C902     		.2byte	0x2c9
 3843 092b E0000000 		.4byte	0xe0
 3844 092f 04       		.byte	0x4
 3845 0930 19       		.uleb128 0x19
 3846 0931 52230000 		.4byte	.LASF168
 3847 0935 0D       		.byte	0xd
 3848 0936 CB02     		.2byte	0x2cb
 3849 0938 E0000000 		.4byte	0xe0
 3850 093c 08       		.byte	0x8
 3851 093d 19       		.uleb128 0x19
 3852 093e C6240000 		.4byte	.LASF169
 3853 0942 0D       		.byte	0xd
 3854 0943 CC02     		.2byte	0x2cc
 3855 0945 91080000 		.4byte	0x891
 3856 0949 0C       		.byte	0xc
ARM GAS  C:\Users\seeho\AppData\Local\Temp\ccUkk7Dc.s 			page 121


 3857 094a 19       		.uleb128 0x19
 3858 094b D2240000 		.4byte	.LASF170
 3859 094f 0D       		.byte	0xd
 3860 0950 CD02     		.2byte	0x2cd
 3861 0952 91080000 		.4byte	0x891
 3862 0956 0D       		.byte	0xd
 3863 0957 19       		.uleb128 0x19
 3864 0958 48210000 		.4byte	.LASF171
 3865 095c 0D       		.byte	0xd
 3866 095d CF02     		.2byte	0x2cf
 3867 095f 1B0A0000 		.4byte	0xa1b
 3868 0963 10       		.byte	0x10
 3869 0964 19       		.uleb128 0x19
 3870 0965 8D0F0000 		.4byte	.LASF172
 3871 0969 0D       		.byte	0xd
 3872 096a D002     		.2byte	0x2d0
 3873 096c CE000000 		.4byte	0xce
 3874 0970 14       		.byte	0x14
 3875 0971 19       		.uleb128 0x19
 3876 0972 27230000 		.4byte	.LASF173
 3877 0976 0D       		.byte	0xd
 3878 0977 D102     		.2byte	0x2d1
 3879 0979 E0000000 		.4byte	0xe0
 3880 097d 18       		.byte	0x18
 3881 097e 19       		.uleb128 0x19
 3882 097f 2D140000 		.4byte	.LASF174
 3883 0983 0D       		.byte	0xd
 3884 0984 D202     		.2byte	0x2d2
 3885 0986 E0000000 		.4byte	0xe0
 3886 098a 1C       		.byte	0x1c
 3887 098b 19       		.uleb128 0x19
 3888 098c 28110000 		.4byte	.LASF175
 3889 0990 0D       		.byte	0xd
 3890 0991 D402     		.2byte	0x2d4
 3891 0993 E0000000 		.4byte	0xe0
 3892 0997 20       		.byte	0x20
 3893 0998 19       		.uleb128 0x19
 3894 0999 5F0C0000 		.4byte	.LASF176
 3895 099d 0D       		.byte	0xd
 3896 099e D502     		.2byte	0x2d5
 3897 09a0 210A0000 		.4byte	0xa21
 3898 09a4 24       		.byte	0x24
 3899 09a5 19       		.uleb128 0x19
 3900 09a6 B5130000 		.4byte	.LASF177
 3901 09aa 0D       		.byte	0xd
 3902 09ab D702     		.2byte	0x2d7
 3903 09ad 1B0A0000 		.4byte	0xa1b
 3904 09b1 28       		.byte	0x28
 3905 09b2 19       		.uleb128 0x19
 3906 09b3 F8120000 		.4byte	.LASF178
 3907 09b7 0D       		.byte	0xd
 3908 09b8 D802     		.2byte	0x2d8
 3909 09ba CE000000 		.4byte	0xce
 3910 09be 2C       		.byte	0x2c
 3911 09bf 19       		.uleb128 0x19
 3912 09c0 B7080000 		.4byte	.LASF179
 3913 09c4 0D       		.byte	0xd
ARM GAS  C:\Users\seeho\AppData\Local\Temp\ccUkk7Dc.s 			page 122


 3914 09c5 D902     		.2byte	0x2d9
 3915 09c7 E0000000 		.4byte	0xe0
 3916 09cb 30       		.byte	0x30
 3917 09cc 19       		.uleb128 0x19
 3918 09cd EC0C0000 		.4byte	.LASF180
 3919 09d1 0D       		.byte	0xd
 3920 09d2 DA02     		.2byte	0x2da
 3921 09d4 E0000000 		.4byte	0xe0
 3922 09d8 34       		.byte	0x34
 3923 09d9 19       		.uleb128 0x19
 3924 09da 1C090000 		.4byte	.LASF181
 3925 09de 0D       		.byte	0xd
 3926 09df DC02     		.2byte	0x2dc
 3927 09e1 1B0A0000 		.4byte	0xa1b
 3928 09e5 38       		.byte	0x38
 3929 09e6 19       		.uleb128 0x19
 3930 09e7 32190000 		.4byte	.LASF182
 3931 09eb 0D       		.byte	0xd
 3932 09ec DD02     		.2byte	0x2dd
 3933 09ee CE000000 		.4byte	0xce
 3934 09f2 3C       		.byte	0x3c
 3935 09f3 19       		.uleb128 0x19
 3936 09f4 BF250000 		.4byte	.LASF183
 3937 09f8 0D       		.byte	0xd
 3938 09f9 DE02     		.2byte	0x2de
 3939 09fb E0000000 		.4byte	0xe0
 3940 09ff 40       		.byte	0x40
 3941 0a00 19       		.uleb128 0x19
 3942 0a01 D50F0000 		.4byte	.LASF184
 3943 0a05 0D       		.byte	0xd
 3944 0a06 E402     		.2byte	0x2e4
 3945 0a08 BE080000 		.4byte	0x8be
 3946 0a0c 44       		.byte	0x44
 3947 0a0d 19       		.uleb128 0x19
 3948 0a0e 55210000 		.4byte	.LASF185
 3949 0a12 0D       		.byte	0xd
 3950 0a13 EB02     		.2byte	0x2eb
 3951 0a15 DB080000 		.4byte	0x8db
 3952 0a19 48       		.byte	0x48
 3953 0a1a 00       		.byte	0
 3954 0a1b 10       		.uleb128 0x10
 3955 0a1c 04       		.byte	0x4
 3956 0a1d A2000000 		.4byte	0xa2
 3957 0a21 05       		.uleb128 0x5
 3958 0a22 91080000 		.4byte	0x891
 3959 0a26 0F       		.uleb128 0xf
 3960 0a27 50090000 		.4byte	.LASF186
 3961 0a2b 0D       		.byte	0xd
 3962 0a2c EE02     		.2byte	0x2ee
 3963 0a2e FC080000 		.4byte	0x8fc
 3964 0a32 0F       		.uleb128 0xf
 3965 0a33 A91A0000 		.4byte	.LASF187
 3966 0a37 0E       		.byte	0xe
 3967 0a38 D901     		.2byte	0x1d9
 3968 0a3a CA080000 		.4byte	0x8ca
 3969 0a3e 18       		.uleb128 0x18
 3970 0a3f B6000000 		.4byte	.LASF189
ARM GAS  C:\Users\seeho\AppData\Local\Temp\ccUkk7Dc.s 			page 123


 3971 0a43 38       		.byte	0x38
 3972 0a44 0E       		.byte	0xe
 3973 0a45 7502     		.2byte	0x275
 3974 0a47 020B0000 		.4byte	0xb02
 3975 0a4b 19       		.uleb128 0x19
 3976 0a4c 86020000 		.4byte	.LASF190
 3977 0a50 0E       		.byte	0xe
 3978 0a51 7802     		.2byte	0x278
 3979 0a53 E0000000 		.4byte	0xe0
 3980 0a57 00       		.byte	0
 3981 0a58 19       		.uleb128 0x19
 3982 0a59 3F210000 		.4byte	.LASF191
 3983 0a5d 0E       		.byte	0xe
 3984 0a5e 7902     		.2byte	0x279
 3985 0a60 E0000000 		.4byte	0xe0
 3986 0a64 04       		.byte	0x4
 3987 0a65 19       		.uleb128 0x19
 3988 0a66 54270000 		.4byte	.LASF192
 3989 0a6a 0E       		.byte	0xe
 3990 0a6b 7B02     		.2byte	0x27b
 3991 0a6d 8F080000 		.4byte	0x88f
 3992 0a71 08       		.byte	0x8
 3993 0a72 19       		.uleb128 0x19
 3994 0a73 1C1A0000 		.4byte	.LASF193
 3995 0a77 0E       		.byte	0xe
 3996 0a78 7C02     		.2byte	0x27c
 3997 0a7a CE000000 		.4byte	0xce
 3998 0a7e 0C       		.byte	0xc
 3999 0a7f 19       		.uleb128 0x19
 4000 0a80 0E090000 		.4byte	.LASF194
 4001 0a84 0E       		.byte	0xe
 4002 0a85 7D02     		.2byte	0x27d
 4003 0a87 E0000000 		.4byte	0xe0
 4004 0a8b 10       		.byte	0x10
 4005 0a8c 19       		.uleb128 0x19
 4006 0a8d E1260000 		.4byte	.LASF195
 4007 0a91 0E       		.byte	0xe
 4008 0a92 7E02     		.2byte	0x27e
 4009 0a94 E0000000 		.4byte	0xe0
 4010 0a98 14       		.byte	0x14
 4011 0a99 19       		.uleb128 0x19
 4012 0a9a 06010000 		.4byte	.LASF196
 4013 0a9e 0E       		.byte	0xe
 4014 0a9f 8002     		.2byte	0x280
 4015 0aa1 8F080000 		.4byte	0x88f
 4016 0aa5 18       		.byte	0x18
 4017 0aa6 19       		.uleb128 0x19
 4018 0aa7 6D0B0000 		.4byte	.LASF197
 4019 0aab 0E       		.byte	0xe
 4020 0aac 8102     		.2byte	0x281
 4021 0aae CE000000 		.4byte	0xce
 4022 0ab2 1C       		.byte	0x1c
 4023 0ab3 19       		.uleb128 0x19
 4024 0ab4 79150000 		.4byte	.LASF198
 4025 0ab8 0E       		.byte	0xe
 4026 0ab9 8202     		.2byte	0x282
 4027 0abb E0000000 		.4byte	0xe0
ARM GAS  C:\Users\seeho\AppData\Local\Temp\ccUkk7Dc.s 			page 124


 4028 0abf 20       		.byte	0x20
 4029 0ac0 19       		.uleb128 0x19
 4030 0ac1 3B1E0000 		.4byte	.LASF199
 4031 0ac5 0E       		.byte	0xe
 4032 0ac6 8402     		.2byte	0x284
 4033 0ac8 8F080000 		.4byte	0x88f
 4034 0acc 24       		.byte	0x24
 4035 0acd 19       		.uleb128 0x19
 4036 0ace 44050000 		.4byte	.LASF200
 4037 0ad2 0E       		.byte	0xe
 4038 0ad3 8502     		.2byte	0x285
 4039 0ad5 CE000000 		.4byte	0xce
 4040 0ad9 28       		.byte	0x28
 4041 0ada 19       		.uleb128 0x19
 4042 0adb C5100000 		.4byte	.LASF201
 4043 0adf 0E       		.byte	0xe
 4044 0ae0 8602     		.2byte	0x286
 4045 0ae2 E0000000 		.4byte	0xe0
 4046 0ae6 2C       		.byte	0x2c
 4047 0ae7 19       		.uleb128 0x19
 4048 0ae8 D50F0000 		.4byte	.LASF184
 4049 0aec 0E       		.byte	0xe
 4050 0aed 8B02     		.2byte	0x28b
 4051 0aef 320A0000 		.4byte	0xa32
 4052 0af3 30       		.byte	0x30
 4053 0af4 19       		.uleb128 0x19
 4054 0af5 E3210000 		.4byte	.LASF202
 4055 0af9 0E       		.byte	0xe
 4056 0afa 8E02     		.2byte	0x28e
 4057 0afc CE000000 		.4byte	0xce
 4058 0b00 34       		.byte	0x34
 4059 0b01 00       		.byte	0
 4060 0b02 0F       		.uleb128 0xf
 4061 0b03 C3130000 		.4byte	.LASF203
 4062 0b07 0E       		.byte	0xe
 4063 0b08 9102     		.2byte	0x291
 4064 0b0a 3E0A0000 		.4byte	0xa3e
 4065 0b0e 1A       		.uleb128 0x1a
 4066 0b0f 830D0000 		.4byte	.LASF204
 4067 0b13 64       		.byte	0x64
 4068 0b14 04       		.byte	0x4
 4069 0b15 2F       		.byte	0x2f
 4070 0b16 470C0000 		.4byte	0xc47
 4071 0b1a 0B       		.uleb128 0xb
 4072 0b1b 41170000 		.4byte	.LASF205
 4073 0b1f 04       		.byte	0x4
 4074 0b20 31       		.byte	0x31
 4075 0b21 CE000000 		.4byte	0xce
 4076 0b25 00       		.byte	0
 4077 0b26 0B       		.uleb128 0xb
 4078 0b27 A30B0000 		.4byte	.LASF206
 4079 0b2b 04       		.byte	0x4
 4080 0b2c 33       		.byte	0x33
 4081 0b2d CE000000 		.4byte	0xce
 4082 0b31 04       		.byte	0x4
 4083 0b32 0B       		.uleb128 0xb
 4084 0b33 89030000 		.4byte	.LASF207
ARM GAS  C:\Users\seeho\AppData\Local\Temp\ccUkk7Dc.s 			page 125


 4085 0b37 04       		.byte	0x4
 4086 0b38 34       		.byte	0x34
 4087 0b39 CE000000 		.4byte	0xce
 4088 0b3d 08       		.byte	0x8
 4089 0b3e 0B       		.uleb128 0xb
 4090 0b3f 71230000 		.4byte	.LASF208
 4091 0b43 04       		.byte	0x4
 4092 0b44 35       		.byte	0x35
 4093 0b45 CE000000 		.4byte	0xce
 4094 0b49 0C       		.byte	0xc
 4095 0b4a 0B       		.uleb128 0xb
 4096 0b4b 480B0000 		.4byte	.LASF209
 4097 0b4f 04       		.byte	0x4
 4098 0b50 36       		.byte	0x36
 4099 0b51 CE000000 		.4byte	0xce
 4100 0b55 10       		.byte	0x10
 4101 0b56 0B       		.uleb128 0xb
 4102 0b57 15080000 		.4byte	.LASF210
 4103 0b5b 04       		.byte	0x4
 4104 0b5c 37       		.byte	0x37
 4105 0b5d CE000000 		.4byte	0xce
 4106 0b61 14       		.byte	0x14
 4107 0b62 0B       		.uleb128 0xb
 4108 0b63 1D080000 		.4byte	.LASF211
 4109 0b67 04       		.byte	0x4
 4110 0b68 38       		.byte	0x38
 4111 0b69 CE000000 		.4byte	0xce
 4112 0b6d 18       		.byte	0x18
 4113 0b6e 0B       		.uleb128 0xb
 4114 0b6f 5A110000 		.4byte	.LASF212
 4115 0b73 04       		.byte	0x4
 4116 0b74 39       		.byte	0x39
 4117 0b75 91080000 		.4byte	0x891
 4118 0b79 1C       		.byte	0x1c
 4119 0b7a 0B       		.uleb128 0xb
 4120 0b7b 0A030000 		.4byte	.LASF213
 4121 0b7f 04       		.byte	0x4
 4122 0b80 3A       		.byte	0x3a
 4123 0b81 CE000000 		.4byte	0xce
 4124 0b85 20       		.byte	0x20
 4125 0b86 0B       		.uleb128 0xb
 4126 0b87 13030000 		.4byte	.LASF214
 4127 0b8b 04       		.byte	0x4
 4128 0b8c 3B       		.byte	0x3b
 4129 0b8d CE000000 		.4byte	0xce
 4130 0b91 24       		.byte	0x24
 4131 0b92 0B       		.uleb128 0xb
 4132 0b93 7F170000 		.4byte	.LASF215
 4133 0b97 04       		.byte	0x4
 4134 0b98 3C       		.byte	0x3c
 4135 0b99 91080000 		.4byte	0x891
 4136 0b9d 28       		.byte	0x28
 4137 0b9e 0B       		.uleb128 0xb
 4138 0b9f C9120000 		.4byte	.LASF216
 4139 0ba3 04       		.byte	0x4
 4140 0ba4 3E       		.byte	0x3e
 4141 0ba5 CE000000 		.4byte	0xce
ARM GAS  C:\Users\seeho\AppData\Local\Temp\ccUkk7Dc.s 			page 126


 4142 0ba9 2C       		.byte	0x2c
 4143 0baa 0B       		.uleb128 0xb
 4144 0bab 9E0F0000 		.4byte	.LASF217
 4145 0baf 04       		.byte	0x4
 4146 0bb0 3F       		.byte	0x3f
 4147 0bb1 CE000000 		.4byte	0xce
 4148 0bb5 30       		.byte	0x30
 4149 0bb6 0B       		.uleb128 0xb
 4150 0bb7 8E260000 		.4byte	.LASF218
 4151 0bbb 04       		.byte	0x4
 4152 0bbc 40       		.byte	0x40
 4153 0bbd CE000000 		.4byte	0xce
 4154 0bc1 34       		.byte	0x34
 4155 0bc2 0B       		.uleb128 0xb
 4156 0bc3 FD0E0000 		.4byte	.LASF219
 4157 0bc7 04       		.byte	0x4
 4158 0bc8 41       		.byte	0x41
 4159 0bc9 CE000000 		.4byte	0xce
 4160 0bcd 38       		.byte	0x38
 4161 0bce 0B       		.uleb128 0xb
 4162 0bcf 47130000 		.4byte	.LASF220
 4163 0bd3 04       		.byte	0x4
 4164 0bd4 42       		.byte	0x42
 4165 0bd5 CE000000 		.4byte	0xce
 4166 0bd9 3C       		.byte	0x3c
 4167 0bda 0B       		.uleb128 0xb
 4168 0bdb 3A050000 		.4byte	.LASF221
 4169 0bdf 04       		.byte	0x4
 4170 0be0 44       		.byte	0x44
 4171 0be1 CE000000 		.4byte	0xce
 4172 0be5 40       		.byte	0x40
 4173 0be6 0B       		.uleb128 0xb
 4174 0be7 44060000 		.4byte	.LASF222
 4175 0beb 04       		.byte	0x4
 4176 0bec 45       		.byte	0x45
 4177 0bed CE000000 		.4byte	0xce
 4178 0bf1 44       		.byte	0x44
 4179 0bf2 0B       		.uleb128 0xb
 4180 0bf3 B2260000 		.4byte	.LASF223
 4181 0bf7 04       		.byte	0x4
 4182 0bf8 47       		.byte	0x47
 4183 0bf9 CE000000 		.4byte	0xce
 4184 0bfd 48       		.byte	0x48
 4185 0bfe 0B       		.uleb128 0xb
 4186 0bff 30210000 		.4byte	.LASF224
 4187 0c03 04       		.byte	0x4
 4188 0c04 48       		.byte	0x48
 4189 0c05 CE000000 		.4byte	0xce
 4190 0c09 4C       		.byte	0x4c
 4191 0c0a 0B       		.uleb128 0xb
 4192 0c0b 27280000 		.4byte	.LASF225
 4193 0c0f 04       		.byte	0x4
 4194 0c10 4A       		.byte	0x4a
 4195 0c11 CE000000 		.4byte	0xce
 4196 0c15 50       		.byte	0x50
 4197 0c16 0B       		.uleb128 0xb
 4198 0c17 25240000 		.4byte	.LASF226
ARM GAS  C:\Users\seeho\AppData\Local\Temp\ccUkk7Dc.s 			page 127


 4199 0c1b 04       		.byte	0x4
 4200 0c1c 4B       		.byte	0x4b
 4201 0c1d CE000000 		.4byte	0xce
 4202 0c21 54       		.byte	0x54
 4203 0c22 0B       		.uleb128 0xb
 4204 0c23 91170000 		.4byte	.LASF227
 4205 0c27 04       		.byte	0x4
 4206 0c28 4D       		.byte	0x4d
 4207 0c29 CE000000 		.4byte	0xce
 4208 0c2d 58       		.byte	0x58
 4209 0c2e 0B       		.uleb128 0xb
 4210 0c2f CA030000 		.4byte	.LASF228
 4211 0c33 04       		.byte	0x4
 4212 0c34 4E       		.byte	0x4e
 4213 0c35 CE000000 		.4byte	0xce
 4214 0c39 5C       		.byte	0x5c
 4215 0c3a 0B       		.uleb128 0xb
 4216 0c3b 2E180000 		.4byte	.LASF229
 4217 0c3f 04       		.byte	0x4
 4218 0c40 50       		.byte	0x50
 4219 0c41 CE000000 		.4byte	0xce
 4220 0c45 60       		.byte	0x60
 4221 0c46 00       		.byte	0
 4222 0c47 03       		.uleb128 0x3
 4223 0c48 0A040000 		.4byte	.LASF230
 4224 0c4c 04       		.byte	0x4
 4225 0c4d 51       		.byte	0x51
 4226 0c4e 0E0B0000 		.4byte	0xb0e
 4227 0c52 03       		.uleb128 0x3
 4228 0c53 EE100000 		.4byte	.LASF231
 4229 0c57 0F       		.byte	0xf
 4230 0c58 07       		.byte	0x7
 4231 0c59 94000000 		.4byte	0x94
 4232 0c5d 03       		.uleb128 0x3
 4233 0c5e DE240000 		.4byte	.LASF232
 4234 0c62 10       		.byte	0x10
 4235 0c63 2C       		.byte	0x2c
 4236 0c64 6D000000 		.4byte	0x6d
 4237 0c68 03       		.uleb128 0x3
 4238 0c69 421B0000 		.4byte	.LASF233
 4239 0c6d 10       		.byte	0x10
 4240 0c6e 72       		.byte	0x72
 4241 0c6f 6D000000 		.4byte	0x6d
 4242 0c73 0F       		.uleb128 0xf
 4243 0c74 9D1F0000 		.4byte	.LASF234
 4244 0c78 11       		.byte	0x11
 4245 0c79 6501     		.2byte	0x165
 4246 0c7b 9B000000 		.4byte	0x9b
 4247 0c7f 1B       		.uleb128 0x1b
 4248 0c80 04       		.byte	0x4
 4249 0c81 10       		.byte	0x10
 4250 0c82 A6       		.byte	0xa6
 4251 0c83 9E0C0000 		.4byte	0xc9e
 4252 0c87 1C       		.uleb128 0x1c
 4253 0c88 C0040000 		.4byte	.LASF235
 4254 0c8c 10       		.byte	0x10
 4255 0c8d A8       		.byte	0xa8
ARM GAS  C:\Users\seeho\AppData\Local\Temp\ccUkk7Dc.s 			page 128


 4256 0c8e 730C0000 		.4byte	0xc73
 4257 0c92 1C       		.uleb128 0x1c
 4258 0c93 4A1B0000 		.4byte	.LASF236
 4259 0c97 10       		.byte	0x10
 4260 0c98 A9       		.byte	0xa9
 4261 0c99 9E0C0000 		.4byte	0xc9e
 4262 0c9d 00       		.byte	0
 4263 0c9e 07       		.uleb128 0x7
 4264 0c9f 3E000000 		.4byte	0x3e
 4265 0ca3 AE0C0000 		.4byte	0xcae
 4266 0ca7 08       		.uleb128 0x8
 4267 0ca8 D9000000 		.4byte	0xd9
 4268 0cac 03       		.byte	0x3
 4269 0cad 00       		.byte	0
 4270 0cae 09       		.uleb128 0x9
 4271 0caf 08       		.byte	0x8
 4272 0cb0 10       		.byte	0x10
 4273 0cb1 A3       		.byte	0xa3
 4274 0cb2 CF0C0000 		.4byte	0xccf
 4275 0cb6 0B       		.uleb128 0xb
 4276 0cb7 BA190000 		.4byte	.LASF237
 4277 0cbb 10       		.byte	0x10
 4278 0cbc A5       		.byte	0xa5
 4279 0cbd 94000000 		.4byte	0x94
 4280 0cc1 00       		.byte	0
 4281 0cc2 0B       		.uleb128 0xb
 4282 0cc3 64000000 		.4byte	.LASF238
 4283 0cc7 10       		.byte	0x10
 4284 0cc8 AA       		.byte	0xaa
 4285 0cc9 7F0C0000 		.4byte	0xc7f
 4286 0ccd 04       		.byte	0x4
 4287 0cce 00       		.byte	0
 4288 0ccf 03       		.uleb128 0x3
 4289 0cd0 5A1F0000 		.4byte	.LASF239
 4290 0cd4 10       		.byte	0x10
 4291 0cd5 AB       		.byte	0xab
 4292 0cd6 AE0C0000 		.4byte	0xcae
 4293 0cda 03       		.uleb128 0x3
 4294 0cdb 1A1F0000 		.4byte	.LASF240
 4295 0cdf 10       		.byte	0x10
 4296 0ce0 AF       		.byte	0xaf
 4297 0ce1 520C0000 		.4byte	0xc52
 4298 0ce5 10       		.uleb128 0x10
 4299 0ce6 04       		.byte	0x4
 4300 0ce7 6E080000 		.4byte	0x86e
 4301 0ceb 03       		.uleb128 0x3
 4302 0cec 78240000 		.4byte	.LASF241
 4303 0cf0 12       		.byte	0x12
 4304 0cf1 16       		.byte	0x16
 4305 0cf2 7F000000 		.4byte	0x7f
 4306 0cf6 1A       		.uleb128 0x1a
 4307 0cf7 F6110000 		.4byte	.LASF242
 4308 0cfb 18       		.byte	0x18
 4309 0cfc 12       		.byte	0x12
 4310 0cfd 2D       		.byte	0x2d
 4311 0cfe 490D0000 		.4byte	0xd49
 4312 0d02 0B       		.uleb128 0xb
ARM GAS  C:\Users\seeho\AppData\Local\Temp\ccUkk7Dc.s 			page 129


 4313 0d03 0B200000 		.4byte	.LASF243
 4314 0d07 12       		.byte	0x12
 4315 0d08 2F       		.byte	0x2f
 4316 0d09 490D0000 		.4byte	0xd49
 4317 0d0d 00       		.byte	0
 4318 0d0e 0A       		.uleb128 0xa
 4319 0d0f 5F6B00   		.ascii	"_k\000"
 4320 0d12 12       		.byte	0x12
 4321 0d13 30       		.byte	0x30
 4322 0d14 94000000 		.4byte	0x94
 4323 0d18 04       		.byte	0x4
 4324 0d19 0B       		.uleb128 0xb
 4325 0d1a 63120000 		.4byte	.LASF244
 4326 0d1e 12       		.byte	0x12
 4327 0d1f 30       		.byte	0x30
 4328 0d20 94000000 		.4byte	0x94
 4329 0d24 08       		.byte	0x8
 4330 0d25 0B       		.uleb128 0xb
 4331 0d26 B0150000 		.4byte	.LASF245
 4332 0d2a 12       		.byte	0x12
 4333 0d2b 30       		.byte	0x30
 4334 0d2c 94000000 		.4byte	0x94
 4335 0d30 0C       		.byte	0xc
 4336 0d31 0B       		.uleb128 0xb
 4337 0d32 2D0E0000 		.4byte	.LASF246
 4338 0d36 12       		.byte	0x12
 4339 0d37 30       		.byte	0x30
 4340 0d38 94000000 		.4byte	0x94
 4341 0d3c 10       		.byte	0x10
 4342 0d3d 0A       		.uleb128 0xa
 4343 0d3e 5F7800   		.ascii	"_x\000"
 4344 0d41 12       		.byte	0x12
 4345 0d42 31       		.byte	0x31
 4346 0d43 4F0D0000 		.4byte	0xd4f
 4347 0d47 14       		.byte	0x14
 4348 0d48 00       		.byte	0
 4349 0d49 10       		.uleb128 0x10
 4350 0d4a 04       		.byte	0x4
 4351 0d4b F60C0000 		.4byte	0xcf6
 4352 0d4f 07       		.uleb128 0x7
 4353 0d50 EB0C0000 		.4byte	0xceb
 4354 0d54 5F0D0000 		.4byte	0xd5f
 4355 0d58 08       		.uleb128 0x8
 4356 0d59 D9000000 		.4byte	0xd9
 4357 0d5d 00       		.byte	0
 4358 0d5e 00       		.byte	0
 4359 0d5f 1A       		.uleb128 0x1a
 4360 0d60 19020000 		.4byte	.LASF247
 4361 0d64 24       		.byte	0x24
 4362 0d65 12       		.byte	0x12
 4363 0d66 35       		.byte	0x35
 4364 0d67 D80D0000 		.4byte	0xdd8
 4365 0d6b 0B       		.uleb128 0xb
 4366 0d6c 3E020000 		.4byte	.LASF248
 4367 0d70 12       		.byte	0x12
 4368 0d71 37       		.byte	0x37
 4369 0d72 94000000 		.4byte	0x94
ARM GAS  C:\Users\seeho\AppData\Local\Temp\ccUkk7Dc.s 			page 130


 4370 0d76 00       		.byte	0
 4371 0d77 0B       		.uleb128 0xb
 4372 0d78 F0270000 		.4byte	.LASF249
 4373 0d7c 12       		.byte	0x12
 4374 0d7d 38       		.byte	0x38
 4375 0d7e 94000000 		.4byte	0x94
 4376 0d82 04       		.byte	0x4
 4377 0d83 0B       		.uleb128 0xb
 4378 0d84 58250000 		.4byte	.LASF250
 4379 0d88 12       		.byte	0x12
 4380 0d89 39       		.byte	0x39
 4381 0d8a 94000000 		.4byte	0x94
 4382 0d8e 08       		.byte	0x8
 4383 0d8f 0B       		.uleb128 0xb
 4384 0d90 FA170000 		.4byte	.LASF251
 4385 0d94 12       		.byte	0x12
 4386 0d95 3A       		.byte	0x3a
 4387 0d96 94000000 		.4byte	0x94
 4388 0d9a 0C       		.byte	0xc
 4389 0d9b 0B       		.uleb128 0xb
 4390 0d9c EF060000 		.4byte	.LASF252
 4391 0da0 12       		.byte	0x12
 4392 0da1 3B       		.byte	0x3b
 4393 0da2 94000000 		.4byte	0x94
 4394 0da6 10       		.byte	0x10
 4395 0da7 0B       		.uleb128 0xb
 4396 0da8 AD220000 		.4byte	.LASF253
 4397 0dac 12       		.byte	0x12
 4398 0dad 3C       		.byte	0x3c
 4399 0dae 94000000 		.4byte	0x94
 4400 0db2 14       		.byte	0x14
 4401 0db3 0B       		.uleb128 0xb
 4402 0db4 581A0000 		.4byte	.LASF254
 4403 0db8 12       		.byte	0x12
 4404 0db9 3D       		.byte	0x3d
 4405 0dba 94000000 		.4byte	0x94
 4406 0dbe 18       		.byte	0x18
 4407 0dbf 0B       		.uleb128 0xb
 4408 0dc0 0A0A0000 		.4byte	.LASF255
 4409 0dc4 12       		.byte	0x12
 4410 0dc5 3E       		.byte	0x3e
 4411 0dc6 94000000 		.4byte	0x94
 4412 0dca 1C       		.byte	0x1c
 4413 0dcb 0B       		.uleb128 0xb
 4414 0dcc 3B270000 		.4byte	.LASF256
 4415 0dd0 12       		.byte	0x12
 4416 0dd1 3F       		.byte	0x3f
 4417 0dd2 94000000 		.4byte	0x94
 4418 0dd6 20       		.byte	0x20
 4419 0dd7 00       		.byte	0
 4420 0dd8 1D       		.uleb128 0x1d
 4421 0dd9 F1040000 		.4byte	.LASF257
 4422 0ddd 0801     		.2byte	0x108
 4423 0ddf 12       		.byte	0x12
 4424 0de0 48       		.byte	0x48
 4425 0de1 180E0000 		.4byte	0xe18
 4426 0de5 0B       		.uleb128 0xb
ARM GAS  C:\Users\seeho\AppData\Local\Temp\ccUkk7Dc.s 			page 131


 4427 0de6 08270000 		.4byte	.LASF258
 4428 0dea 12       		.byte	0x12
 4429 0deb 49       		.byte	0x49
 4430 0dec 180E0000 		.4byte	0xe18
 4431 0df0 00       		.byte	0
 4432 0df1 0B       		.uleb128 0xb
 4433 0df2 561D0000 		.4byte	.LASF259
 4434 0df6 12       		.byte	0x12
 4435 0df7 4A       		.byte	0x4a
 4436 0df8 180E0000 		.4byte	0xe18
 4437 0dfc 80       		.byte	0x80
 4438 0dfd 0D       		.uleb128 0xd
 4439 0dfe A4220000 		.4byte	.LASF260
 4440 0e02 12       		.byte	0x12
 4441 0e03 4C       		.byte	0x4c
 4442 0e04 EB0C0000 		.4byte	0xceb
 4443 0e08 0001     		.2byte	0x100
 4444 0e0a 0D       		.uleb128 0xd
 4445 0e0b 6F0C0000 		.4byte	.LASF261
 4446 0e0f 12       		.byte	0x12
 4447 0e10 4F       		.byte	0x4f
 4448 0e11 EB0C0000 		.4byte	0xceb
 4449 0e15 0401     		.2byte	0x104
 4450 0e17 00       		.byte	0
 4451 0e18 07       		.uleb128 0x7
 4452 0e19 8F080000 		.4byte	0x88f
 4453 0e1d 280E0000 		.4byte	0xe28
 4454 0e21 08       		.uleb128 0x8
 4455 0e22 D9000000 		.4byte	0xd9
 4456 0e26 1F       		.byte	0x1f
 4457 0e27 00       		.byte	0
 4458 0e28 1D       		.uleb128 0x1d
 4459 0e29 1E190000 		.4byte	.LASF262
 4460 0e2d 9001     		.2byte	0x190
 4461 0e2f 12       		.byte	0x12
 4462 0e30 5B       		.byte	0x5b
 4463 0e31 660E0000 		.4byte	0xe66
 4464 0e35 0B       		.uleb128 0xb
 4465 0e36 0B200000 		.4byte	.LASF243
 4466 0e3a 12       		.byte	0x12
 4467 0e3b 5C       		.byte	0x5c
 4468 0e3c 660E0000 		.4byte	0xe66
 4469 0e40 00       		.byte	0
 4470 0e41 0B       		.uleb128 0xb
 4471 0e42 BB230000 		.4byte	.LASF263
 4472 0e46 12       		.byte	0x12
 4473 0e47 5D       		.byte	0x5d
 4474 0e48 94000000 		.4byte	0x94
 4475 0e4c 04       		.byte	0x4
 4476 0e4d 0B       		.uleb128 0xb
 4477 0e4e E00A0000 		.4byte	.LASF264
 4478 0e52 12       		.byte	0x12
 4479 0e53 5F       		.byte	0x5f
 4480 0e54 6C0E0000 		.4byte	0xe6c
 4481 0e58 08       		.byte	0x8
 4482 0e59 0B       		.uleb128 0xb
 4483 0e5a F1040000 		.4byte	.LASF257
ARM GAS  C:\Users\seeho\AppData\Local\Temp\ccUkk7Dc.s 			page 132


 4484 0e5e 12       		.byte	0x12
 4485 0e5f 60       		.byte	0x60
 4486 0e60 D80D0000 		.4byte	0xdd8
 4487 0e64 88       		.byte	0x88
 4488 0e65 00       		.byte	0
 4489 0e66 10       		.uleb128 0x10
 4490 0e67 04       		.byte	0x4
 4491 0e68 280E0000 		.4byte	0xe28
 4492 0e6c 07       		.uleb128 0x7
 4493 0e6d 5B080000 		.4byte	0x85b
 4494 0e71 7C0E0000 		.4byte	0xe7c
 4495 0e75 08       		.uleb128 0x8
 4496 0e76 D9000000 		.4byte	0xd9
 4497 0e7a 1F       		.byte	0x1f
 4498 0e7b 00       		.byte	0
 4499 0e7c 1A       		.uleb128 0x1a
 4500 0e7d F2230000 		.4byte	.LASF265
 4501 0e81 08       		.byte	0x8
 4502 0e82 12       		.byte	0x12
 4503 0e83 73       		.byte	0x73
 4504 0e84 A10E0000 		.4byte	0xea1
 4505 0e88 0B       		.uleb128 0xb
 4506 0e89 571E0000 		.4byte	.LASF266
 4507 0e8d 12       		.byte	0x12
 4508 0e8e 74       		.byte	0x74
 4509 0e8f A10E0000 		.4byte	0xea1
 4510 0e93 00       		.byte	0
 4511 0e94 0B       		.uleb128 0xb
 4512 0e95 02060000 		.4byte	.LASF267
 4513 0e99 12       		.byte	0x12
 4514 0e9a 75       		.byte	0x75
 4515 0e9b 94000000 		.4byte	0x94
 4516 0e9f 04       		.byte	0x4
 4517 0ea0 00       		.byte	0
 4518 0ea1 10       		.uleb128 0x10
 4519 0ea2 04       		.byte	0x4
 4520 0ea3 3E000000 		.4byte	0x3e
 4521 0ea7 1A       		.uleb128 0x1a
 4522 0ea8 2E100000 		.4byte	.LASF268
 4523 0eac 68       		.byte	0x68
 4524 0ead 12       		.byte	0x12
 4525 0eae B3       		.byte	0xb3
 4526 0eaf D10F0000 		.4byte	0xfd1
 4527 0eb3 0A       		.uleb128 0xa
 4528 0eb4 5F7000   		.ascii	"_p\000"
 4529 0eb7 12       		.byte	0x12
 4530 0eb8 B4       		.byte	0xb4
 4531 0eb9 A10E0000 		.4byte	0xea1
 4532 0ebd 00       		.byte	0
 4533 0ebe 0A       		.uleb128 0xa
 4534 0ebf 5F7200   		.ascii	"_r\000"
 4535 0ec2 12       		.byte	0x12
 4536 0ec3 B5       		.byte	0xb5
 4537 0ec4 94000000 		.4byte	0x94
 4538 0ec8 04       		.byte	0x4
 4539 0ec9 0A       		.uleb128 0xa
 4540 0eca 5F7700   		.ascii	"_w\000"
ARM GAS  C:\Users\seeho\AppData\Local\Temp\ccUkk7Dc.s 			page 133


 4541 0ecd 12       		.byte	0x12
 4542 0ece B6       		.byte	0xb6
 4543 0ecf 94000000 		.4byte	0x94
 4544 0ed3 08       		.byte	0x8
 4545 0ed4 0B       		.uleb128 0xb
 4546 0ed5 C6180000 		.4byte	.LASF269
 4547 0ed9 12       		.byte	0x12
 4548 0eda B7       		.byte	0xb7
 4549 0edb 25000000 		.4byte	0x25
 4550 0edf 0C       		.byte	0xc
 4551 0ee0 0B       		.uleb128 0xb
 4552 0ee1 EB040000 		.4byte	.LASF270
 4553 0ee5 12       		.byte	0x12
 4554 0ee6 B8       		.byte	0xb8
 4555 0ee7 25000000 		.4byte	0x25
 4556 0eeb 0E       		.byte	0xe
 4557 0eec 0A       		.uleb128 0xa
 4558 0eed 5F626600 		.ascii	"_bf\000"
 4559 0ef1 12       		.byte	0x12
 4560 0ef2 B9       		.byte	0xb9
 4561 0ef3 7C0E0000 		.4byte	0xe7c
 4562 0ef7 10       		.byte	0x10
 4563 0ef8 0B       		.uleb128 0xb
 4564 0ef9 AD230000 		.4byte	.LASF271
 4565 0efd 12       		.byte	0x12
 4566 0efe BA       		.byte	0xba
 4567 0eff 94000000 		.4byte	0x94
 4568 0f03 18       		.byte	0x18
 4569 0f04 0B       		.uleb128 0xb
 4570 0f05 020E0000 		.4byte	.LASF272
 4571 0f09 12       		.byte	0x12
 4572 0f0a C1       		.byte	0xc1
 4573 0f0b 8F080000 		.4byte	0x88f
 4574 0f0f 1C       		.byte	0x1c
 4575 0f10 0B       		.uleb128 0xb
 4576 0f11 B0000000 		.4byte	.LASF273
 4577 0f15 12       		.byte	0x12
 4578 0f16 C3       		.byte	0xc3
 4579 0f17 27110000 		.4byte	0x1127
 4580 0f1b 20       		.byte	0x20
 4581 0f1c 0B       		.uleb128 0xb
 4582 0f1d FF000000 		.4byte	.LASF274
 4583 0f21 12       		.byte	0x12
 4584 0f22 C5       		.byte	0xc5
 4585 0f23 56110000 		.4byte	0x1156
 4586 0f27 24       		.byte	0x24
 4587 0f28 0B       		.uleb128 0xb
 4588 0f29 211B0000 		.4byte	.LASF275
 4589 0f2d 12       		.byte	0x12
 4590 0f2e C8       		.byte	0xc8
 4591 0f2f 7A110000 		.4byte	0x117a
 4592 0f33 28       		.byte	0x28
 4593 0f34 0B       		.uleb128 0xb
 4594 0f35 E50A0000 		.4byte	.LASF276
 4595 0f39 12       		.byte	0x12
 4596 0f3a C9       		.byte	0xc9
 4597 0f3b 94110000 		.4byte	0x1194
ARM GAS  C:\Users\seeho\AppData\Local\Temp\ccUkk7Dc.s 			page 134


 4598 0f3f 2C       		.byte	0x2c
 4599 0f40 0A       		.uleb128 0xa
 4600 0f41 5F756200 		.ascii	"_ub\000"
 4601 0f45 12       		.byte	0x12
 4602 0f46 CC       		.byte	0xcc
 4603 0f47 7C0E0000 		.4byte	0xe7c
 4604 0f4b 30       		.byte	0x30
 4605 0f4c 0A       		.uleb128 0xa
 4606 0f4d 5F757000 		.ascii	"_up\000"
 4607 0f51 12       		.byte	0x12
 4608 0f52 CD       		.byte	0xcd
 4609 0f53 A10E0000 		.4byte	0xea1
 4610 0f57 38       		.byte	0x38
 4611 0f58 0A       		.uleb128 0xa
 4612 0f59 5F757200 		.ascii	"_ur\000"
 4613 0f5d 12       		.byte	0x12
 4614 0f5e CE       		.byte	0xce
 4615 0f5f 94000000 		.4byte	0x94
 4616 0f63 3C       		.byte	0x3c
 4617 0f64 0B       		.uleb128 0xb
 4618 0f65 60180000 		.4byte	.LASF277
 4619 0f69 12       		.byte	0x12
 4620 0f6a D1       		.byte	0xd1
 4621 0f6b 9A110000 		.4byte	0x119a
 4622 0f6f 40       		.byte	0x40
 4623 0f70 0B       		.uleb128 0xb
 4624 0f71 38020000 		.4byte	.LASF278
 4625 0f75 12       		.byte	0x12
 4626 0f76 D2       		.byte	0xd2
 4627 0f77 AA110000 		.4byte	0x11aa
 4628 0f7b 43       		.byte	0x43
 4629 0f7c 0A       		.uleb128 0xa
 4630 0f7d 5F6C6200 		.ascii	"_lb\000"
 4631 0f81 12       		.byte	0x12
 4632 0f82 D5       		.byte	0xd5
 4633 0f83 7C0E0000 		.4byte	0xe7c
 4634 0f87 44       		.byte	0x44
 4635 0f88 0B       		.uleb128 0xb
 4636 0f89 1B1E0000 		.4byte	.LASF279
 4637 0f8d 12       		.byte	0x12
 4638 0f8e D8       		.byte	0xd8
 4639 0f8f 94000000 		.4byte	0x94
 4640 0f93 4C       		.byte	0x4c
 4641 0f94 0B       		.uleb128 0xb
 4642 0f95 CB0E0000 		.4byte	.LASF280
 4643 0f99 12       		.byte	0x12
 4644 0f9a D9       		.byte	0xd9
 4645 0f9b 5D0C0000 		.4byte	0xc5d
 4646 0f9f 50       		.byte	0x50
 4647 0fa0 0B       		.uleb128 0xb
 4648 0fa1 11200000 		.4byte	.LASF281
 4649 0fa5 12       		.byte	0x12
 4650 0fa6 DC       		.byte	0xdc
 4651 0fa7 EF0F0000 		.4byte	0xfef
 4652 0fab 54       		.byte	0x54
 4653 0fac 0B       		.uleb128 0xb
 4654 0fad CC020000 		.4byte	.LASF282
ARM GAS  C:\Users\seeho\AppData\Local\Temp\ccUkk7Dc.s 			page 135


 4655 0fb1 12       		.byte	0x12
 4656 0fb2 E0       		.byte	0xe0
 4657 0fb3 DA0C0000 		.4byte	0xcda
 4658 0fb7 58       		.byte	0x58
 4659 0fb8 0B       		.uleb128 0xb
 4660 0fb9 A4180000 		.4byte	.LASF283
 4661 0fbd 12       		.byte	0x12
 4662 0fbe E2       		.byte	0xe2
 4663 0fbf CF0C0000 		.4byte	0xccf
 4664 0fc3 5C       		.byte	0x5c
 4665 0fc4 0B       		.uleb128 0xb
 4666 0fc5 41100000 		.4byte	.LASF284
 4667 0fc9 12       		.byte	0x12
 4668 0fca E3       		.byte	0xe3
 4669 0fcb 94000000 		.4byte	0x94
 4670 0fcf 64       		.byte	0x64
 4671 0fd0 00       		.byte	0
 4672 0fd1 17       		.uleb128 0x17
 4673 0fd2 94000000 		.4byte	0x94
 4674 0fd6 EF0F0000 		.4byte	0xfef
 4675 0fda 16       		.uleb128 0x16
 4676 0fdb EF0F0000 		.4byte	0xfef
 4677 0fdf 16       		.uleb128 0x16
 4678 0fe0 8F080000 		.4byte	0x88f
 4679 0fe4 16       		.uleb128 0x16
 4680 0fe5 E50C0000 		.4byte	0xce5
 4681 0fe9 16       		.uleb128 0x16
 4682 0fea 94000000 		.4byte	0x94
 4683 0fee 00       		.byte	0
 4684 0fef 10       		.uleb128 0x10
 4685 0ff0 04       		.byte	0x4
 4686 0ff1 F50F0000 		.4byte	0xff5
 4687 0ff5 1E       		.uleb128 0x1e
 4688 0ff6 82030000 		.4byte	.LASF285
 4689 0ffa 2804     		.2byte	0x428
 4690 0ffc 12       		.byte	0x12
 4691 0ffd 3802     		.2byte	0x238
 4692 0fff 27110000 		.4byte	0x1127
 4693 1003 19       		.uleb128 0x19
 4694 1004 53110000 		.4byte	.LASF286
 4695 1008 12       		.byte	0x12
 4696 1009 3A02     		.2byte	0x23a
 4697 100b 94000000 		.4byte	0x94
 4698 100f 00       		.byte	0
 4699 1010 19       		.uleb128 0x19
 4700 1011 D70B0000 		.4byte	.LASF287
 4701 1015 12       		.byte	0x12
 4702 1016 3F02     		.2byte	0x23f
 4703 1018 01120000 		.4byte	0x1201
 4704 101c 04       		.byte	0x4
 4705 101d 19       		.uleb128 0x19
 4706 101e D01D0000 		.4byte	.LASF288
 4707 1022 12       		.byte	0x12
 4708 1023 3F02     		.2byte	0x23f
 4709 1025 01120000 		.4byte	0x1201
 4710 1029 08       		.byte	0x8
 4711 102a 19       		.uleb128 0x19
ARM GAS  C:\Users\seeho\AppData\Local\Temp\ccUkk7Dc.s 			page 136


 4712 102b CC260000 		.4byte	.LASF289
 4713 102f 12       		.byte	0x12
 4714 1030 3F02     		.2byte	0x23f
 4715 1032 01120000 		.4byte	0x1201
 4716 1036 0C       		.byte	0xc
 4717 1037 19       		.uleb128 0x19
 4718 1038 B6230000 		.4byte	.LASF290
 4719 103c 12       		.byte	0x12
 4720 103d 4102     		.2byte	0x241
 4721 103f 94000000 		.4byte	0x94
 4722 1043 10       		.byte	0x10
 4723 1044 19       		.uleb128 0x19
 4724 1045 85130000 		.4byte	.LASF291
 4725 1049 12       		.byte	0x12
 4726 104a 4202     		.2byte	0x242
 4727 104c E3130000 		.4byte	0x13e3
 4728 1050 14       		.byte	0x14
 4729 1051 19       		.uleb128 0x19
 4730 1052 76070000 		.4byte	.LASF292
 4731 1056 12       		.byte	0x12
 4732 1057 4402     		.2byte	0x244
 4733 1059 94000000 		.4byte	0x94
 4734 105d 30       		.byte	0x30
 4735 105e 19       		.uleb128 0x19
 4736 105f 57150000 		.4byte	.LASF293
 4737 1063 12       		.byte	0x12
 4738 1064 4502     		.2byte	0x245
 4739 1066 4B110000 		.4byte	0x114b
 4740 106a 34       		.byte	0x34
 4741 106b 19       		.uleb128 0x19
 4742 106c 36100000 		.4byte	.LASF294
 4743 1070 12       		.byte	0x12
 4744 1071 4702     		.2byte	0x247
 4745 1073 94000000 		.4byte	0x94
 4746 1077 38       		.byte	0x38
 4747 1078 19       		.uleb128 0x19
 4748 1079 EA000000 		.4byte	.LASF295
 4749 107d 12       		.byte	0x12
 4750 107e 4902     		.2byte	0x249
 4751 1080 FE130000 		.4byte	0x13fe
 4752 1084 3C       		.byte	0x3c
 4753 1085 19       		.uleb128 0x19
 4754 1086 BE240000 		.4byte	.LASF296
 4755 108a 12       		.byte	0x12
 4756 108b 4C02     		.2byte	0x24c
 4757 108d 490D0000 		.4byte	0xd49
 4758 1091 40       		.byte	0x40
 4759 1092 19       		.uleb128 0x19
 4760 1093 37230000 		.4byte	.LASF297
 4761 1097 12       		.byte	0x12
 4762 1098 4D02     		.2byte	0x24d
 4763 109a 94000000 		.4byte	0x94
 4764 109e 44       		.byte	0x44
 4765 109f 19       		.uleb128 0x19
 4766 10a0 DE0F0000 		.4byte	.LASF298
 4767 10a4 12       		.byte	0x12
 4768 10a5 4E02     		.2byte	0x24e
ARM GAS  C:\Users\seeho\AppData\Local\Temp\ccUkk7Dc.s 			page 137


 4769 10a7 490D0000 		.4byte	0xd49
 4770 10ab 48       		.byte	0x48
 4771 10ac 19       		.uleb128 0x19
 4772 10ad 6F150000 		.4byte	.LASF299
 4773 10b1 12       		.byte	0x12
 4774 10b2 4F02     		.2byte	0x24f
 4775 10b4 04140000 		.4byte	0x1404
 4776 10b8 4C       		.byte	0x4c
 4777 10b9 19       		.uleb128 0x19
 4778 10ba 6E010000 		.4byte	.LASF300
 4779 10be 12       		.byte	0x12
 4780 10bf 5202     		.2byte	0x252
 4781 10c1 94000000 		.4byte	0x94
 4782 10c5 50       		.byte	0x50
 4783 10c6 19       		.uleb128 0x19
 4784 10c7 D30E0000 		.4byte	.LASF301
 4785 10cb 12       		.byte	0x12
 4786 10cc 5302     		.2byte	0x253
 4787 10ce E50C0000 		.4byte	0xce5
 4788 10d2 54       		.byte	0x54
 4789 10d3 19       		.uleb128 0x19
 4790 10d4 39180000 		.4byte	.LASF302
 4791 10d8 12       		.byte	0x12
 4792 10d9 7602     		.2byte	0x276
 4793 10db C1130000 		.4byte	0x13c1
 4794 10df 58       		.byte	0x58
 4795 10e0 1F       		.uleb128 0x1f
 4796 10e1 1E190000 		.4byte	.LASF262
 4797 10e5 12       		.byte	0x12
 4798 10e6 7A02     		.2byte	0x27a
 4799 10e8 660E0000 		.4byte	0xe66
 4800 10ec 4801     		.2byte	0x148
 4801 10ee 1F       		.uleb128 0x1f
 4802 10ef EF120000 		.4byte	.LASF303
 4803 10f3 12       		.byte	0x12
 4804 10f4 7B02     		.2byte	0x27b
 4805 10f6 280E0000 		.4byte	0xe28
 4806 10fa 4C01     		.2byte	0x14c
 4807 10fc 1F       		.uleb128 0x1f
 4808 10fd CD180000 		.4byte	.LASF304
 4809 1101 12       		.byte	0x12
 4810 1102 7F02     		.2byte	0x27f
 4811 1104 15140000 		.4byte	0x1415
 4812 1108 DC02     		.2byte	0x2dc
 4813 110a 1F       		.uleb128 0x1f
 4814 110b 72140000 		.4byte	.LASF305
 4815 110f 12       		.byte	0x12
 4816 1110 8402     		.2byte	0x284
 4817 1112 C6110000 		.4byte	0x11c6
 4818 1116 E002     		.2byte	0x2e0
 4819 1118 1F       		.uleb128 0x1f
 4820 1119 90000000 		.4byte	.LASF306
 4821 111d 12       		.byte	0x12
 4822 111e 8502     		.2byte	0x285
 4823 1120 21140000 		.4byte	0x1421
 4824 1124 EC02     		.2byte	0x2ec
 4825 1126 00       		.byte	0
ARM GAS  C:\Users\seeho\AppData\Local\Temp\ccUkk7Dc.s 			page 138


 4826 1127 10       		.uleb128 0x10
 4827 1128 04       		.byte	0x4
 4828 1129 D10F0000 		.4byte	0xfd1
 4829 112d 17       		.uleb128 0x17
 4830 112e 94000000 		.4byte	0x94
 4831 1132 4B110000 		.4byte	0x114b
 4832 1136 16       		.uleb128 0x16
 4833 1137 EF0F0000 		.4byte	0xfef
 4834 113b 16       		.uleb128 0x16
 4835 113c 8F080000 		.4byte	0x88f
 4836 1140 16       		.uleb128 0x16
 4837 1141 4B110000 		.4byte	0x114b
 4838 1145 16       		.uleb128 0x16
 4839 1146 94000000 		.4byte	0x94
 4840 114a 00       		.byte	0
 4841 114b 10       		.uleb128 0x10
 4842 114c 04       		.byte	0x4
 4843 114d 51110000 		.4byte	0x1151
 4844 1151 06       		.uleb128 0x6
 4845 1152 6E080000 		.4byte	0x86e
 4846 1156 10       		.uleb128 0x10
 4847 1157 04       		.byte	0x4
 4848 1158 2D110000 		.4byte	0x112d
 4849 115c 17       		.uleb128 0x17
 4850 115d 680C0000 		.4byte	0xc68
 4851 1161 7A110000 		.4byte	0x117a
 4852 1165 16       		.uleb128 0x16
 4853 1166 EF0F0000 		.4byte	0xfef
 4854 116a 16       		.uleb128 0x16
 4855 116b 8F080000 		.4byte	0x88f
 4856 116f 16       		.uleb128 0x16
 4857 1170 680C0000 		.4byte	0xc68
 4858 1174 16       		.uleb128 0x16
 4859 1175 94000000 		.4byte	0x94
 4860 1179 00       		.byte	0
 4861 117a 10       		.uleb128 0x10
 4862 117b 04       		.byte	0x4
 4863 117c 5C110000 		.4byte	0x115c
 4864 1180 17       		.uleb128 0x17
 4865 1181 94000000 		.4byte	0x94
 4866 1185 94110000 		.4byte	0x1194
 4867 1189 16       		.uleb128 0x16
 4868 118a EF0F0000 		.4byte	0xfef
 4869 118e 16       		.uleb128 0x16
 4870 118f 8F080000 		.4byte	0x88f
 4871 1193 00       		.byte	0
 4872 1194 10       		.uleb128 0x10
 4873 1195 04       		.byte	0x4
 4874 1196 80110000 		.4byte	0x1180
 4875 119a 07       		.uleb128 0x7
 4876 119b 3E000000 		.4byte	0x3e
 4877 119f AA110000 		.4byte	0x11aa
 4878 11a3 08       		.uleb128 0x8
 4879 11a4 D9000000 		.4byte	0xd9
 4880 11a8 02       		.byte	0x2
 4881 11a9 00       		.byte	0
 4882 11aa 07       		.uleb128 0x7
ARM GAS  C:\Users\seeho\AppData\Local\Temp\ccUkk7Dc.s 			page 139


 4883 11ab 3E000000 		.4byte	0x3e
 4884 11af BA110000 		.4byte	0x11ba
 4885 11b3 08       		.uleb128 0x8
 4886 11b4 D9000000 		.4byte	0xd9
 4887 11b8 00       		.byte	0
 4888 11b9 00       		.byte	0
 4889 11ba 0F       		.uleb128 0xf
 4890 11bb 371F0000 		.4byte	.LASF307
 4891 11bf 12       		.byte	0x12
 4892 11c0 1D01     		.2byte	0x11d
 4893 11c2 A70E0000 		.4byte	0xea7
 4894 11c6 18       		.uleb128 0x18
 4895 11c7 9D150000 		.4byte	.LASF308
 4896 11cb 0C       		.byte	0xc
 4897 11cc 12       		.byte	0x12
 4898 11cd 2101     		.2byte	0x121
 4899 11cf FB110000 		.4byte	0x11fb
 4900 11d3 19       		.uleb128 0x19
 4901 11d4 0B200000 		.4byte	.LASF243
 4902 11d8 12       		.byte	0x12
 4903 11d9 2301     		.2byte	0x123
 4904 11db FB110000 		.4byte	0x11fb
 4905 11df 00       		.byte	0
 4906 11e0 19       		.uleb128 0x19
 4907 11e1 5B140000 		.4byte	.LASF309
 4908 11e5 12       		.byte	0x12
 4909 11e6 2401     		.2byte	0x124
 4910 11e8 94000000 		.4byte	0x94
 4911 11ec 04       		.byte	0x4
 4912 11ed 19       		.uleb128 0x19
 4913 11ee 97150000 		.4byte	.LASF310
 4914 11f2 12       		.byte	0x12
 4915 11f3 2501     		.2byte	0x125
 4916 11f5 01120000 		.4byte	0x1201
 4917 11f9 08       		.byte	0x8
 4918 11fa 00       		.byte	0
 4919 11fb 10       		.uleb128 0x10
 4920 11fc 04       		.byte	0x4
 4921 11fd C6110000 		.4byte	0x11c6
 4922 1201 10       		.uleb128 0x10
 4923 1202 04       		.byte	0x4
 4924 1203 BA110000 		.4byte	0x11ba
 4925 1207 18       		.uleb128 0x18
 4926 1208 9A1D0000 		.4byte	.LASF311
 4927 120c 0E       		.byte	0xe
 4928 120d 12       		.byte	0x12
 4929 120e 3D01     		.2byte	0x13d
 4930 1210 3C120000 		.4byte	0x123c
 4931 1214 19       		.uleb128 0x19
 4932 1215 1B1B0000 		.4byte	.LASF312
 4933 1219 12       		.byte	0x12
 4934 121a 3E01     		.2byte	0x13e
 4935 121c 3C120000 		.4byte	0x123c
 4936 1220 00       		.byte	0
 4937 1221 19       		.uleb128 0x19
 4938 1222 7C030000 		.4byte	.LASF313
 4939 1226 12       		.byte	0x12
ARM GAS  C:\Users\seeho\AppData\Local\Temp\ccUkk7Dc.s 			page 140


 4940 1227 3F01     		.2byte	0x13f
 4941 1229 3C120000 		.4byte	0x123c
 4942 122d 06       		.byte	0x6
 4943 122e 19       		.uleb128 0x19
 4944 122f 0B250000 		.4byte	.LASF314
 4945 1233 12       		.byte	0x12
 4946 1234 4001     		.2byte	0x140
 4947 1236 5B000000 		.4byte	0x5b
 4948 123a 0C       		.byte	0xc
 4949 123b 00       		.byte	0
 4950 123c 07       		.uleb128 0x7
 4951 123d 5B000000 		.4byte	0x5b
 4952 1241 4C120000 		.4byte	0x124c
 4953 1245 08       		.uleb128 0x8
 4954 1246 D9000000 		.4byte	0xd9
 4955 124a 02       		.byte	0x2
 4956 124b 00       		.byte	0
 4957 124c 20       		.uleb128 0x20
 4958 124d D0       		.byte	0xd0
 4959 124e 12       		.byte	0x12
 4960 124f 5702     		.2byte	0x257
 4961 1251 4D130000 		.4byte	0x134d
 4962 1255 19       		.uleb128 0x19
 4963 1256 B8070000 		.4byte	.LASF315
 4964 125a 12       		.byte	0x12
 4965 125b 5902     		.2byte	0x259
 4966 125d 9B000000 		.4byte	0x9b
 4967 1261 00       		.byte	0
 4968 1262 19       		.uleb128 0x19
 4969 1263 911E0000 		.4byte	.LASF316
 4970 1267 12       		.byte	0x12
 4971 1268 5A02     		.2byte	0x25a
 4972 126a E50C0000 		.4byte	0xce5
 4973 126e 04       		.byte	0x4
 4974 126f 19       		.uleb128 0x19
 4975 1270 61010000 		.4byte	.LASF317
 4976 1274 12       		.byte	0x12
 4977 1275 5B02     		.2byte	0x25b
 4978 1277 4D130000 		.4byte	0x134d
 4979 127b 08       		.byte	0x8
 4980 127c 19       		.uleb128 0x19
 4981 127d 23060000 		.4byte	.LASF318
 4982 1281 12       		.byte	0x12
 4983 1282 5C02     		.2byte	0x25c
 4984 1284 5F0D0000 		.4byte	0xd5f
 4985 1288 24       		.byte	0x24
 4986 1289 19       		.uleb128 0x19
 4987 128a D5140000 		.4byte	.LASF319
 4988 128e 12       		.byte	0x12
 4989 128f 5D02     		.2byte	0x25d
 4990 1291 94000000 		.4byte	0x94
 4991 1295 48       		.byte	0x48
 4992 1296 19       		.uleb128 0x19
 4993 1297 AD0A0000 		.4byte	.LASF320
 4994 129b 12       		.byte	0x12
 4995 129c 5E02     		.2byte	0x25e
 4996 129e 8D000000 		.4byte	0x8d
ARM GAS  C:\Users\seeho\AppData\Local\Temp\ccUkk7Dc.s 			page 141


 4997 12a2 50       		.byte	0x50
 4998 12a3 19       		.uleb128 0x19
 4999 12a4 981F0000 		.4byte	.LASF321
 5000 12a8 12       		.byte	0x12
 5001 12a9 5F02     		.2byte	0x25f
 5002 12ab 07120000 		.4byte	0x1207
 5003 12af 58       		.byte	0x58
 5004 12b0 19       		.uleb128 0x19
 5005 12b1 EB210000 		.4byte	.LASF322
 5006 12b5 12       		.byte	0x12
 5007 12b6 6002     		.2byte	0x260
 5008 12b8 CF0C0000 		.4byte	0xccf
 5009 12bc 68       		.byte	0x68
 5010 12bd 19       		.uleb128 0x19
 5011 12be 90130000 		.4byte	.LASF323
 5012 12c2 12       		.byte	0x12
 5013 12c3 6102     		.2byte	0x261
 5014 12c5 CF0C0000 		.4byte	0xccf
 5015 12c9 70       		.byte	0x70
 5016 12ca 19       		.uleb128 0x19
 5017 12cb 8A180000 		.4byte	.LASF324
 5018 12cf 12       		.byte	0x12
 5019 12d0 6202     		.2byte	0x262
 5020 12d2 CF0C0000 		.4byte	0xccf
 5021 12d6 78       		.byte	0x78
 5022 12d7 19       		.uleb128 0x19
 5023 12d8 52020000 		.4byte	.LASF325
 5024 12dc 12       		.byte	0x12
 5025 12dd 6302     		.2byte	0x263
 5026 12df 5D130000 		.4byte	0x135d
 5027 12e3 80       		.byte	0x80
 5028 12e4 19       		.uleb128 0x19
 5029 12e5 A1110000 		.4byte	.LASF326
 5030 12e9 12       		.byte	0x12
 5031 12ea 6402     		.2byte	0x264
 5032 12ec 6D130000 		.4byte	0x136d
 5033 12f0 88       		.byte	0x88
 5034 12f1 19       		.uleb128 0x19
 5035 12f2 6F030000 		.4byte	.LASF327
 5036 12f6 12       		.byte	0x12
 5037 12f7 6502     		.2byte	0x265
 5038 12f9 94000000 		.4byte	0x94
 5039 12fd A0       		.byte	0xa0
 5040 12fe 19       		.uleb128 0x19
 5041 12ff 6B050000 		.4byte	.LASF328
 5042 1303 12       		.byte	0x12
 5043 1304 6602     		.2byte	0x266
 5044 1306 CF0C0000 		.4byte	0xccf
 5045 130a A4       		.byte	0xa4
 5046 130b 19       		.uleb128 0x19
 5047 130c C71E0000 		.4byte	.LASF329
 5048 1310 12       		.byte	0x12
 5049 1311 6702     		.2byte	0x267
 5050 1313 CF0C0000 		.4byte	0xccf
 5051 1317 AC       		.byte	0xac
 5052 1318 19       		.uleb128 0x19
 5053 1319 4A260000 		.4byte	.LASF330
ARM GAS  C:\Users\seeho\AppData\Local\Temp\ccUkk7Dc.s 			page 142


 5054 131d 12       		.byte	0x12
 5055 131e 6802     		.2byte	0x268
 5056 1320 CF0C0000 		.4byte	0xccf
 5057 1324 B4       		.byte	0xb4
 5058 1325 19       		.uleb128 0x19
 5059 1326 C8170000 		.4byte	.LASF331
 5060 132a 12       		.byte	0x12
 5061 132b 6902     		.2byte	0x269
 5062 132d CF0C0000 		.4byte	0xccf
 5063 1331 BC       		.byte	0xbc
 5064 1332 19       		.uleb128 0x19
 5065 1333 50010000 		.4byte	.LASF332
 5066 1337 12       		.byte	0x12
 5067 1338 6A02     		.2byte	0x26a
 5068 133a CF0C0000 		.4byte	0xccf
 5069 133e C4       		.byte	0xc4
 5070 133f 19       		.uleb128 0x19
 5071 1340 49170000 		.4byte	.LASF333
 5072 1344 12       		.byte	0x12
 5073 1345 6B02     		.2byte	0x26b
 5074 1347 94000000 		.4byte	0x94
 5075 134b CC       		.byte	0xcc
 5076 134c 00       		.byte	0
 5077 134d 07       		.uleb128 0x7
 5078 134e 6E080000 		.4byte	0x86e
 5079 1352 5D130000 		.4byte	0x135d
 5080 1356 08       		.uleb128 0x8
 5081 1357 D9000000 		.4byte	0xd9
 5082 135b 19       		.byte	0x19
 5083 135c 00       		.byte	0
 5084 135d 07       		.uleb128 0x7
 5085 135e 6E080000 		.4byte	0x86e
 5086 1362 6D130000 		.4byte	0x136d
 5087 1366 08       		.uleb128 0x8
 5088 1367 D9000000 		.4byte	0xd9
 5089 136b 07       		.byte	0x7
 5090 136c 00       		.byte	0
 5091 136d 07       		.uleb128 0x7
 5092 136e 6E080000 		.4byte	0x86e
 5093 1372 7D130000 		.4byte	0x137d
 5094 1376 08       		.uleb128 0x8
 5095 1377 D9000000 		.4byte	0xd9
 5096 137b 17       		.byte	0x17
 5097 137c 00       		.byte	0
 5098 137d 20       		.uleb128 0x20
 5099 137e F0       		.byte	0xf0
 5100 137f 12       		.byte	0x12
 5101 1380 7002     		.2byte	0x270
 5102 1382 A1130000 		.4byte	0x13a1
 5103 1386 19       		.uleb128 0x19
 5104 1387 09240000 		.4byte	.LASF334
 5105 138b 12       		.byte	0x12
 5106 138c 7302     		.2byte	0x273
 5107 138e A1130000 		.4byte	0x13a1
 5108 1392 00       		.byte	0
 5109 1393 19       		.uleb128 0x19
 5110 1394 83140000 		.4byte	.LASF335
ARM GAS  C:\Users\seeho\AppData\Local\Temp\ccUkk7Dc.s 			page 143


 5111 1398 12       		.byte	0x12
 5112 1399 7402     		.2byte	0x274
 5113 139b B1130000 		.4byte	0x13b1
 5114 139f 78       		.byte	0x78
 5115 13a0 00       		.byte	0
 5116 13a1 07       		.uleb128 0x7
 5117 13a2 A10E0000 		.4byte	0xea1
 5118 13a6 B1130000 		.4byte	0x13b1
 5119 13aa 08       		.uleb128 0x8
 5120 13ab D9000000 		.4byte	0xd9
 5121 13af 1D       		.byte	0x1d
 5122 13b0 00       		.byte	0
 5123 13b1 07       		.uleb128 0x7
 5124 13b2 9B000000 		.4byte	0x9b
 5125 13b6 C1130000 		.4byte	0x13c1
 5126 13ba 08       		.uleb128 0x8
 5127 13bb D9000000 		.4byte	0xd9
 5128 13bf 1D       		.byte	0x1d
 5129 13c0 00       		.byte	0
 5130 13c1 21       		.uleb128 0x21
 5131 13c2 F0       		.byte	0xf0
 5132 13c3 12       		.byte	0x12
 5133 13c4 5502     		.2byte	0x255
 5134 13c6 E3130000 		.4byte	0x13e3
 5135 13ca 22       		.uleb128 0x22
 5136 13cb 82030000 		.4byte	.LASF285
 5137 13cf 12       		.byte	0x12
 5138 13d0 6C02     		.2byte	0x26c
 5139 13d2 4C120000 		.4byte	0x124c
 5140 13d6 22       		.uleb128 0x22
 5141 13d7 11020000 		.4byte	.LASF336
 5142 13db 12       		.byte	0x12
 5143 13dc 7502     		.2byte	0x275
 5144 13de 7D130000 		.4byte	0x137d
 5145 13e2 00       		.byte	0
 5146 13e3 07       		.uleb128 0x7
 5147 13e4 6E080000 		.4byte	0x86e
 5148 13e8 F3130000 		.4byte	0x13f3
 5149 13ec 08       		.uleb128 0x8
 5150 13ed D9000000 		.4byte	0xd9
 5151 13f1 18       		.byte	0x18
 5152 13f2 00       		.byte	0
 5153 13f3 15       		.uleb128 0x15
 5154 13f4 FE130000 		.4byte	0x13fe
 5155 13f8 16       		.uleb128 0x16
 5156 13f9 EF0F0000 		.4byte	0xfef
 5157 13fd 00       		.byte	0
 5158 13fe 10       		.uleb128 0x10
 5159 13ff 04       		.byte	0x4
 5160 1400 F3130000 		.4byte	0x13f3
 5161 1404 10       		.uleb128 0x10
 5162 1405 04       		.byte	0x4
 5163 1406 490D0000 		.4byte	0xd49
 5164 140a 15       		.uleb128 0x15
 5165 140b 15140000 		.4byte	0x1415
 5166 140f 16       		.uleb128 0x16
 5167 1410 94000000 		.4byte	0x94
ARM GAS  C:\Users\seeho\AppData\Local\Temp\ccUkk7Dc.s 			page 144


 5168 1414 00       		.byte	0
 5169 1415 10       		.uleb128 0x10
 5170 1416 04       		.byte	0x4
 5171 1417 1B140000 		.4byte	0x141b
 5172 141b 10       		.uleb128 0x10
 5173 141c 04       		.byte	0x4
 5174 141d 0A140000 		.4byte	0x140a
 5175 1421 07       		.uleb128 0x7
 5176 1422 BA110000 		.4byte	0x11ba
 5177 1426 31140000 		.4byte	0x1431
 5178 142a 08       		.uleb128 0x8
 5179 142b D9000000 		.4byte	0xd9
 5180 142f 02       		.byte	0x2
 5181 1430 00       		.byte	0
 5182 1431 13       		.uleb128 0x13
 5183 1432 02       		.byte	0x2
 5184 1433 5B000000 		.4byte	0x5b
 5185 1437 13       		.byte	0x13
 5186 1438 4D01     		.2byte	0x14d
 5187 143a 6A170000 		.4byte	0x176a
 5188 143e 14       		.uleb128 0x14
 5189 143f 44190000 		.4byte	.LASF337
 5190 1443 00       		.byte	0
 5191 1444 23       		.uleb128 0x23
 5192 1445 E60B0000 		.4byte	.LASF338
 5193 1449 0010     		.2byte	0x1000
 5194 144b 23       		.uleb128 0x23
 5195 144c 55070000 		.4byte	.LASF339
 5196 1450 0110     		.2byte	0x1001
 5197 1452 23       		.uleb128 0x23
 5198 1453 4E050000 		.4byte	.LASF340
 5199 1457 0210     		.2byte	0x1002
 5200 1459 23       		.uleb128 0x23
 5201 145a 60130000 		.4byte	.LASF341
 5202 145e 0310     		.2byte	0x1003
 5203 1460 23       		.uleb128 0x23
 5204 1461 00000000 		.4byte	.LASF342
 5205 1465 0410     		.2byte	0x1004
 5206 1467 23       		.uleb128 0x23
 5207 1468 5B260000 		.4byte	.LASF343
 5208 146c 0510     		.2byte	0x1005
 5209 146e 23       		.uleb128 0x23
 5210 146f 1E020000 		.4byte	.LASF344
 5211 1473 0020     		.2byte	0x2000
 5212 1475 23       		.uleb128 0x23
 5213 1476 5C020000 		.4byte	.LASF345
 5214 147a 0120     		.2byte	0x2001
 5215 147c 23       		.uleb128 0x23
 5216 147d 84210000 		.4byte	.LASF346
 5217 1481 0220     		.2byte	0x2002
 5218 1483 23       		.uleb128 0x23
 5219 1484 BF210000 		.4byte	.LASF347
 5220 1488 0320     		.2byte	0x2003
 5221 148a 23       		.uleb128 0x23
 5222 148b EB010000 		.4byte	.LASF348
 5223 148f 0420     		.2byte	0x2004
 5224 1491 23       		.uleb128 0x23
ARM GAS  C:\Users\seeho\AppData\Local\Temp\ccUkk7Dc.s 			page 145


 5225 1492 091D0000 		.4byte	.LASF349
 5226 1496 0520     		.2byte	0x2005
 5227 1498 23       		.uleb128 0x23
 5228 1499 C81A0000 		.4byte	.LASF350
 5229 149d 0620     		.2byte	0x2006
 5230 149f 23       		.uleb128 0x23
 5231 14a0 F9270000 		.4byte	.LASF351
 5232 14a4 0720     		.2byte	0x2007
 5233 14a6 23       		.uleb128 0x23
 5234 14a7 B6150000 		.4byte	.LASF352
 5235 14ab 0820     		.2byte	0x2008
 5236 14ad 23       		.uleb128 0x23
 5237 14ae 5E270000 		.4byte	.LASF353
 5238 14b2 0920     		.2byte	0x2009
 5239 14b4 23       		.uleb128 0x23
 5240 14b5 FA1D0000 		.4byte	.LASF354
 5241 14b9 0A20     		.2byte	0x200a
 5242 14bb 23       		.uleb128 0x23
 5243 14bc 80230000 		.4byte	.LASF355
 5244 14c0 0B20     		.2byte	0x200b
 5245 14c2 23       		.uleb128 0x23
 5246 14c3 98100000 		.4byte	.LASF356
 5247 14c7 0C20     		.2byte	0x200c
 5248 14c9 23       		.uleb128 0x23
 5249 14ca D71B0000 		.4byte	.LASF357
 5250 14ce 0D20     		.2byte	0x200d
 5251 14d0 23       		.uleb128 0x23
 5252 14d1 F8060000 		.4byte	.LASF358
 5253 14d5 0E20     		.2byte	0x200e
 5254 14d7 23       		.uleb128 0x23
 5255 14d8 C5270000 		.4byte	.LASF359
 5256 14dc 0F20     		.2byte	0x200f
 5257 14de 23       		.uleb128 0x23
 5258 14df 88070000 		.4byte	.LASF360
 5259 14e3 1020     		.2byte	0x2010
 5260 14e5 23       		.uleb128 0x23
 5261 14e6 CF1C0000 		.4byte	.LASF361
 5262 14ea 1120     		.2byte	0x2011
 5263 14ec 23       		.uleb128 0x23
 5264 14ed 93270000 		.4byte	.LASF362
 5265 14f1 1220     		.2byte	0x2012
 5266 14f3 23       		.uleb128 0x23
 5267 14f4 EC0A0000 		.4byte	.LASF363
 5268 14f8 1320     		.2byte	0x2013
 5269 14fa 23       		.uleb128 0x23
 5270 14fb 9B0D0000 		.4byte	.LASF364
 5271 14ff 1420     		.2byte	0x2014
 5272 1501 23       		.uleb128 0x23
 5273 1502 080B0000 		.4byte	.LASF365
 5274 1506 1520     		.2byte	0x2015
 5275 1508 23       		.uleb128 0x23
 5276 1509 8C140000 		.4byte	.LASF366
 5277 150d 1620     		.2byte	0x2016
 5278 150f 23       		.uleb128 0x23
 5279 1510 9A060000 		.4byte	.LASF367
 5280 1514 1720     		.2byte	0x2017
 5281 1516 23       		.uleb128 0x23
ARM GAS  C:\Users\seeho\AppData\Local\Temp\ccUkk7Dc.s 			page 146


 5282 1517 A0030000 		.4byte	.LASF368
 5283 151b 0030     		.2byte	0x3000
 5284 151d 23       		.uleb128 0x23
 5285 151e 0C010000 		.4byte	.LASF369
 5286 1522 0130     		.2byte	0x3001
 5287 1524 23       		.uleb128 0x23
 5288 1525 6C000000 		.4byte	.LASF370
 5289 1529 0230     		.2byte	0x3002
 5290 152b 23       		.uleb128 0x23
 5291 152c 64220000 		.4byte	.LASF371
 5292 1530 0330     		.2byte	0x3003
 5293 1532 23       		.uleb128 0x23
 5294 1533 700F0000 		.4byte	.LASF372
 5295 1537 0430     		.2byte	0x3004
 5296 1539 23       		.uleb128 0x23
 5297 153a 45220000 		.4byte	.LASF373
 5298 153e 0530     		.2byte	0x3005
 5299 1540 23       		.uleb128 0x23
 5300 1541 1C270000 		.4byte	.LASF374
 5301 1545 0630     		.2byte	0x3006
 5302 1547 23       		.uleb128 0x23
 5303 1548 80010000 		.4byte	.LASF375
 5304 154c 0730     		.2byte	0x3007
 5305 154e 23       		.uleb128 0x23
 5306 154f 46280000 		.4byte	.LASF376
 5307 1553 0830     		.2byte	0x3008
 5308 1555 23       		.uleb128 0x23
 5309 1556 6B120000 		.4byte	.LASF377
 5310 155a 0930     		.2byte	0x3009
 5311 155c 23       		.uleb128 0x23
 5312 155d 95240000 		.4byte	.LASF378
 5313 1561 0A30     		.2byte	0x300a
 5314 1563 23       		.uleb128 0x23
 5315 1564 321D0000 		.4byte	.LASF379
 5316 1568 0B30     		.2byte	0x300b
 5317 156a 23       		.uleb128 0x23
 5318 156b 240B0000 		.4byte	.LASF380
 5319 156f 0C30     		.2byte	0x300c
 5320 1571 23       		.uleb128 0x23
 5321 1572 FE110000 		.4byte	.LASF381
 5322 1576 1130     		.2byte	0x3011
 5323 1578 23       		.uleb128 0x23
 5324 1579 14220000 		.4byte	.LASF382
 5325 157d 1230     		.2byte	0x3012
 5326 157f 23       		.uleb128 0x23
 5327 1580 D0250000 		.4byte	.LASF383
 5328 1584 1330     		.2byte	0x3013
 5329 1586 23       		.uleb128 0x23
 5330 1587 08230000 		.4byte	.LASF384
 5331 158b 1430     		.2byte	0x3014
 5332 158d 23       		.uleb128 0x23
 5333 158e 33240000 		.4byte	.LASF385
 5334 1592 1530     		.2byte	0x3015
 5335 1594 23       		.uleb128 0x23
 5336 1595 8F1B0000 		.4byte	.LASF386
 5337 1599 1630     		.2byte	0x3016
 5338 159b 23       		.uleb128 0x23
ARM GAS  C:\Users\seeho\AppData\Local\Temp\ccUkk7Dc.s 			page 147


 5339 159c FA190000 		.4byte	.LASF387
 5340 15a0 1730     		.2byte	0x3017
 5341 15a2 23       		.uleb128 0x23
 5342 15a3 5D0D0000 		.4byte	.LASF388
 5343 15a7 1830     		.2byte	0x3018
 5344 15a9 23       		.uleb128 0x23
 5345 15aa B20B0000 		.4byte	.LASF389
 5346 15ae 0040     		.2byte	0x4000
 5347 15b0 23       		.uleb128 0x23
 5348 15b1 06160000 		.4byte	.LASF390
 5349 15b5 0140     		.2byte	0x4001
 5350 15b7 23       		.uleb128 0x23
 5351 15b8 E5090000 		.4byte	.LASF391
 5352 15bc 0240     		.2byte	0x4002
 5353 15be 23       		.uleb128 0x23
 5354 15bf 911C0000 		.4byte	.LASF392
 5355 15c3 0340     		.2byte	0x4003
 5356 15c5 23       		.uleb128 0x23
 5357 15c6 621A0000 		.4byte	.LASF393
 5358 15ca 0440     		.2byte	0x4004
 5359 15cc 23       		.uleb128 0x23
 5360 15cd D0040000 		.4byte	.LASF394
 5361 15d1 0540     		.2byte	0x4005
 5362 15d3 23       		.uleb128 0x23
 5363 15d4 07210000 		.4byte	.LASF395
 5364 15d8 0640     		.2byte	0x4006
 5365 15da 23       		.uleb128 0x23
 5366 15db E8220000 		.4byte	.LASF396
 5367 15df 0740     		.2byte	0x4007
 5368 15e1 23       		.uleb128 0x23
 5369 15e2 9C250000 		.4byte	.LASF397
 5370 15e6 0840     		.2byte	0x4008
 5371 15e8 23       		.uleb128 0x23
 5372 15e9 BF060000 		.4byte	.LASF398
 5373 15ed 0940     		.2byte	0x4009
 5374 15ef 23       		.uleb128 0x23
 5375 15f0 321C0000 		.4byte	.LASF399
 5376 15f4 0A40     		.2byte	0x400a
 5377 15f6 23       		.uleb128 0x23
 5378 15f7 F50F0000 		.4byte	.LASF400
 5379 15fb 0B40     		.2byte	0x400b
 5380 15fd 23       		.uleb128 0x23
 5381 15fe B21B0000 		.4byte	.LASF401
 5382 1602 0C40     		.2byte	0x400c
 5383 1604 23       		.uleb128 0x23
 5384 1605 62250000 		.4byte	.LASF402
 5385 1609 0D40     		.2byte	0x400d
 5386 160b 23       		.uleb128 0x23
 5387 160c 9B170000 		.4byte	.LASF403
 5388 1610 0E40     		.2byte	0x400e
 5389 1612 23       		.uleb128 0x23
 5390 1613 330D0000 		.4byte	.LASF404
 5391 1617 0F40     		.2byte	0x400f
 5392 1619 23       		.uleb128 0x23
 5393 161a E4180000 		.4byte	.LASF405
 5394 161e 1040     		.2byte	0x4010
 5395 1620 23       		.uleb128 0x23
ARM GAS  C:\Users\seeho\AppData\Local\Temp\ccUkk7Dc.s 			page 148


 5396 1621 EB070000 		.4byte	.LASF406
 5397 1625 1140     		.2byte	0x4011
 5398 1627 23       		.uleb128 0x23
 5399 1628 651F0000 		.4byte	.LASF407
 5400 162c 1240     		.2byte	0x4012
 5401 162e 23       		.uleb128 0x23
 5402 162f 69090000 		.4byte	.LASF408
 5403 1633 1340     		.2byte	0x4013
 5404 1635 23       		.uleb128 0x23
 5405 1636 76280000 		.4byte	.LASF409
 5406 163a 1440     		.2byte	0x4014
 5407 163c 23       		.uleb128 0x23
 5408 163d 731D0000 		.4byte	.LASF410
 5409 1641 1540     		.2byte	0x4015
 5410 1643 23       		.uleb128 0x23
 5411 1644 44040000 		.4byte	.LASF411
 5412 1648 1640     		.2byte	0x4016
 5413 164a 23       		.uleb128 0x23
 5414 164b 55100000 		.4byte	.LASF412
 5415 164f 1740     		.2byte	0x4017
 5416 1651 23       		.uleb128 0x23
 5417 1652 E0150000 		.4byte	.LASF413
 5418 1656 1840     		.2byte	0x4018
 5419 1658 23       		.uleb128 0x23
 5420 1659 04260000 		.4byte	.LASF414
 5421 165d 1940     		.2byte	0x4019
 5422 165f 23       		.uleb128 0x23
 5423 1660 411E0000 		.4byte	.LASF415
 5424 1664 1A40     		.2byte	0x401a
 5425 1666 23       		.uleb128 0x23
 5426 1667 570E0000 		.4byte	.LASF416
 5427 166b 0050     		.2byte	0x5000
 5428 166d 23       		.uleb128 0x23
 5429 166e 6E180000 		.4byte	.LASF417
 5430 1672 0150     		.2byte	0x5001
 5431 1674 23       		.uleb128 0x23
 5432 1675 34110000 		.4byte	.LASF418
 5433 1679 0250     		.2byte	0x5002
 5434 167b 23       		.uleb128 0x23
 5435 167c 8E050000 		.4byte	.LASF419
 5436 1680 0350     		.2byte	0x5003
 5437 1682 23       		.uleb128 0x23
 5438 1683 A21D0000 		.4byte	.LASF420
 5439 1687 0450     		.2byte	0x5004
 5440 1689 23       		.uleb128 0x23
 5441 168a 9E020000 		.4byte	.LASF421
 5442 168e 0550     		.2byte	0x5005
 5443 1690 23       		.uleb128 0x23
 5444 1691 2E000000 		.4byte	.LASF422
 5445 1695 0650     		.2byte	0x5006
 5446 1697 23       		.uleb128 0x23
 5447 1698 C6090000 		.4byte	.LASF423
 5448 169c 0750     		.2byte	0x5007
 5449 169e 23       		.uleb128 0x23
 5450 169f 79110000 		.4byte	.LASF424
 5451 16a3 0850     		.2byte	0x5008
 5452 16a5 23       		.uleb128 0x23
ARM GAS  C:\Users\seeho\AppData\Local\Temp\ccUkk7Dc.s 			page 149


 5453 16a6 CF110000 		.4byte	.LASF425
 5454 16aa 0950     		.2byte	0x5009
 5455 16ac 23       		.uleb128 0x23
 5456 16ad 1F200000 		.4byte	.LASF426
 5457 16b1 0A50     		.2byte	0x500a
 5458 16b3 23       		.uleb128 0x23
 5459 16b4 4F030000 		.4byte	.LASF427
 5460 16b8 0B50     		.2byte	0x500b
 5461 16ba 23       		.uleb128 0x23
 5462 16bb 08060000 		.4byte	.LASF428
 5463 16bf 0C50     		.2byte	0x500c
 5464 16c1 23       		.uleb128 0x23
 5465 16c2 AB0C0000 		.4byte	.LASF429
 5466 16c6 0D50     		.2byte	0x500d
 5467 16c8 23       		.uleb128 0x23
 5468 16c9 9B190000 		.4byte	.LASF430
 5469 16cd 0E50     		.2byte	0x500e
 5470 16cf 23       		.uleb128 0x23
 5471 16d0 720E0000 		.4byte	.LASF431
 5472 16d4 0F50     		.2byte	0x500f
 5473 16d6 23       		.uleb128 0x23
 5474 16d7 FB1A0000 		.4byte	.LASF432
 5475 16db 1050     		.2byte	0x5010
 5476 16dd 23       		.uleb128 0x23
 5477 16de EA030000 		.4byte	.LASF433
 5478 16e2 1150     		.2byte	0x5011
 5479 16e4 23       		.uleb128 0x23
 5480 16e5 110D0000 		.4byte	.LASF434
 5481 16e9 1250     		.2byte	0x5012
 5482 16eb 23       		.uleb128 0x23
 5483 16ec 18050000 		.4byte	.LASF435
 5484 16f0 1350     		.2byte	0x5013
 5485 16f2 23       		.uleb128 0x23
 5486 16f3 EC080000 		.4byte	.LASF436
 5487 16f7 1450     		.2byte	0x5014
 5488 16f9 23       		.uleb128 0x23
 5489 16fa C3220000 		.4byte	.LASF437
 5490 16fe 1550     		.2byte	0x5015
 5491 1700 23       		.uleb128 0x23
 5492 1701 BD0A0000 		.4byte	.LASF438
 5493 1705 1650     		.2byte	0x5016
 5494 1707 23       		.uleb128 0x23
 5495 1708 9E200000 		.4byte	.LASF439
 5496 170c 1750     		.2byte	0x5017
 5497 170e 23       		.uleb128 0x23
 5498 170f 74040000 		.4byte	.LASF440
 5499 1713 1850     		.2byte	0x5018
 5500 1715 23       		.uleb128 0x23
 5501 1716 FA0B0000 		.4byte	.LASF441
 5502 171a 0060     		.2byte	0x6000
 5503 171c 23       		.uleb128 0x23
 5504 171d BF1F0000 		.4byte	.LASF442
 5505 1721 0160     		.2byte	0x6001
 5506 1723 23       		.uleb128 0x23
 5507 1724 00110000 		.4byte	.LASF443
 5508 1728 0260     		.2byte	0x6002
 5509 172a 23       		.uleb128 0x23
ARM GAS  C:\Users\seeho\AppData\Local\Temp\ccUkk7Dc.s 			page 150


 5510 172b 220F0000 		.4byte	.LASF444
 5511 172f 0360     		.2byte	0x6003
 5512 1731 23       		.uleb128 0x23
 5513 1732 98040000 		.4byte	.LASF445
 5514 1736 0460     		.2byte	0x6004
 5515 1738 23       		.uleb128 0x23
 5516 1739 D81D0000 		.4byte	.LASF446
 5517 173d 0560     		.2byte	0x6005
 5518 173f 23       		.uleb128 0x23
 5519 1740 FF130000 		.4byte	.LASF447
 5520 1744 0660     		.2byte	0x6006
 5521 1746 23       		.uleb128 0x23
 5522 1747 E4140000 		.4byte	.LASF448
 5523 174b 0760     		.2byte	0x6007
 5524 174d 23       		.uleb128 0x23
 5525 174e C8080000 		.4byte	.LASF449
 5526 1752 0860     		.2byte	0x6008
 5527 1754 23       		.uleb128 0x23
 5528 1755 920E0000 		.4byte	.LASF450
 5529 1759 0960     		.2byte	0x6009
 5530 175b 23       		.uleb128 0x23
 5531 175c 2A030000 		.4byte	.LASF451
 5532 1760 0A60     		.2byte	0x600a
 5533 1762 23       		.uleb128 0x23
 5534 1763 8F020000 		.4byte	.LASF452
 5535 1767 FFFF     		.2byte	0xffff
 5536 1769 00       		.byte	0
 5537 176a 20       		.uleb128 0x20
 5538 176b 08       		.byte	0x8
 5539 176c 14       		.byte	0x14
 5540 176d 5601     		.2byte	0x156
 5541 176f 8E170000 		.4byte	0x178e
 5542 1773 19       		.uleb128 0x19
 5543 1774 F9150000 		.4byte	.LASF453
 5544 1778 14       		.byte	0x14
 5545 1779 5901     		.2byte	0x159
 5546 177b 1B0A0000 		.4byte	0xa1b
 5547 177f 00       		.byte	0
 5548 1780 19       		.uleb128 0x19
 5549 1781 FA1B0000 		.4byte	.LASF454
 5550 1785 14       		.byte	0x14
 5551 1786 5C01     		.2byte	0x15c
 5552 1788 1B0A0000 		.4byte	0xa1b
 5553 178c 04       		.byte	0x4
 5554 178d 00       		.byte	0
 5555 178e 0F       		.uleb128 0xf
 5556 178f DB0E0000 		.4byte	.LASF455
 5557 1793 14       		.byte	0x14
 5558 1794 5D01     		.2byte	0x15d
 5559 1796 6A170000 		.4byte	0x176a
 5560 179a 20       		.uleb128 0x20
 5561 179b 02       		.byte	0x2
 5562 179c 14       		.byte	0x14
 5563 179d 6001     		.2byte	0x160
 5564 179f BE170000 		.4byte	0x17be
 5565 17a3 19       		.uleb128 0x19
 5566 17a4 B7040000 		.4byte	.LASF456
ARM GAS  C:\Users\seeho\AppData\Local\Temp\ccUkk7Dc.s 			page 151


 5567 17a8 14       		.byte	0x14
 5568 17a9 6A01     		.2byte	0x16a
 5569 17ab A2000000 		.4byte	0xa2
 5570 17af 00       		.byte	0
 5571 17b0 19       		.uleb128 0x19
 5572 17b1 AC260000 		.4byte	.LASF457
 5573 17b5 14       		.byte	0x14
 5574 17b6 6E01     		.2byte	0x16e
 5575 17b8 A2000000 		.4byte	0xa2
 5576 17bc 01       		.byte	0x1
 5577 17bd 00       		.byte	0
 5578 17be 0F       		.uleb128 0xf
 5579 17bf EE200000 		.4byte	.LASF458
 5580 17c3 14       		.byte	0x14
 5581 17c4 7001     		.2byte	0x170
 5582 17c6 9A170000 		.4byte	0x179a
 5583 17ca 20       		.uleb128 0x20
 5584 17cb 08       		.byte	0x8
 5585 17cc 14       		.byte	0x14
 5586 17cd 3603     		.2byte	0x336
 5587 17cf EE170000 		.4byte	0x17ee
 5588 17d3 19       		.uleb128 0x19
 5589 17d4 5F240000 		.4byte	.LASF459
 5590 17d8 14       		.byte	0x14
 5591 17d9 3A03     		.2byte	0x33a
 5592 17db A2000000 		.4byte	0xa2
 5593 17df 00       		.byte	0
 5594 17e0 19       		.uleb128 0x19
 5595 17e1 F10E0000 		.4byte	.LASF460
 5596 17e5 14       		.byte	0x14
 5597 17e6 3D03     		.2byte	0x33d
 5598 17e8 8F080000 		.4byte	0x88f
 5599 17ec 04       		.byte	0x4
 5600 17ed 00       		.byte	0
 5601 17ee 0F       		.uleb128 0xf
 5602 17ef 3E180000 		.4byte	.LASF461
 5603 17f3 14       		.byte	0x14
 5604 17f4 3F03     		.2byte	0x33f
 5605 17f6 CA170000 		.4byte	0x17ca
 5606 17fa 0F       		.uleb128 0xf
 5607 17fb 2C080000 		.4byte	.LASF462
 5608 17ff 15       		.byte	0x15
 5609 1800 7F01     		.2byte	0x17f
 5610 1802 B8000000 		.4byte	0xb8
 5611 1806 20       		.uleb128 0x20
 5612 1807 08       		.byte	0x8
 5613 1808 15       		.byte	0x15
 5614 1809 9401     		.2byte	0x194
 5615 180b 37180000 		.4byte	0x1837
 5616 180f 24       		.uleb128 0x24
 5617 1810 76616C00 		.ascii	"val\000"
 5618 1814 15       		.byte	0x15
 5619 1815 9701     		.2byte	0x197
 5620 1817 1B0A0000 		.4byte	0xa1b
 5621 181b 00       		.byte	0
 5622 181c 24       		.uleb128 0x24
 5623 181d 6C656E00 		.ascii	"len\000"
ARM GAS  C:\Users\seeho\AppData\Local\Temp\ccUkk7Dc.s 			page 152


 5624 1821 15       		.byte	0x15
 5625 1822 9A01     		.2byte	0x19a
 5626 1824 B8000000 		.4byte	0xb8
 5627 1828 04       		.byte	0x4
 5628 1829 19       		.uleb128 0x19
 5629 182a 40260000 		.4byte	.LASF463
 5630 182e 15       		.byte	0x15
 5631 182f A101     		.2byte	0x1a1
 5632 1831 B8000000 		.4byte	0xb8
 5633 1835 06       		.byte	0x6
 5634 1836 00       		.byte	0
 5635 1837 0F       		.uleb128 0xf
 5636 1838 54060000 		.4byte	.LASF464
 5637 183c 15       		.byte	0x15
 5638 183d A301     		.2byte	0x1a3
 5639 183f 06180000 		.4byte	0x1806
 5640 1843 20       		.uleb128 0x20
 5641 1844 0C       		.byte	0xc
 5642 1845 15       		.byte	0x15
 5643 1846 A601     		.2byte	0x1a6
 5644 1848 67180000 		.4byte	0x1867
 5645 184c 19       		.uleb128 0x19
 5646 184d 950A0000 		.4byte	.LASF465
 5647 1851 15       		.byte	0x15
 5648 1852 A901     		.2byte	0x1a9
 5649 1854 37180000 		.4byte	0x1837
 5650 1858 00       		.byte	0
 5651 1859 19       		.uleb128 0x19
 5652 185a 40160000 		.4byte	.LASF466
 5653 185e 15       		.byte	0x15
 5654 185f AC01     		.2byte	0x1ac
 5655 1861 FA170000 		.4byte	0x17fa
 5656 1865 08       		.byte	0x8
 5657 1866 00       		.byte	0
 5658 1867 0F       		.uleb128 0xf
 5659 1868 47200000 		.4byte	.LASF467
 5660 186c 15       		.byte	0x15
 5661 186d AE01     		.2byte	0x1ae
 5662 186f 43180000 		.4byte	0x1843
 5663 1873 20       		.uleb128 0x20
 5664 1874 10       		.byte	0x10
 5665 1875 15       		.byte	0x15
 5666 1876 D201     		.2byte	0x1d2
 5667 1878 97180000 		.4byte	0x1897
 5668 187c 19       		.uleb128 0x19
 5669 187d 37220000 		.4byte	.LASF468
 5670 1881 15       		.byte	0x15
 5671 1882 D501     		.2byte	0x1d5
 5672 1884 67180000 		.4byte	0x1867
 5673 1888 00       		.byte	0
 5674 1889 19       		.uleb128 0x19
 5675 188a 3E1F0000 		.4byte	.LASF469
 5676 188e 15       		.byte	0x15
 5677 188f D801     		.2byte	0x1d8
 5678 1891 BE170000 		.4byte	0x17be
 5679 1895 0C       		.byte	0xc
 5680 1896 00       		.byte	0
ARM GAS  C:\Users\seeho\AppData\Local\Temp\ccUkk7Dc.s 			page 153


 5681 1897 0F       		.uleb128 0xf
 5682 1898 04150000 		.4byte	.LASF470
 5683 189c 15       		.byte	0x15
 5684 189d DA01     		.2byte	0x1da
 5685 189f 73180000 		.4byte	0x1873
 5686 18a3 25       		.uleb128 0x25
 5687 18a4 01       		.byte	0x1
 5688 18a5 3E000000 		.4byte	0x3e
 5689 18a9 16       		.byte	0x16
 5690 18aa 69       		.byte	0x69
 5691 18ab C2180000 		.4byte	0x18c2
 5692 18af 14       		.uleb128 0x14
 5693 18b0 DD130000 		.4byte	.LASF471
 5694 18b4 00       		.byte	0
 5695 18b5 14       		.uleb128 0x14
 5696 18b6 210C0000 		.4byte	.LASF472
 5697 18ba 01       		.byte	0x1
 5698 18bb 14       		.uleb128 0x14
 5699 18bc 34040000 		.4byte	.LASF473
 5700 18c0 02       		.byte	0x2
 5701 18c1 00       		.byte	0
 5702 18c2 03       		.uleb128 0x3
 5703 18c3 F8210000 		.4byte	.LASF474
 5704 18c7 16       		.byte	0x16
 5705 18c8 70       		.byte	0x70
 5706 18c9 A3180000 		.4byte	0x18a3
 5707 18cd 25       		.uleb128 0x25
 5708 18ce 01       		.byte	0x1
 5709 18cf 3E000000 		.4byte	0x3e
 5710 18d3 16       		.byte	0x16
 5711 18d4 7E       		.byte	0x7e
 5712 18d5 F2180000 		.4byte	0x18f2
 5713 18d9 14       		.uleb128 0x14
 5714 18da AD180000 		.4byte	.LASF475
 5715 18de 00       		.byte	0
 5716 18df 14       		.uleb128 0x14
 5717 18e0 36070000 		.4byte	.LASF476
 5718 18e4 01       		.byte	0x1
 5719 18e5 14       		.uleb128 0x14
 5720 18e6 CE010000 		.4byte	.LASF477
 5721 18ea 02       		.byte	0x2
 5722 18eb 14       		.uleb128 0x14
 5723 18ec 5D1E0000 		.4byte	.LASF478
 5724 18f0 03       		.byte	0x3
 5725 18f1 00       		.byte	0
 5726 18f2 03       		.uleb128 0x3
 5727 18f3 1C1C0000 		.4byte	.LASF479
 5728 18f7 16       		.byte	0x16
 5729 18f8 83       		.byte	0x83
 5730 18f9 CD180000 		.4byte	0x18cd
 5731 18fd 25       		.uleb128 0x25
 5732 18fe 01       		.byte	0x1
 5733 18ff 3E000000 		.4byte	0x3e
 5734 1903 16       		.byte	0x16
 5735 1904 87       		.byte	0x87
 5736 1905 3A190000 		.4byte	0x193a
 5737 1909 14       		.uleb128 0x14
ARM GAS  C:\Users\seeho\AppData\Local\Temp\ccUkk7Dc.s 			page 154


 5738 190a 52170000 		.4byte	.LASF480
 5739 190e 00       		.byte	0
 5740 190f 14       		.uleb128 0x14
 5741 1910 5D160000 		.4byte	.LASF481
 5742 1914 01       		.byte	0x1
 5743 1915 14       		.uleb128 0x14
 5744 1916 5C210000 		.4byte	.LASF482
 5745 191a 02       		.byte	0x2
 5746 191b 14       		.uleb128 0x14
 5747 191c 39120000 		.4byte	.LASF483
 5748 1920 03       		.byte	0x3
 5749 1921 14       		.uleb128 0x14
 5750 1922 04180000 		.4byte	.LASF484
 5751 1926 04       		.byte	0x4
 5752 1927 14       		.uleb128 0x14
 5753 1928 9C090000 		.4byte	.LASF485
 5754 192c 05       		.byte	0x5
 5755 192d 14       		.uleb128 0x14
 5756 192e A3010000 		.4byte	.LASF486
 5757 1932 06       		.byte	0x6
 5758 1933 14       		.uleb128 0x14
 5759 1934 DE050000 		.4byte	.LASF487
 5760 1938 07       		.byte	0x7
 5761 1939 00       		.byte	0
 5762 193a 03       		.uleb128 0x3
 5763 193b 241E0000 		.4byte	.LASF488
 5764 193f 16       		.byte	0x16
 5765 1940 90       		.byte	0x90
 5766 1941 FD180000 		.4byte	0x18fd
 5767 1945 03       		.uleb128 0x3
 5768 1946 D3190000 		.4byte	.LASF489
 5769 194a 17       		.byte	0x17
 5770 194b 74       		.byte	0x74
 5771 194c 97180000 		.4byte	0x1897
 5772 1950 03       		.uleb128 0x3
 5773 1951 47020000 		.4byte	.LASF490
 5774 1955 18       		.byte	0x18
 5775 1956 38       		.byte	0x38
 5776 1957 6D000000 		.4byte	0x6d
 5777 195b 03       		.uleb128 0x3
 5778 195c 861E0000 		.4byte	.LASF491
 5779 1960 18       		.byte	0x18
 5780 1961 3F       		.byte	0x3f
 5781 1962 CE000000 		.4byte	0xce
 5782 1966 03       		.uleb128 0x3
 5783 1967 D1070000 		.4byte	.LASF492
 5784 196b 19       		.byte	0x19
 5785 196c 2E       		.byte	0x2e
 5786 196d 8F080000 		.4byte	0x88f
 5787 1971 03       		.uleb128 0x3
 5788 1972 860B0000 		.4byte	.LASF493
 5789 1976 1A       		.byte	0x1a
 5790 1977 25       		.byte	0x25
 5791 1978 66190000 		.4byte	0x1966
 5792 197c 03       		.uleb128 0x3
 5793 197d C1110000 		.4byte	.LASF494
 5794 1981 1B       		.byte	0x1b
ARM GAS  C:\Users\seeho\AppData\Local\Temp\ccUkk7Dc.s 			page 155


 5795 1982 4C       		.byte	0x4c
 5796 1983 8F080000 		.4byte	0x88f
 5797 1987 26       		.uleb128 0x26
 5798 1988 46270000 		.4byte	.LASF497
 5799 198c 02       		.byte	0x2
 5800 198d 2503     		.2byte	0x325
 5801 198f 03       		.byte	0x3
 5802 1990 B9190000 		.4byte	0x19b9
 5803 1994 27       		.uleb128 0x27
 5804 1995 97250000 		.4byte	.LASF495
 5805 1999 02       		.byte	0x2
 5806 199a 2503     		.2byte	0x325
 5807 199c B9190000 		.4byte	0x19b9
 5808 19a0 27       		.uleb128 0x27
 5809 19a1 E60D0000 		.4byte	.LASF496
 5810 19a5 02       		.byte	0x2
 5811 19a6 2503     		.2byte	0x325
 5812 19a8 CE000000 		.4byte	0xce
 5813 19ac 27       		.uleb128 0x27
 5814 19ad 950A0000 		.4byte	.LASF465
 5815 19b1 02       		.byte	0x2
 5816 19b2 2503     		.2byte	0x325
 5817 19b4 CE000000 		.4byte	0xce
 5818 19b8 00       		.byte	0
 5819 19b9 10       		.uleb128 0x10
 5820 19ba 04       		.byte	0x4
 5821 19bb 14040000 		.4byte	0x414
 5822 19bf 26       		.uleb128 0x26
 5823 19c0 8B1A0000 		.4byte	.LASF498
 5824 19c4 04       		.byte	0x4
 5825 19c5 0201     		.2byte	0x102
 5826 19c7 03       		.byte	0x3
 5827 19c8 E5190000 		.4byte	0x19e5
 5828 19cc 27       		.uleb128 0x27
 5829 19cd 97250000 		.4byte	.LASF495
 5830 19d1 04       		.byte	0x4
 5831 19d2 0201     		.2byte	0x102
 5832 19d4 E5190000 		.4byte	0x19e5
 5833 19d8 27       		.uleb128 0x27
 5834 19d9 80240000 		.4byte	.LASF499
 5835 19dd 04       		.byte	0x4
 5836 19de 0201     		.2byte	0x102
 5837 19e0 CE000000 		.4byte	0xce
 5838 19e4 00       		.byte	0
 5839 19e5 10       		.uleb128 0x10
 5840 19e6 04       		.byte	0x4
 5841 19e7 2C040000 		.4byte	0x42c
 5842 19eb 26       		.uleb128 0x26
 5843 19ec 770C0000 		.4byte	.LASF500
 5844 19f0 03       		.byte	0x3
 5845 19f1 E401     		.2byte	0x1e4
 5846 19f3 03       		.byte	0x3
 5847 19f4 111A0000 		.4byte	0x1a11
 5848 19f8 27       		.uleb128 0x27
 5849 19f9 97250000 		.4byte	.LASF495
 5850 19fd 03       		.byte	0x3
 5851 19fe E401     		.2byte	0x1e4
ARM GAS  C:\Users\seeho\AppData\Local\Temp\ccUkk7Dc.s 			page 156


 5852 1a00 E5190000 		.4byte	0x19e5
 5853 1a04 27       		.uleb128 0x27
 5854 1a05 7D1E0000 		.4byte	.LASF501
 5855 1a09 03       		.byte	0x3
 5856 1a0a E401     		.2byte	0x1e4
 5857 1a0c CE000000 		.4byte	0xce
 5858 1a10 00       		.byte	0
 5859 1a11 26       		.uleb128 0x26
 5860 1a12 AB0F0000 		.4byte	.LASF502
 5861 1a16 04       		.byte	0x4
 5862 1a17 3B01     		.2byte	0x13b
 5863 1a19 03       		.byte	0x3
 5864 1a1a 431A0000 		.4byte	0x1a43
 5865 1a1e 27       		.uleb128 0x27
 5866 1a1f 97250000 		.4byte	.LASF495
 5867 1a23 04       		.byte	0x4
 5868 1a24 3B01     		.2byte	0x13b
 5869 1a26 E5190000 		.4byte	0x19e5
 5870 1a2a 27       		.uleb128 0x27
 5871 1a2b 80240000 		.4byte	.LASF499
 5872 1a2f 04       		.byte	0x4
 5873 1a30 3B01     		.2byte	0x13b
 5874 1a32 CE000000 		.4byte	0xce
 5875 1a36 27       		.uleb128 0x27
 5876 1a37 0A030000 		.4byte	.LASF213
 5877 1a3b 04       		.byte	0x4
 5878 1a3c 3B01     		.2byte	0x13b
 5879 1a3e CE000000 		.4byte	0xce
 5880 1a42 00       		.byte	0
 5881 1a43 28       		.uleb128 0x28
 5882 1a44 10240000 		.4byte	.LASF566
 5883 1a48 05       		.byte	0x5
 5884 1a49 81       		.byte	0x81
 5885 1a4a 03       		.byte	0x3
 5886 1a4b 29       		.uleb128 0x29
 5887 1a4c 770B0000 		.4byte	.LASF508
 5888 1a50 01       		.byte	0x1
 5889 1a51 3E       		.byte	0x3e
 5890 1a52 00000000 		.4byte	.LFB639
 5891 1a56 98000000 		.4byte	.LFE639-.LFB639
 5892 1a5a 01       		.uleb128 0x1
 5893 1a5b 9C       		.byte	0x9c
 5894 1a5c 9B1B0000 		.4byte	0x1b9b
 5895 1a60 2A       		.uleb128 0x2a
 5896 1a61 25080000 		.4byte	.LASF507
 5897 1a65 01       		.byte	0x1
 5898 1a66 3E       		.byte	0x3e
 5899 1a67 7C190000 		.4byte	0x197c
 5900 1a6b 00000000 		.4byte	.LLST0
 5901 1a6f 2B       		.uleb128 0x2b
 5902 1a70 3C0A0000 		.4byte	.LASF503
 5903 1a74 01       		.byte	0x1
 5904 1a75 40       		.byte	0x40
 5905 1a76 9B1B0000 		.4byte	0x1b9b
 5906 1a7a 0A       		.byte	0xa
 5907 1a7b 2C       		.uleb128 0x2c
 5908 1a7c 3B0C0000 		.4byte	.LASF504
ARM GAS  C:\Users\seeho\AppData\Local\Temp\ccUkk7Dc.s 			page 157


 5909 1a80 01       		.byte	0x1
 5910 1a81 41       		.byte	0x41
 5911 1a82 CE000000 		.4byte	0xce
 5912 1a86 2C000000 		.4byte	.LLST1
 5913 1a8a 2D       		.uleb128 0x2d
 5914 1a8b 1A000000 		.4byte	.LBB254
 5915 1a8f 44000000 		.4byte	.LBE254-.LBB254
 5916 1a93 261B0000 		.4byte	0x1b26
 5917 1a97 2C       		.uleb128 0x2c
 5918 1a98 83060000 		.4byte	.LASF505
 5919 1a9c 01       		.byte	0x1
 5920 1a9d 50       		.byte	0x50
 5921 1a9e 4B110000 		.4byte	0x114b
 5922 1aa2 60000000 		.4byte	.LLST2
 5923 1aa6 2E       		.uleb128 0x2e
 5924 1aa7 22000000 		.4byte	.LVL7
 5925 1aab 933F0000 		.4byte	0x3f93
 5926 1aaf 2F       		.uleb128 0x2f
 5927 1ab0 2C000000 		.4byte	.LVL9
 5928 1ab4 9F3F0000 		.4byte	0x3f9f
 5929 1ab8 CC1A0000 		.4byte	0x1acc
 5930 1abc 30       		.uleb128 0x30
 5931 1abd 01       		.uleb128 0x1
 5932 1abe 50       		.byte	0x50
 5933 1abf 05       		.uleb128 0x5
 5934 1ac0 03       		.byte	0x3
 5935 1ac1 04000000 		.4byte	.LC1
 5936 1ac5 30       		.uleb128 0x30
 5937 1ac6 01       		.uleb128 0x1
 5938 1ac7 52       		.byte	0x52
 5939 1ac8 02       		.uleb128 0x2
 5940 1ac9 74       		.byte	0x74
 5941 1aca 00       		.sleb128 0
 5942 1acb 00       		.byte	0
 5943 1acc 2F       		.uleb128 0x2f
 5944 1acd 44000000 		.4byte	.LVL11
 5945 1ad1 9F3F0000 		.4byte	0x3f9f
 5946 1ad5 E31A0000 		.4byte	0x1ae3
 5947 1ad9 30       		.uleb128 0x30
 5948 1ada 01       		.uleb128 0x1
 5949 1adb 50       		.byte	0x50
 5950 1adc 05       		.uleb128 0x5
 5951 1add 03       		.byte	0x3
 5952 1ade 24000000 		.4byte	.LC2
 5953 1ae2 00       		.byte	0
 5954 1ae3 2F       		.uleb128 0x2f
 5955 1ae4 4C000000 		.4byte	.LVL12
 5956 1ae8 AA3F0000 		.4byte	0x3faa
 5957 1aec FC1A0000 		.4byte	0x1afc
 5958 1af0 30       		.uleb128 0x30
 5959 1af1 01       		.uleb128 0x1
 5960 1af2 50       		.byte	0x50
 5961 1af3 02       		.uleb128 0x2
 5962 1af4 75       		.byte	0x75
 5963 1af5 00       		.sleb128 0
 5964 1af6 30       		.uleb128 0x30
 5965 1af7 01       		.uleb128 0x1
ARM GAS  C:\Users\seeho\AppData\Local\Temp\ccUkk7Dc.s 			page 158


 5966 1af8 51       		.byte	0x51
 5967 1af9 01       		.uleb128 0x1
 5968 1afa 30       		.byte	0x30
 5969 1afb 00       		.byte	0
 5970 1afc 2E       		.uleb128 0x2e
 5971 1afd 50000000 		.4byte	.LVL13
 5972 1b01 B63F0000 		.4byte	0x3fb6
 5973 1b05 31       		.uleb128 0x31
 5974 1b06 5E000000 		.4byte	.LVL14
 5975 1b0a C23F0000 		.4byte	0x3fc2
 5976 1b0e 30       		.uleb128 0x30
 5977 1b0f 01       		.uleb128 0x1
 5978 1b10 50       		.byte	0x50
 5979 1b11 02       		.uleb128 0x2
 5980 1b12 75       		.byte	0x75
 5981 1b13 00       		.sleb128 0
 5982 1b14 30       		.uleb128 0x30
 5983 1b15 01       		.uleb128 0x1
 5984 1b16 51       		.byte	0x51
 5985 1b17 01       		.uleb128 0x1
 5986 1b18 32       		.byte	0x32
 5987 1b19 30       		.uleb128 0x30
 5988 1b1a 01       		.uleb128 0x1
 5989 1b1b 53       		.byte	0x53
 5990 1b1c 01       		.uleb128 0x1
 5991 1b1d 30       		.byte	0x30
 5992 1b1e 30       		.uleb128 0x30
 5993 1b1f 02       		.uleb128 0x2
 5994 1b20 7D       		.byte	0x7d
 5995 1b21 00       		.sleb128 0
 5996 1b22 01       		.uleb128 0x1
 5997 1b23 30       		.byte	0x30
 5998 1b24 00       		.byte	0
 5999 1b25 00       		.byte	0
 6000 1b26 2F       		.uleb128 0x2f
 6001 1b27 0A000000 		.4byte	.LVL2
 6002 1b2b CE3F0000 		.4byte	0x3fce
 6003 1b2f 3A1B0000 		.4byte	0x1b3a
 6004 1b33 30       		.uleb128 0x30
 6005 1b34 01       		.uleb128 0x1
 6006 1b35 50       		.byte	0x50
 6007 1b36 02       		.uleb128 0x2
 6008 1b37 75       		.byte	0x75
 6009 1b38 00       		.sleb128 0
 6010 1b39 00       		.byte	0
 6011 1b3a 2F       		.uleb128 0x2f
 6012 1b3b 14000000 		.4byte	.LVL5
 6013 1b3f 9F3F0000 		.4byte	0x3f9f
 6014 1b43 571B0000 		.4byte	0x1b57
 6015 1b47 30       		.uleb128 0x30
 6016 1b48 01       		.uleb128 0x1
 6017 1b49 50       		.byte	0x50
 6018 1b4a 05       		.uleb128 0x5
 6019 1b4b 03       		.byte	0x3
 6020 1b4c 00000000 		.4byte	.LC0
 6021 1b50 30       		.uleb128 0x30
 6022 1b51 01       		.uleb128 0x1
ARM GAS  C:\Users\seeho\AppData\Local\Temp\ccUkk7Dc.s 			page 159


 6023 1b52 51       		.byte	0x51
 6024 1b53 02       		.uleb128 0x2
 6025 1b54 74       		.byte	0x74
 6026 1b55 00       		.sleb128 0
 6027 1b56 00       		.byte	0
 6028 1b57 2F       		.uleb128 0x2f
 6029 1b58 68000000 		.4byte	.LVL16
 6030 1b5c AA3F0000 		.4byte	0x3faa
 6031 1b60 711B0000 		.4byte	0x1b71
 6032 1b64 30       		.uleb128 0x30
 6033 1b65 01       		.uleb128 0x1
 6034 1b66 50       		.byte	0x50
 6035 1b67 02       		.uleb128 0x2
 6036 1b68 75       		.byte	0x75
 6037 1b69 00       		.sleb128 0
 6038 1b6a 30       		.uleb128 0x30
 6039 1b6b 01       		.uleb128 0x1
 6040 1b6c 51       		.byte	0x51
 6041 1b6d 02       		.uleb128 0x2
 6042 1b6e 74       		.byte	0x74
 6043 1b6f 00       		.sleb128 0
 6044 1b70 00       		.byte	0
 6045 1b71 31       		.uleb128 0x31
 6046 1b72 7A000000 		.4byte	.LVL17
 6047 1b76 C23F0000 		.4byte	0x3fc2
 6048 1b7a 30       		.uleb128 0x30
 6049 1b7b 01       		.uleb128 0x1
 6050 1b7c 50       		.byte	0x50
 6051 1b7d 02       		.uleb128 0x2
 6052 1b7e 75       		.byte	0x75
 6053 1b7f 00       		.sleb128 0
 6054 1b80 30       		.uleb128 0x30
 6055 1b81 01       		.uleb128 0x1
 6056 1b82 51       		.byte	0x51
 6057 1b83 01       		.uleb128 0x1
 6058 1b84 34       		.byte	0x34
 6059 1b85 30       		.uleb128 0x30
 6060 1b86 01       		.uleb128 0x1
 6061 1b87 52       		.byte	0x52
 6062 1b88 05       		.uleb128 0x5
 6063 1b89 74       		.byte	0x74
 6064 1b8a 00       		.sleb128 0
 6065 1b8b 08       		.byte	0x8
 6066 1b8c 64       		.byte	0x64
 6067 1b8d 1E       		.byte	0x1e
 6068 1b8e 30       		.uleb128 0x30
 6069 1b8f 01       		.uleb128 0x1
 6070 1b90 53       		.byte	0x53
 6071 1b91 01       		.uleb128 0x1
 6072 1b92 30       		.byte	0x30
 6073 1b93 30       		.uleb128 0x30
 6074 1b94 02       		.uleb128 0x2
 6075 1b95 7D       		.byte	0x7d
 6076 1b96 00       		.sleb128 0
 6077 1b97 01       		.uleb128 0x1
 6078 1b98 30       		.byte	0x30
 6079 1b99 00       		.byte	0
ARM GAS  C:\Users\seeho\AppData\Local\Temp\ccUkk7Dc.s 			page 160


 6080 1b9a 00       		.byte	0
 6081 1b9b 06       		.uleb128 0x6
 6082 1b9c CE000000 		.4byte	0xce
 6083 1ba0 32       		.uleb128 0x32
 6084 1ba1 661C0000 		.4byte	.LASF567
 6085 1ba5 01       		.byte	0x1
 6086 1ba6 F702     		.2byte	0x2f7
 6087 1ba8 00000000 		.4byte	.LFB648
 6088 1bac 38000000 		.4byte	.LFE648-.LFB648
 6089 1bb0 01       		.uleb128 0x1
 6090 1bb1 9C       		.byte	0x9c
 6091 1bb2 D61B0000 		.4byte	0x1bd6
 6092 1bb6 33       		.uleb128 0x33
 6093 1bb7 EF260000 		.4byte	.LASF506
 6094 1bbb 01       		.byte	0x1
 6095 1bbc F902     		.2byte	0x2f9
 6096 1bbe 50190000 		.4byte	0x1950
 6097 1bc2 02       		.uleb128 0x2
 6098 1bc3 91       		.byte	0x91
 6099 1bc4 74       		.sleb128 -12
 6100 1bc5 31       		.uleb128 0x31
 6101 1bc6 14000000 		.4byte	.LVL19
 6102 1bca DA3F0000 		.4byte	0x3fda
 6103 1bce 30       		.uleb128 0x30
 6104 1bcf 01       		.uleb128 0x1
 6105 1bd0 51       		.byte	0x51
 6106 1bd1 02       		.uleb128 0x2
 6107 1bd2 91       		.byte	0x91
 6108 1bd3 74       		.sleb128 -12
 6109 1bd4 00       		.byte	0
 6110 1bd5 00       		.byte	0
 6111 1bd6 34       		.uleb128 0x34
 6112 1bd7 500C0000 		.4byte	.LASF568
 6113 1bdb 01       		.byte	0x1
 6114 1bdc 0703     		.2byte	0x307
 6115 1bde 00000000 		.4byte	.LFB649
 6116 1be2 84000000 		.4byte	.LFE649-.LFB649
 6117 1be6 01       		.uleb128 0x1
 6118 1be7 9C       		.byte	0x9c
 6119 1be8 C21C0000 		.4byte	0x1cc2
 6120 1bec 35       		.uleb128 0x35
 6121 1bed 61726700 		.ascii	"arg\000"
 6122 1bf1 01       		.byte	0x1
 6123 1bf2 0703     		.2byte	0x307
 6124 1bf4 8F080000 		.4byte	0x88f
 6125 1bf8 7E000000 		.4byte	.LLST3
 6126 1bfc 2F       		.uleb128 0x2f
 6127 1bfd 08000000 		.4byte	.LVL22
 6128 1c01 E63F0000 		.4byte	0x3fe6
 6129 1c05 131C0000 		.4byte	0x1c13
 6130 1c09 30       		.uleb128 0x30
 6131 1c0a 01       		.uleb128 0x1
 6132 1c0b 50       		.byte	0x50
 6133 1c0c 05       		.uleb128 0x5
 6134 1c0d 03       		.byte	0x3
 6135 1c0e 58000000 		.4byte	.LC3
 6136 1c12 00       		.byte	0
ARM GAS  C:\Users\seeho\AppData\Local\Temp\ccUkk7Dc.s 			page 161


 6137 1c13 2F       		.uleb128 0x2f
 6138 1c14 12000000 		.4byte	.LVL23
 6139 1c18 F53F0000 		.4byte	0x3ff5
 6140 1c1c 2C1C0000 		.4byte	0x1c2c
 6141 1c20 30       		.uleb128 0x30
 6142 1c21 01       		.uleb128 0x1
 6143 1c22 50       		.byte	0x50
 6144 1c23 02       		.uleb128 0x2
 6145 1c24 09       		.byte	0x9
 6146 1c25 FF       		.byte	0xff
 6147 1c26 30       		.uleb128 0x30
 6148 1c27 01       		.uleb128 0x1
 6149 1c28 51       		.byte	0x51
 6150 1c29 01       		.uleb128 0x1
 6151 1c2a 30       		.byte	0x30
 6152 1c2b 00       		.byte	0
 6153 1c2c 2F       		.uleb128 0x2f
 6154 1c2d 1C000000 		.4byte	.LVL24
 6155 1c31 01400000 		.4byte	0x4001
 6156 1c35 3F1C0000 		.4byte	0x1c3f
 6157 1c39 30       		.uleb128 0x30
 6158 1c3a 01       		.uleb128 0x1
 6159 1c3b 50       		.byte	0x50
 6160 1c3c 01       		.uleb128 0x1
 6161 1c3d 31       		.byte	0x31
 6162 1c3e 00       		.byte	0
 6163 1c3f 2F       		.uleb128 0x2f
 6164 1c40 2A000000 		.4byte	.LVL25
 6165 1c44 E63F0000 		.4byte	0x3fe6
 6166 1c48 561C0000 		.4byte	0x1c56
 6167 1c4c 30       		.uleb128 0x30
 6168 1c4d 01       		.uleb128 0x1
 6169 1c4e 50       		.byte	0x50
 6170 1c4f 05       		.uleb128 0x5
 6171 1c50 03       		.byte	0x3
 6172 1c51 6C000000 		.4byte	.LC4
 6173 1c55 00       		.byte	0
 6174 1c56 2F       		.uleb128 0x2f
 6175 1c57 36000000 		.4byte	.LVL26
 6176 1c5b E63F0000 		.4byte	0x3fe6
 6177 1c5f 6D1C0000 		.4byte	0x1c6d
 6178 1c63 30       		.uleb128 0x30
 6179 1c64 01       		.uleb128 0x1
 6180 1c65 50       		.byte	0x50
 6181 1c66 05       		.uleb128 0x5
 6182 1c67 03       		.byte	0x3
 6183 1c68 98000000 		.4byte	.LC5
 6184 1c6c 00       		.byte	0
 6185 1c6d 2F       		.uleb128 0x2f
 6186 1c6e 3C000000 		.4byte	.LVL27
 6187 1c72 0D400000 		.4byte	0x400d
 6188 1c76 841C0000 		.4byte	0x1c84
 6189 1c7a 30       		.uleb128 0x30
 6190 1c7b 01       		.uleb128 0x1
 6191 1c7c 50       		.byte	0x50
 6192 1c7d 05       		.uleb128 0x5
 6193 1c7e 03       		.byte	0x3
ARM GAS  C:\Users\seeho\AppData\Local\Temp\ccUkk7Dc.s 			page 162


 6194 1c7f 00000000 		.4byte	genericEventHandler
 6195 1c83 00       		.byte	0
 6196 1c84 2E       		.uleb128 0x2e
 6197 1c85 42000000 		.4byte	.LVL28
 6198 1c89 18400000 		.4byte	0x4018
 6199 1c8d 2F       		.uleb128 0x2f
 6200 1c8e 50000000 		.4byte	.LVL29
 6201 1c92 24400000 		.4byte	0x4024
 6202 1c96 A41C0000 		.4byte	0x1ca4
 6203 1c9a 30       		.uleb128 0x30
 6204 1c9b 01       		.uleb128 0x1
 6205 1c9c 50       		.byte	0x50
 6206 1c9d 05       		.uleb128 0x5
 6207 1c9e 03       		.byte	0x3
 6208 1c9f 00000000 		.4byte	bleInterruptNotify
 6209 1ca3 00       		.byte	0
 6210 1ca4 2F       		.uleb128 0x2f
 6211 1ca5 5C000000 		.4byte	.LVL30
 6212 1ca9 30400000 		.4byte	0x4030
 6213 1cad B81C0000 		.4byte	0x1cb8
 6214 1cb1 30       		.uleb128 0x30
 6215 1cb2 01       		.uleb128 0x1
 6216 1cb3 51       		.byte	0x51
 6217 1cb4 02       		.uleb128 0x2
 6218 1cb5 09       		.byte	0x9
 6219 1cb6 FF       		.byte	0xff
 6220 1cb7 00       		.byte	0
 6221 1cb8 2E       		.uleb128 0x2e
 6222 1cb9 60000000 		.4byte	.LVL31
 6223 1cbd 18400000 		.4byte	0x4018
 6224 1cc1 00       		.byte	0
 6225 1cc2 29       		.uleb128 0x29
 6226 1cc3 42010000 		.4byte	.LASF509
 6227 1cc7 01       		.byte	0x1
 6228 1cc8 6F       		.byte	0x6f
 6229 1cc9 00000000 		.4byte	.LFB640
 6230 1ccd 64000000 		.4byte	.LFE640-.LFB640
 6231 1cd1 01       		.uleb128 0x1
 6232 1cd2 9C       		.byte	0x9c
 6233 1cd3 771D0000 		.4byte	0x1d77
 6234 1cd7 2F       		.uleb128 0x2f
 6235 1cd8 0A000000 		.4byte	.LVL32
 6236 1cdc E63F0000 		.4byte	0x3fe6
 6237 1ce0 EE1C0000 		.4byte	0x1cee
 6238 1ce4 30       		.uleb128 0x30
 6239 1ce5 01       		.uleb128 0x1
 6240 1ce6 50       		.byte	0x50
 6241 1ce7 05       		.uleb128 0x5
 6242 1ce8 03       		.byte	0x3
 6243 1ce9 C8000000 		.4byte	.LC6
 6244 1ced 00       		.byte	0
 6245 1cee 2F       		.uleb128 0x2f
 6246 1cef 1A000000 		.4byte	.LVL33
 6247 1cf3 3C400000 		.4byte	0x403c
 6248 1cf7 1F1D0000 		.4byte	0x1d1f
 6249 1cfb 30       		.uleb128 0x30
 6250 1cfc 01       		.uleb128 0x1
ARM GAS  C:\Users\seeho\AppData\Local\Temp\ccUkk7Dc.s 			page 163


 6251 1cfd 50       		.byte	0x50
 6252 1cfe 05       		.uleb128 0x5
 6253 1cff 03       		.byte	0x3
 6254 1d00 E4000000 		.4byte	.LC7
 6255 1d04 30       		.uleb128 0x30
 6256 1d05 01       		.uleb128 0x1
 6257 1d06 51       		.byte	0x51
 6258 1d07 02       		.uleb128 0x2
 6259 1d08 08       		.byte	0x8
 6260 1d09 64       		.byte	0x64
 6261 1d0a 30       		.uleb128 0x30
 6262 1d0b 01       		.uleb128 0x1
 6263 1d0c 52       		.byte	0x52
 6264 1d0d 01       		.uleb128 0x1
 6265 1d0e 31       		.byte	0x31
 6266 1d0f 30       		.uleb128 0x30
 6267 1d10 01       		.uleb128 0x1
 6268 1d11 53       		.byte	0x53
 6269 1d12 01       		.uleb128 0x1
 6270 1d13 30       		.byte	0x30
 6271 1d14 30       		.uleb128 0x30
 6272 1d15 02       		.uleb128 0x2
 6273 1d16 7D       		.byte	0x7d
 6274 1d17 00       		.sleb128 0
 6275 1d18 05       		.uleb128 0x5
 6276 1d19 03       		.byte	0x3
 6277 1d1a 00000000 		.4byte	vTimerCallback
 6278 1d1e 00       		.byte	0
 6279 1d1f 2F       		.uleb128 0x2f
 6280 1d20 26000000 		.4byte	.LVL34
 6281 1d24 E63F0000 		.4byte	0x3fe6
 6282 1d28 361D0000 		.4byte	0x1d36
 6283 1d2c 30       		.uleb128 0x30
 6284 1d2d 01       		.uleb128 0x1
 6285 1d2e 50       		.byte	0x50
 6286 1d2f 05       		.uleb128 0x5
 6287 1d30 03       		.byte	0x3
 6288 1d31 EC000000 		.4byte	.LC8
 6289 1d35 00       		.byte	0
 6290 1d36 2E       		.uleb128 0x2e
 6291 1d37 2E000000 		.4byte	.LVL35
 6292 1d3b B63F0000 		.4byte	0x3fb6
 6293 1d3f 2F       		.uleb128 0x2f
 6294 1d40 3C000000 		.4byte	.LVL36
 6295 1d44 C23F0000 		.4byte	0x3fc2
 6296 1d48 631D0000 		.4byte	0x1d63
 6297 1d4c 30       		.uleb128 0x30
 6298 1d4d 01       		.uleb128 0x1
 6299 1d4e 50       		.byte	0x50
 6300 1d4f 02       		.uleb128 0x2
 6301 1d50 74       		.byte	0x74
 6302 1d51 00       		.sleb128 0
 6303 1d52 30       		.uleb128 0x30
 6304 1d53 01       		.uleb128 0x1
 6305 1d54 51       		.byte	0x51
 6306 1d55 01       		.uleb128 0x1
 6307 1d56 31       		.byte	0x31
ARM GAS  C:\Users\seeho\AppData\Local\Temp\ccUkk7Dc.s 			page 164


 6308 1d57 30       		.uleb128 0x30
 6309 1d58 01       		.uleb128 0x1
 6310 1d59 53       		.byte	0x53
 6311 1d5a 01       		.uleb128 0x1
 6312 1d5b 30       		.byte	0x30
 6313 1d5c 30       		.uleb128 0x30
 6314 1d5d 02       		.uleb128 0x2
 6315 1d5e 7D       		.byte	0x7d
 6316 1d5f 00       		.sleb128 0
 6317 1d60 01       		.uleb128 0x1
 6318 1d61 30       		.byte	0x30
 6319 1d62 00       		.byte	0
 6320 1d63 31       		.uleb128 0x31
 6321 1d64 46000000 		.4byte	.LVL37
 6322 1d68 E63F0000 		.4byte	0x3fe6
 6323 1d6c 30       		.uleb128 0x30
 6324 1d6d 01       		.uleb128 0x1
 6325 1d6e 50       		.byte	0x50
 6326 1d6f 05       		.uleb128 0x5
 6327 1d70 03       		.byte	0x3
 6328 1d71 08010000 		.4byte	.LC9
 6329 1d75 00       		.byte	0
 6330 1d76 00       		.byte	0
 6331 1d77 29       		.uleb128 0x29
 6332 1d78 15100000 		.4byte	.LASF510
 6333 1d7c 01       		.byte	0x1
 6334 1d7d 9B       		.byte	0x9b
 6335 1d7e 00000000 		.4byte	.LFB641
 6336 1d82 28000000 		.4byte	.LFE641-.LFB641
 6337 1d86 01       		.uleb128 0x1
 6338 1d87 9C       		.byte	0x9c
 6339 1d88 BD1D0000 		.4byte	0x1dbd
 6340 1d8c 2F       		.uleb128 0x2f
 6341 1d8d 0C000000 		.4byte	.LVL38
 6342 1d91 9F3F0000 		.4byte	0x3f9f
 6343 1d95 A31D0000 		.4byte	0x1da3
 6344 1d99 30       		.uleb128 0x30
 6345 1d9a 01       		.uleb128 0x1
 6346 1d9b 50       		.byte	0x50
 6347 1d9c 05       		.uleb128 0x5
 6348 1d9d 03       		.byte	0x3
 6349 1d9e 3C010000 		.4byte	.LC10
 6350 1da2 00       		.byte	0
 6351 1da3 31       		.uleb128 0x31
 6352 1da4 1A000000 		.4byte	.LVL39
 6353 1da8 47400000 		.4byte	0x4047
 6354 1dac 30       		.uleb128 0x30
 6355 1dad 01       		.uleb128 0x1
 6356 1dae 51       		.byte	0x51
 6357 1daf 01       		.uleb128 0x1
 6358 1db0 30       		.byte	0x30
 6359 1db1 30       		.uleb128 0x30
 6360 1db2 01       		.uleb128 0x1
 6361 1db3 52       		.byte	0x52
 6362 1db4 01       		.uleb128 0x1
 6363 1db5 30       		.byte	0x30
 6364 1db6 30       		.uleb128 0x30
ARM GAS  C:\Users\seeho\AppData\Local\Temp\ccUkk7Dc.s 			page 165


 6365 1db7 01       		.uleb128 0x1
 6366 1db8 53       		.byte	0x53
 6367 1db9 01       		.uleb128 0x1
 6368 1dba 30       		.byte	0x30
 6369 1dbb 00       		.byte	0
 6370 1dbc 00       		.byte	0
 6371 1dbd 29       		.uleb128 0x29
 6372 1dbe 8C250000 		.4byte	.LASF511
 6373 1dc2 01       		.byte	0x1
 6374 1dc3 A9       		.byte	0xa9
 6375 1dc4 00000000 		.4byte	.LFB642
 6376 1dc8 C0000000 		.4byte	.LFE642-.LFB642
 6377 1dcc 01       		.uleb128 0x1
 6378 1dcd 9C       		.byte	0x9c
 6379 1dce D01F0000 		.4byte	0x1fd0
 6380 1dd2 2F       		.uleb128 0x2f
 6381 1dd3 0E000000 		.4byte	.LVL40
 6382 1dd7 53400000 		.4byte	0x4053
 6383 1ddb F01D0000 		.4byte	0x1df0
 6384 1ddf 30       		.uleb128 0x30
 6385 1de0 01       		.uleb128 0x1
 6386 1de1 50       		.byte	0x50
 6387 1de2 02       		.uleb128 0x2
 6388 1de3 74       		.byte	0x74
 6389 1de4 00       		.sleb128 0
 6390 1de5 30       		.uleb128 0x30
 6391 1de6 01       		.uleb128 0x1
 6392 1de7 51       		.byte	0x51
 6393 1de8 01       		.uleb128 0x1
 6394 1de9 33       		.byte	0x33
 6395 1dea 30       		.uleb128 0x30
 6396 1deb 01       		.uleb128 0x1
 6397 1dec 52       		.byte	0x52
 6398 1ded 01       		.uleb128 0x1
 6399 1dee 30       		.byte	0x30
 6400 1def 00       		.byte	0
 6401 1df0 2F       		.uleb128 0x2f
 6402 1df1 18000000 		.4byte	.LVL41
 6403 1df5 53400000 		.4byte	0x4053
 6404 1df9 0E1E0000 		.4byte	0x1e0e
 6405 1dfd 30       		.uleb128 0x30
 6406 1dfe 01       		.uleb128 0x1
 6407 1dff 50       		.byte	0x50
 6408 1e00 02       		.uleb128 0x2
 6409 1e01 74       		.byte	0x74
 6410 1e02 00       		.sleb128 0
 6411 1e03 30       		.uleb128 0x30
 6412 1e04 01       		.uleb128 0x1
 6413 1e05 51       		.byte	0x51
 6414 1e06 01       		.uleb128 0x1
 6415 1e07 32       		.byte	0x32
 6416 1e08 30       		.uleb128 0x30
 6417 1e09 01       		.uleb128 0x1
 6418 1e0a 52       		.byte	0x52
 6419 1e0b 01       		.uleb128 0x1
 6420 1e0c 30       		.byte	0x30
 6421 1e0d 00       		.byte	0
ARM GAS  C:\Users\seeho\AppData\Local\Temp\ccUkk7Dc.s 			page 166


 6422 1e0e 2F       		.uleb128 0x2f
 6423 1e0f 22000000 		.4byte	.LVL42
 6424 1e13 53400000 		.4byte	0x4053
 6425 1e17 2C1E0000 		.4byte	0x1e2c
 6426 1e1b 30       		.uleb128 0x30
 6427 1e1c 01       		.uleb128 0x1
 6428 1e1d 50       		.byte	0x50
 6429 1e1e 02       		.uleb128 0x2
 6430 1e1f 74       		.byte	0x74
 6431 1e20 00       		.sleb128 0
 6432 1e21 30       		.uleb128 0x30
 6433 1e22 01       		.uleb128 0x1
 6434 1e23 51       		.byte	0x51
 6435 1e24 01       		.uleb128 0x1
 6436 1e25 31       		.byte	0x31
 6437 1e26 30       		.uleb128 0x30
 6438 1e27 01       		.uleb128 0x1
 6439 1e28 52       		.byte	0x52
 6440 1e29 01       		.uleb128 0x1
 6441 1e2a 30       		.byte	0x30
 6442 1e2b 00       		.byte	0
 6443 1e2c 2F       		.uleb128 0x2f
 6444 1e2d 2C000000 		.4byte	.LVL43
 6445 1e31 53400000 		.4byte	0x4053
 6446 1e35 4A1E0000 		.4byte	0x1e4a
 6447 1e39 30       		.uleb128 0x30
 6448 1e3a 01       		.uleb128 0x1
 6449 1e3b 50       		.byte	0x50
 6450 1e3c 02       		.uleb128 0x2
 6451 1e3d 74       		.byte	0x74
 6452 1e3e 00       		.sleb128 0
 6453 1e3f 30       		.uleb128 0x30
 6454 1e40 01       		.uleb128 0x1
 6455 1e41 51       		.byte	0x51
 6456 1e42 01       		.uleb128 0x1
 6457 1e43 30       		.byte	0x30
 6458 1e44 30       		.uleb128 0x30
 6459 1e45 01       		.uleb128 0x1
 6460 1e46 52       		.byte	0x52
 6461 1e47 01       		.uleb128 0x1
 6462 1e48 30       		.byte	0x30
 6463 1e49 00       		.byte	0
 6464 1e4a 2F       		.uleb128 0x2f
 6465 1e4b 38000000 		.4byte	.LVL44
 6466 1e4f 53400000 		.4byte	0x4053
 6467 1e53 681E0000 		.4byte	0x1e68
 6468 1e57 30       		.uleb128 0x30
 6469 1e58 01       		.uleb128 0x1
 6470 1e59 50       		.byte	0x50
 6471 1e5a 02       		.uleb128 0x2
 6472 1e5b 75       		.byte	0x75
 6473 1e5c 00       		.sleb128 0
 6474 1e5d 30       		.uleb128 0x30
 6475 1e5e 01       		.uleb128 0x1
 6476 1e5f 51       		.byte	0x51
 6477 1e60 01       		.uleb128 0x1
 6478 1e61 32       		.byte	0x32
ARM GAS  C:\Users\seeho\AppData\Local\Temp\ccUkk7Dc.s 			page 167


 6479 1e62 30       		.uleb128 0x30
 6480 1e63 01       		.uleb128 0x1
 6481 1e64 52       		.byte	0x52
 6482 1e65 01       		.uleb128 0x1
 6483 1e66 30       		.byte	0x30
 6484 1e67 00       		.byte	0
 6485 1e68 2F       		.uleb128 0x2f
 6486 1e69 42000000 		.4byte	.LVL45
 6487 1e6d 53400000 		.4byte	0x4053
 6488 1e71 861E0000 		.4byte	0x1e86
 6489 1e75 30       		.uleb128 0x30
 6490 1e76 01       		.uleb128 0x1
 6491 1e77 50       		.byte	0x50
 6492 1e78 02       		.uleb128 0x2
 6493 1e79 75       		.byte	0x75
 6494 1e7a 00       		.sleb128 0
 6495 1e7b 30       		.uleb128 0x30
 6496 1e7c 01       		.uleb128 0x1
 6497 1e7d 51       		.byte	0x51
 6498 1e7e 01       		.uleb128 0x1
 6499 1e7f 33       		.byte	0x33
 6500 1e80 30       		.uleb128 0x30
 6501 1e81 01       		.uleb128 0x1
 6502 1e82 52       		.byte	0x52
 6503 1e83 01       		.uleb128 0x1
 6504 1e84 30       		.byte	0x30
 6505 1e85 00       		.byte	0
 6506 1e86 2F       		.uleb128 0x2f
 6507 1e87 4C000000 		.4byte	.LVL46
 6508 1e8b 53400000 		.4byte	0x4053
 6509 1e8f A41E0000 		.4byte	0x1ea4
 6510 1e93 30       		.uleb128 0x30
 6511 1e94 01       		.uleb128 0x1
 6512 1e95 50       		.byte	0x50
 6513 1e96 02       		.uleb128 0x2
 6514 1e97 75       		.byte	0x75
 6515 1e98 00       		.sleb128 0
 6516 1e99 30       		.uleb128 0x30
 6517 1e9a 01       		.uleb128 0x1
 6518 1e9b 51       		.byte	0x51
 6519 1e9c 01       		.uleb128 0x1
 6520 1e9d 34       		.byte	0x34
 6521 1e9e 30       		.uleb128 0x30
 6522 1e9f 01       		.uleb128 0x1
 6523 1ea0 52       		.byte	0x52
 6524 1ea1 01       		.uleb128 0x1
 6525 1ea2 30       		.byte	0x30
 6526 1ea3 00       		.byte	0
 6527 1ea4 2F       		.uleb128 0x2f
 6528 1ea5 56000000 		.4byte	.LVL47
 6529 1ea9 53400000 		.4byte	0x4053
 6530 1ead C21E0000 		.4byte	0x1ec2
 6531 1eb1 30       		.uleb128 0x30
 6532 1eb2 01       		.uleb128 0x1
 6533 1eb3 50       		.byte	0x50
 6534 1eb4 02       		.uleb128 0x2
 6535 1eb5 75       		.byte	0x75
ARM GAS  C:\Users\seeho\AppData\Local\Temp\ccUkk7Dc.s 			page 168


 6536 1eb6 00       		.sleb128 0
 6537 1eb7 30       		.uleb128 0x30
 6538 1eb8 01       		.uleb128 0x1
 6539 1eb9 51       		.byte	0x51
 6540 1eba 01       		.uleb128 0x1
 6541 1ebb 35       		.byte	0x35
 6542 1ebc 30       		.uleb128 0x30
 6543 1ebd 01       		.uleb128 0x1
 6544 1ebe 52       		.byte	0x52
 6545 1ebf 01       		.uleb128 0x1
 6546 1ec0 30       		.byte	0x30
 6547 1ec1 00       		.byte	0
 6548 1ec2 2F       		.uleb128 0x2f
 6549 1ec3 60000000 		.4byte	.LVL48
 6550 1ec7 53400000 		.4byte	0x4053
 6551 1ecb E01E0000 		.4byte	0x1ee0
 6552 1ecf 30       		.uleb128 0x30
 6553 1ed0 01       		.uleb128 0x1
 6554 1ed1 50       		.byte	0x50
 6555 1ed2 02       		.uleb128 0x2
 6556 1ed3 75       		.byte	0x75
 6557 1ed4 00       		.sleb128 0
 6558 1ed5 30       		.uleb128 0x30
 6559 1ed6 01       		.uleb128 0x1
 6560 1ed7 51       		.byte	0x51
 6561 1ed8 01       		.uleb128 0x1
 6562 1ed9 36       		.byte	0x36
 6563 1eda 30       		.uleb128 0x30
 6564 1edb 01       		.uleb128 0x1
 6565 1edc 52       		.byte	0x52
 6566 1edd 01       		.uleb128 0x1
 6567 1ede 30       		.byte	0x30
 6568 1edf 00       		.byte	0
 6569 1ee0 2F       		.uleb128 0x2f
 6570 1ee1 6A000000 		.4byte	.LVL49
 6571 1ee5 53400000 		.4byte	0x4053
 6572 1ee9 FE1E0000 		.4byte	0x1efe
 6573 1eed 30       		.uleb128 0x30
 6574 1eee 01       		.uleb128 0x1
 6575 1eef 50       		.byte	0x50
 6576 1ef0 02       		.uleb128 0x2
 6577 1ef1 74       		.byte	0x74
 6578 1ef2 00       		.sleb128 0
 6579 1ef3 30       		.uleb128 0x30
 6580 1ef4 01       		.uleb128 0x1
 6581 1ef5 51       		.byte	0x51
 6582 1ef6 01       		.uleb128 0x1
 6583 1ef7 34       		.byte	0x34
 6584 1ef8 30       		.uleb128 0x30
 6585 1ef9 01       		.uleb128 0x1
 6586 1efa 52       		.byte	0x52
 6587 1efb 01       		.uleb128 0x1
 6588 1efc 30       		.byte	0x30
 6589 1efd 00       		.byte	0
 6590 1efe 2F       		.uleb128 0x2f
 6591 1eff 74000000 		.4byte	.LVL50
 6592 1f03 53400000 		.4byte	0x4053
ARM GAS  C:\Users\seeho\AppData\Local\Temp\ccUkk7Dc.s 			page 169


 6593 1f07 1C1F0000 		.4byte	0x1f1c
 6594 1f0b 30       		.uleb128 0x30
 6595 1f0c 01       		.uleb128 0x1
 6596 1f0d 50       		.byte	0x50
 6597 1f0e 02       		.uleb128 0x2
 6598 1f0f 74       		.byte	0x74
 6599 1f10 00       		.sleb128 0
 6600 1f11 30       		.uleb128 0x30
 6601 1f12 01       		.uleb128 0x1
 6602 1f13 51       		.byte	0x51
 6603 1f14 01       		.uleb128 0x1
 6604 1f15 35       		.byte	0x35
 6605 1f16 30       		.uleb128 0x30
 6606 1f17 01       		.uleb128 0x1
 6607 1f18 52       		.byte	0x52
 6608 1f19 01       		.uleb128 0x1
 6609 1f1a 30       		.byte	0x30
 6610 1f1b 00       		.byte	0
 6611 1f1c 2F       		.uleb128 0x2f
 6612 1f1d 7E000000 		.4byte	.LVL51
 6613 1f21 53400000 		.4byte	0x4053
 6614 1f25 3A1F0000 		.4byte	0x1f3a
 6615 1f29 30       		.uleb128 0x30
 6616 1f2a 01       		.uleb128 0x1
 6617 1f2b 50       		.byte	0x50
 6618 1f2c 02       		.uleb128 0x2
 6619 1f2d 74       		.byte	0x74
 6620 1f2e 00       		.sleb128 0
 6621 1f2f 30       		.uleb128 0x30
 6622 1f30 01       		.uleb128 0x1
 6623 1f31 51       		.byte	0x51
 6624 1f32 01       		.uleb128 0x1
 6625 1f33 36       		.byte	0x36
 6626 1f34 30       		.uleb128 0x30
 6627 1f35 01       		.uleb128 0x1
 6628 1f36 52       		.byte	0x52
 6629 1f37 01       		.uleb128 0x1
 6630 1f38 30       		.byte	0x30
 6631 1f39 00       		.byte	0
 6632 1f3a 2F       		.uleb128 0x2f
 6633 1f3b 8A000000 		.4byte	.LVL52
 6634 1f3f 53400000 		.4byte	0x4053
 6635 1f43 581F0000 		.4byte	0x1f58
 6636 1f47 30       		.uleb128 0x30
 6637 1f48 01       		.uleb128 0x1
 6638 1f49 50       		.byte	0x50
 6639 1f4a 02       		.uleb128 0x2
 6640 1f4b 74       		.byte	0x74
 6641 1f4c 00       		.sleb128 0
 6642 1f4d 30       		.uleb128 0x30
 6643 1f4e 01       		.uleb128 0x1
 6644 1f4f 51       		.byte	0x51
 6645 1f50 01       		.uleb128 0x1
 6646 1f51 30       		.byte	0x30
 6647 1f52 30       		.uleb128 0x30
 6648 1f53 01       		.uleb128 0x1
 6649 1f54 52       		.byte	0x52
ARM GAS  C:\Users\seeho\AppData\Local\Temp\ccUkk7Dc.s 			page 170


 6650 1f55 01       		.uleb128 0x1
 6651 1f56 30       		.byte	0x30
 6652 1f57 00       		.byte	0
 6653 1f58 2F       		.uleb128 0x2f
 6654 1f59 94000000 		.4byte	.LVL53
 6655 1f5d 53400000 		.4byte	0x4053
 6656 1f61 761F0000 		.4byte	0x1f76
 6657 1f65 30       		.uleb128 0x30
 6658 1f66 01       		.uleb128 0x1
 6659 1f67 50       		.byte	0x50
 6660 1f68 02       		.uleb128 0x2
 6661 1f69 74       		.byte	0x74
 6662 1f6a 00       		.sleb128 0
 6663 1f6b 30       		.uleb128 0x30
 6664 1f6c 01       		.uleb128 0x1
 6665 1f6d 51       		.byte	0x51
 6666 1f6e 01       		.uleb128 0x1
 6667 1f6f 31       		.byte	0x31
 6668 1f70 30       		.uleb128 0x30
 6669 1f71 01       		.uleb128 0x1
 6670 1f72 52       		.byte	0x52
 6671 1f73 01       		.uleb128 0x1
 6672 1f74 30       		.byte	0x30
 6673 1f75 00       		.byte	0
 6674 1f76 2F       		.uleb128 0x2f
 6675 1f77 9E000000 		.4byte	.LVL54
 6676 1f7b 53400000 		.4byte	0x4053
 6677 1f7f 941F0000 		.4byte	0x1f94
 6678 1f83 30       		.uleb128 0x30
 6679 1f84 01       		.uleb128 0x1
 6680 1f85 50       		.byte	0x50
 6681 1f86 02       		.uleb128 0x2
 6682 1f87 74       		.byte	0x74
 6683 1f88 00       		.sleb128 0
 6684 1f89 30       		.uleb128 0x30
 6685 1f8a 01       		.uleb128 0x1
 6686 1f8b 51       		.byte	0x51
 6687 1f8c 01       		.uleb128 0x1
 6688 1f8d 32       		.byte	0x32
 6689 1f8e 30       		.uleb128 0x30
 6690 1f8f 01       		.uleb128 0x1
 6691 1f90 52       		.byte	0x52
 6692 1f91 01       		.uleb128 0x1
 6693 1f92 30       		.byte	0x30
 6694 1f93 00       		.byte	0
 6695 1f94 2F       		.uleb128 0x2f
 6696 1f95 A8000000 		.4byte	.LVL55
 6697 1f99 53400000 		.4byte	0x4053
 6698 1f9d B21F0000 		.4byte	0x1fb2
 6699 1fa1 30       		.uleb128 0x30
 6700 1fa2 01       		.uleb128 0x1
 6701 1fa3 50       		.byte	0x50
 6702 1fa4 02       		.uleb128 0x2
 6703 1fa5 74       		.byte	0x74
 6704 1fa6 00       		.sleb128 0
 6705 1fa7 30       		.uleb128 0x30
 6706 1fa8 01       		.uleb128 0x1
ARM GAS  C:\Users\seeho\AppData\Local\Temp\ccUkk7Dc.s 			page 171


 6707 1fa9 51       		.byte	0x51
 6708 1faa 01       		.uleb128 0x1
 6709 1fab 33       		.byte	0x33
 6710 1fac 30       		.uleb128 0x30
 6711 1fad 01       		.uleb128 0x1
 6712 1fae 52       		.byte	0x52
 6713 1faf 01       		.uleb128 0x1
 6714 1fb0 30       		.byte	0x30
 6715 1fb1 00       		.byte	0
 6716 1fb2 31       		.uleb128 0x31
 6717 1fb3 B2000000 		.4byte	.LVL56
 6718 1fb7 53400000 		.4byte	0x4053
 6719 1fbb 30       		.uleb128 0x30
 6720 1fbc 01       		.uleb128 0x1
 6721 1fbd 50       		.byte	0x50
 6722 1fbe 05       		.uleb128 0x5
 6723 1fbf 0C       		.byte	0xc
 6724 1fc0 00003240 		.4byte	0x40320000
 6725 1fc4 30       		.uleb128 0x30
 6726 1fc5 01       		.uleb128 0x1
 6727 1fc6 51       		.byte	0x51
 6728 1fc7 01       		.uleb128 0x1
 6729 1fc8 34       		.byte	0x34
 6730 1fc9 30       		.uleb128 0x30
 6731 1fca 01       		.uleb128 0x1
 6732 1fcb 52       		.byte	0x52
 6733 1fcc 01       		.uleb128 0x1
 6734 1fcd 30       		.byte	0x30
 6735 1fce 00       		.byte	0
 6736 1fcf 00       		.byte	0
 6737 1fd0 29       		.uleb128 0x29
 6738 1fd1 EC1A0000 		.4byte	.LASF512
 6739 1fd5 01       		.byte	0x1
 6740 1fd6 D1       		.byte	0xd1
 6741 1fd7 00000000 		.4byte	.LFB643
 6742 1fdb D8010000 		.4byte	.LFE643-.LFB643
 6743 1fdf 01       		.uleb128 0x1
 6744 1fe0 9C       		.byte	0x9c
 6745 1fe1 A12B0000 		.4byte	0x2ba1
 6746 1fe5 36       		.uleb128 0x36
 6747 1fe6 87190000 		.4byte	0x1987
 6748 1fea 2C000000 		.4byte	.LBB255
 6749 1fee 06000000 		.4byte	.LBE255-.LBB255
 6750 1ff2 01       		.byte	0x1
 6751 1ff3 D9       		.byte	0xd9
 6752 1ff4 14200000 		.4byte	0x2014
 6753 1ff8 37       		.uleb128 0x37
 6754 1ff9 AC190000 		.4byte	0x19ac
 6755 1ffd 9F000000 		.4byte	.LLST4
 6756 2001 37       		.uleb128 0x37
 6757 2002 A0190000 		.4byte	0x19a0
 6758 2006 B3000000 		.4byte	.LLST5
 6759 200a 37       		.uleb128 0x37
 6760 200b 94190000 		.4byte	0x1994
 6761 200f C7000000 		.4byte	.LLST6
 6762 2013 00       		.byte	0
 6763 2014 36       		.uleb128 0x36
ARM GAS  C:\Users\seeho\AppData\Local\Temp\ccUkk7Dc.s 			page 172


 6764 2015 87190000 		.4byte	0x1987
 6765 2019 32000000 		.4byte	.LBB257
 6766 201d 04000000 		.4byte	.LBE257-.LBB257
 6767 2021 01       		.byte	0x1
 6768 2022 DA       		.byte	0xda
 6769 2023 43200000 		.4byte	0x2043
 6770 2027 37       		.uleb128 0x37
 6771 2028 AC190000 		.4byte	0x19ac
 6772 202c DF000000 		.4byte	.LLST7
 6773 2030 37       		.uleb128 0x37
 6774 2031 A0190000 		.4byte	0x19a0
 6775 2035 F3000000 		.4byte	.LLST8
 6776 2039 37       		.uleb128 0x37
 6777 203a 94190000 		.4byte	0x1994
 6778 203e 07010000 		.4byte	.LLST9
 6779 2042 00       		.byte	0
 6780 2043 36       		.uleb128 0x36
 6781 2044 87190000 		.4byte	0x1987
 6782 2048 36000000 		.4byte	.LBB259
 6783 204c 04000000 		.4byte	.LBE259-.LBB259
 6784 2050 01       		.byte	0x1
 6785 2051 DB       		.byte	0xdb
 6786 2052 72200000 		.4byte	0x2072
 6787 2056 37       		.uleb128 0x37
 6788 2057 AC190000 		.4byte	0x19ac
 6789 205b 1F010000 		.4byte	.LLST10
 6790 205f 37       		.uleb128 0x37
 6791 2060 A0190000 		.4byte	0x19a0
 6792 2064 33010000 		.4byte	.LLST11
 6793 2068 37       		.uleb128 0x37
 6794 2069 94190000 		.4byte	0x1994
 6795 206d 47010000 		.4byte	.LLST12
 6796 2071 00       		.byte	0
 6797 2072 36       		.uleb128 0x36
 6798 2073 87190000 		.4byte	0x1987
 6799 2077 3A000000 		.4byte	.LBB261
 6800 207b 06000000 		.4byte	.LBE261-.LBB261
 6801 207f 01       		.byte	0x1
 6802 2080 DC       		.byte	0xdc
 6803 2081 A1200000 		.4byte	0x20a1
 6804 2085 37       		.uleb128 0x37
 6805 2086 AC190000 		.4byte	0x19ac
 6806 208a 5F010000 		.4byte	.LLST13
 6807 208e 37       		.uleb128 0x37
 6808 208f A0190000 		.4byte	0x19a0
 6809 2093 5F010000 		.4byte	.LLST13
 6810 2097 37       		.uleb128 0x37
 6811 2098 94190000 		.4byte	0x1994
 6812 209c 73010000 		.4byte	.LLST15
 6813 20a0 00       		.byte	0
 6814 20a1 36       		.uleb128 0x36
 6815 20a2 87190000 		.4byte	0x1987
 6816 20a6 46000000 		.4byte	.LBB263
 6817 20aa 06000000 		.4byte	.LBE263-.LBB263
 6818 20ae 01       		.byte	0x1
 6819 20af E1       		.byte	0xe1
 6820 20b0 D0200000 		.4byte	0x20d0
ARM GAS  C:\Users\seeho\AppData\Local\Temp\ccUkk7Dc.s 			page 173


 6821 20b4 37       		.uleb128 0x37
 6822 20b5 AC190000 		.4byte	0x19ac
 6823 20b9 8B010000 		.4byte	.LLST16
 6824 20bd 37       		.uleb128 0x37
 6825 20be A0190000 		.4byte	0x19a0
 6826 20c2 9F010000 		.4byte	.LLST17
 6827 20c6 37       		.uleb128 0x37
 6828 20c7 94190000 		.4byte	0x1994
 6829 20cb B3010000 		.4byte	.LLST18
 6830 20cf 00       		.byte	0
 6831 20d0 36       		.uleb128 0x36
 6832 20d1 87190000 		.4byte	0x1987
 6833 20d5 4C000000 		.4byte	.LBB265
 6834 20d9 04000000 		.4byte	.LBE265-.LBB265
 6835 20dd 01       		.byte	0x1
 6836 20de E2       		.byte	0xe2
 6837 20df FF200000 		.4byte	0x20ff
 6838 20e3 37       		.uleb128 0x37
 6839 20e4 AC190000 		.4byte	0x19ac
 6840 20e8 CB010000 		.4byte	.LLST19
 6841 20ec 37       		.uleb128 0x37
 6842 20ed A0190000 		.4byte	0x19a0
 6843 20f1 DF010000 		.4byte	.LLST20
 6844 20f5 37       		.uleb128 0x37
 6845 20f6 94190000 		.4byte	0x1994
 6846 20fa F3010000 		.4byte	.LLST21
 6847 20fe 00       		.byte	0
 6848 20ff 36       		.uleb128 0x36
 6849 2100 87190000 		.4byte	0x1987
 6850 2104 50000000 		.4byte	.LBB267
 6851 2108 04000000 		.4byte	.LBE267-.LBB267
 6852 210c 01       		.byte	0x1
 6853 210d E3       		.byte	0xe3
 6854 210e 2E210000 		.4byte	0x212e
 6855 2112 37       		.uleb128 0x37
 6856 2113 AC190000 		.4byte	0x19ac
 6857 2117 0B020000 		.4byte	.LLST22
 6858 211b 37       		.uleb128 0x37
 6859 211c A0190000 		.4byte	0x19a0
 6860 2120 1F020000 		.4byte	.LLST23
 6861 2124 37       		.uleb128 0x37
 6862 2125 94190000 		.4byte	0x1994
 6863 2129 33020000 		.4byte	.LLST24
 6864 212d 00       		.byte	0
 6865 212e 36       		.uleb128 0x36
 6866 212f 87190000 		.4byte	0x1987
 6867 2133 54000000 		.4byte	.LBB269
 6868 2137 06000000 		.4byte	.LBE269-.LBB269
 6869 213b 01       		.byte	0x1
 6870 213c E4       		.byte	0xe4
 6871 213d 5D210000 		.4byte	0x215d
 6872 2141 37       		.uleb128 0x37
 6873 2142 AC190000 		.4byte	0x19ac
 6874 2146 4B020000 		.4byte	.LLST25
 6875 214a 37       		.uleb128 0x37
 6876 214b A0190000 		.4byte	0x19a0
 6877 214f 4B020000 		.4byte	.LLST25
ARM GAS  C:\Users\seeho\AppData\Local\Temp\ccUkk7Dc.s 			page 174


 6878 2153 37       		.uleb128 0x37
 6879 2154 94190000 		.4byte	0x1994
 6880 2158 5F020000 		.4byte	.LLST27
 6881 215c 00       		.byte	0
 6882 215d 36       		.uleb128 0x36
 6883 215e 87190000 		.4byte	0x1987
 6884 2162 60000000 		.4byte	.LBB271
 6885 2166 06000000 		.4byte	.LBE271-.LBB271
 6886 216a 01       		.byte	0x1
 6887 216b E9       		.byte	0xe9
 6888 216c 8C210000 		.4byte	0x218c
 6889 2170 37       		.uleb128 0x37
 6890 2171 AC190000 		.4byte	0x19ac
 6891 2175 77020000 		.4byte	.LLST28
 6892 2179 37       		.uleb128 0x37
 6893 217a A0190000 		.4byte	0x19a0
 6894 217e 8B020000 		.4byte	.LLST29
 6895 2182 37       		.uleb128 0x37
 6896 2183 94190000 		.4byte	0x1994
 6897 2187 9F020000 		.4byte	.LLST30
 6898 218b 00       		.byte	0
 6899 218c 36       		.uleb128 0x36
 6900 218d 87190000 		.4byte	0x1987
 6901 2191 66000000 		.4byte	.LBB273
 6902 2195 04000000 		.4byte	.LBE273-.LBB273
 6903 2199 01       		.byte	0x1
 6904 219a EA       		.byte	0xea
 6905 219b BB210000 		.4byte	0x21bb
 6906 219f 37       		.uleb128 0x37
 6907 21a0 AC190000 		.4byte	0x19ac
 6908 21a4 B7020000 		.4byte	.LLST31
 6909 21a8 37       		.uleb128 0x37
 6910 21a9 A0190000 		.4byte	0x19a0
 6911 21ad CB020000 		.4byte	.LLST32
 6912 21b1 37       		.uleb128 0x37
 6913 21b2 94190000 		.4byte	0x1994
 6914 21b6 DF020000 		.4byte	.LLST33
 6915 21ba 00       		.byte	0
 6916 21bb 36       		.uleb128 0x36
 6917 21bc 87190000 		.4byte	0x1987
 6918 21c0 6A000000 		.4byte	.LBB275
 6919 21c4 04000000 		.4byte	.LBE275-.LBB275
 6920 21c8 01       		.byte	0x1
 6921 21c9 EB       		.byte	0xeb
 6922 21ca EA210000 		.4byte	0x21ea
 6923 21ce 37       		.uleb128 0x37
 6924 21cf AC190000 		.4byte	0x19ac
 6925 21d3 F7020000 		.4byte	.LLST34
 6926 21d7 37       		.uleb128 0x37
 6927 21d8 A0190000 		.4byte	0x19a0
 6928 21dc 0B030000 		.4byte	.LLST35
 6929 21e0 37       		.uleb128 0x37
 6930 21e1 94190000 		.4byte	0x1994
 6931 21e5 1F030000 		.4byte	.LLST36
 6932 21e9 00       		.byte	0
 6933 21ea 36       		.uleb128 0x36
 6934 21eb 87190000 		.4byte	0x1987
ARM GAS  C:\Users\seeho\AppData\Local\Temp\ccUkk7Dc.s 			page 175


 6935 21ef 6E000000 		.4byte	.LBB277
 6936 21f3 06000000 		.4byte	.LBE277-.LBB277
 6937 21f7 01       		.byte	0x1
 6938 21f8 EC       		.byte	0xec
 6939 21f9 19220000 		.4byte	0x2219
 6940 21fd 37       		.uleb128 0x37
 6941 21fe AC190000 		.4byte	0x19ac
 6942 2202 37030000 		.4byte	.LLST37
 6943 2206 37       		.uleb128 0x37
 6944 2207 A0190000 		.4byte	0x19a0
 6945 220b 37030000 		.4byte	.LLST37
 6946 220f 37       		.uleb128 0x37
 6947 2210 94190000 		.4byte	0x1994
 6948 2214 4B030000 		.4byte	.LLST39
 6949 2218 00       		.byte	0
 6950 2219 36       		.uleb128 0x36
 6951 221a 87190000 		.4byte	0x1987
 6952 221e 7A000000 		.4byte	.LBB279
 6953 2222 06000000 		.4byte	.LBE279-.LBB279
 6954 2226 01       		.byte	0x1
 6955 2227 F1       		.byte	0xf1
 6956 2228 48220000 		.4byte	0x2248
 6957 222c 37       		.uleb128 0x37
 6958 222d AC190000 		.4byte	0x19ac
 6959 2231 63030000 		.4byte	.LLST40
 6960 2235 37       		.uleb128 0x37
 6961 2236 A0190000 		.4byte	0x19a0
 6962 223a 77030000 		.4byte	.LLST41
 6963 223e 37       		.uleb128 0x37
 6964 223f 94190000 		.4byte	0x1994
 6965 2243 8B030000 		.4byte	.LLST42
 6966 2247 00       		.byte	0
 6967 2248 36       		.uleb128 0x36
 6968 2249 87190000 		.4byte	0x1987
 6969 224d 80000000 		.4byte	.LBB281
 6970 2251 04000000 		.4byte	.LBE281-.LBB281
 6971 2255 01       		.byte	0x1
 6972 2256 F2       		.byte	0xf2
 6973 2257 77220000 		.4byte	0x2277
 6974 225b 37       		.uleb128 0x37
 6975 225c AC190000 		.4byte	0x19ac
 6976 2260 A3030000 		.4byte	.LLST43
 6977 2264 37       		.uleb128 0x37
 6978 2265 A0190000 		.4byte	0x19a0
 6979 2269 B7030000 		.4byte	.LLST44
 6980 226d 37       		.uleb128 0x37
 6981 226e 94190000 		.4byte	0x1994
 6982 2272 CB030000 		.4byte	.LLST45
 6983 2276 00       		.byte	0
 6984 2277 36       		.uleb128 0x36
 6985 2278 87190000 		.4byte	0x1987
 6986 227c 84000000 		.4byte	.LBB283
 6987 2280 04000000 		.4byte	.LBE283-.LBB283
 6988 2284 01       		.byte	0x1
 6989 2285 F3       		.byte	0xf3
 6990 2286 A6220000 		.4byte	0x22a6
 6991 228a 37       		.uleb128 0x37
ARM GAS  C:\Users\seeho\AppData\Local\Temp\ccUkk7Dc.s 			page 176


 6992 228b AC190000 		.4byte	0x19ac
 6993 228f E3030000 		.4byte	.LLST46
 6994 2293 37       		.uleb128 0x37
 6995 2294 A0190000 		.4byte	0x19a0
 6996 2298 F7030000 		.4byte	.LLST47
 6997 229c 37       		.uleb128 0x37
 6998 229d 94190000 		.4byte	0x1994
 6999 22a1 0B040000 		.4byte	.LLST48
 7000 22a5 00       		.byte	0
 7001 22a6 36       		.uleb128 0x36
 7002 22a7 87190000 		.4byte	0x1987
 7003 22ab 88000000 		.4byte	.LBB285
 7004 22af 06000000 		.4byte	.LBE285-.LBB285
 7005 22b3 01       		.byte	0x1
 7006 22b4 F4       		.byte	0xf4
 7007 22b5 D5220000 		.4byte	0x22d5
 7008 22b9 37       		.uleb128 0x37
 7009 22ba AC190000 		.4byte	0x19ac
 7010 22be 23040000 		.4byte	.LLST49
 7011 22c2 37       		.uleb128 0x37
 7012 22c3 A0190000 		.4byte	0x19a0
 7013 22c7 23040000 		.4byte	.LLST49
 7014 22cb 37       		.uleb128 0x37
 7015 22cc 94190000 		.4byte	0x1994
 7016 22d0 37040000 		.4byte	.LLST51
 7017 22d4 00       		.byte	0
 7018 22d5 36       		.uleb128 0x36
 7019 22d6 87190000 		.4byte	0x1987
 7020 22da 94000000 		.4byte	.LBB287
 7021 22de 06000000 		.4byte	.LBE287-.LBB287
 7022 22e2 01       		.byte	0x1
 7023 22e3 F9       		.byte	0xf9
 7024 22e4 04230000 		.4byte	0x2304
 7025 22e8 37       		.uleb128 0x37
 7026 22e9 AC190000 		.4byte	0x19ac
 7027 22ed 4F040000 		.4byte	.LLST52
 7028 22f1 37       		.uleb128 0x37
 7029 22f2 A0190000 		.4byte	0x19a0
 7030 22f6 63040000 		.4byte	.LLST53
 7031 22fa 37       		.uleb128 0x37
 7032 22fb 94190000 		.4byte	0x1994
 7033 22ff 77040000 		.4byte	.LLST54
 7034 2303 00       		.byte	0
 7035 2304 36       		.uleb128 0x36
 7036 2305 87190000 		.4byte	0x1987
 7037 2309 9A000000 		.4byte	.LBB289
 7038 230d 04000000 		.4byte	.LBE289-.LBB289
 7039 2311 01       		.byte	0x1
 7040 2312 FA       		.byte	0xfa
 7041 2313 33230000 		.4byte	0x2333
 7042 2317 37       		.uleb128 0x37
 7043 2318 AC190000 		.4byte	0x19ac
 7044 231c 8F040000 		.4byte	.LLST55
 7045 2320 37       		.uleb128 0x37
 7046 2321 A0190000 		.4byte	0x19a0
 7047 2325 A3040000 		.4byte	.LLST56
 7048 2329 37       		.uleb128 0x37
ARM GAS  C:\Users\seeho\AppData\Local\Temp\ccUkk7Dc.s 			page 177


 7049 232a 94190000 		.4byte	0x1994
 7050 232e B7040000 		.4byte	.LLST57
 7051 2332 00       		.byte	0
 7052 2333 36       		.uleb128 0x36
 7053 2334 87190000 		.4byte	0x1987
 7054 2338 9E000000 		.4byte	.LBB291
 7055 233c 04000000 		.4byte	.LBE291-.LBB291
 7056 2340 01       		.byte	0x1
 7057 2341 FB       		.byte	0xfb
 7058 2342 62230000 		.4byte	0x2362
 7059 2346 37       		.uleb128 0x37
 7060 2347 AC190000 		.4byte	0x19ac
 7061 234b CF040000 		.4byte	.LLST58
 7062 234f 37       		.uleb128 0x37
 7063 2350 A0190000 		.4byte	0x19a0
 7064 2354 CF040000 		.4byte	.LLST58
 7065 2358 37       		.uleb128 0x37
 7066 2359 94190000 		.4byte	0x1994
 7067 235d E3040000 		.4byte	.LLST60
 7068 2361 00       		.byte	0
 7069 2362 36       		.uleb128 0x36
 7070 2363 87190000 		.4byte	0x1987
 7071 2367 A2000000 		.4byte	.LBB293
 7072 236b 06000000 		.4byte	.LBE293-.LBB293
 7073 236f 01       		.byte	0x1
 7074 2370 FC       		.byte	0xfc
 7075 2371 91230000 		.4byte	0x2391
 7076 2375 37       		.uleb128 0x37
 7077 2376 AC190000 		.4byte	0x19ac
 7078 237a FB040000 		.4byte	.LLST61
 7079 237e 37       		.uleb128 0x37
 7080 237f A0190000 		.4byte	0x19a0
 7081 2383 FB040000 		.4byte	.LLST61
 7082 2387 37       		.uleb128 0x37
 7083 2388 94190000 		.4byte	0x1994
 7084 238c 0F050000 		.4byte	.LLST63
 7085 2390 00       		.byte	0
 7086 2391 38       		.uleb128 0x38
 7087 2392 87190000 		.4byte	0x1987
 7088 2396 AE000000 		.4byte	.LBB295
 7089 239a 06000000 		.4byte	.LBE295-.LBB295
 7090 239e 01       		.byte	0x1
 7091 239f 0101     		.2byte	0x101
 7092 23a1 C1230000 		.4byte	0x23c1
 7093 23a5 37       		.uleb128 0x37
 7094 23a6 AC190000 		.4byte	0x19ac
 7095 23aa 27050000 		.4byte	.LLST64
 7096 23ae 37       		.uleb128 0x37
 7097 23af A0190000 		.4byte	0x19a0
 7098 23b3 3B050000 		.4byte	.LLST65
 7099 23b7 37       		.uleb128 0x37
 7100 23b8 94190000 		.4byte	0x1994
 7101 23bc 4F050000 		.4byte	.LLST66
 7102 23c0 00       		.byte	0
 7103 23c1 38       		.uleb128 0x38
 7104 23c2 87190000 		.4byte	0x1987
 7105 23c6 B4000000 		.4byte	.LBB297
ARM GAS  C:\Users\seeho\AppData\Local\Temp\ccUkk7Dc.s 			page 178


 7106 23ca 04000000 		.4byte	.LBE297-.LBB297
 7107 23ce 01       		.byte	0x1
 7108 23cf 0201     		.2byte	0x102
 7109 23d1 F1230000 		.4byte	0x23f1
 7110 23d5 37       		.uleb128 0x37
 7111 23d6 AC190000 		.4byte	0x19ac
 7112 23da 67050000 		.4byte	.LLST67
 7113 23de 37       		.uleb128 0x37
 7114 23df A0190000 		.4byte	0x19a0
 7115 23e3 7B050000 		.4byte	.LLST68
 7116 23e7 37       		.uleb128 0x37
 7117 23e8 94190000 		.4byte	0x1994
 7118 23ec 8F050000 		.4byte	.LLST69
 7119 23f0 00       		.byte	0
 7120 23f1 38       		.uleb128 0x38
 7121 23f2 87190000 		.4byte	0x1987
 7122 23f6 B8000000 		.4byte	.LBB299
 7123 23fa 04000000 		.4byte	.LBE299-.LBB299
 7124 23fe 01       		.byte	0x1
 7125 23ff 0301     		.2byte	0x103
 7126 2401 21240000 		.4byte	0x2421
 7127 2405 37       		.uleb128 0x37
 7128 2406 AC190000 		.4byte	0x19ac
 7129 240a A7050000 		.4byte	.LLST70
 7130 240e 37       		.uleb128 0x37
 7131 240f A0190000 		.4byte	0x19a0
 7132 2413 A7050000 		.4byte	.LLST70
 7133 2417 37       		.uleb128 0x37
 7134 2418 94190000 		.4byte	0x1994
 7135 241c BB050000 		.4byte	.LLST72
 7136 2420 00       		.byte	0
 7137 2421 38       		.uleb128 0x38
 7138 2422 87190000 		.4byte	0x1987
 7139 2426 BC000000 		.4byte	.LBB301
 7140 242a 06000000 		.4byte	.LBE301-.LBB301
 7141 242e 01       		.byte	0x1
 7142 242f 0401     		.2byte	0x104
 7143 2431 51240000 		.4byte	0x2451
 7144 2435 37       		.uleb128 0x37
 7145 2436 AC190000 		.4byte	0x19ac
 7146 243a D3050000 		.4byte	.LLST73
 7147 243e 37       		.uleb128 0x37
 7148 243f A0190000 		.4byte	0x19a0
 7149 2443 D3050000 		.4byte	.LLST73
 7150 2447 37       		.uleb128 0x37
 7151 2448 94190000 		.4byte	0x1994
 7152 244c E7050000 		.4byte	.LLST75
 7153 2450 00       		.byte	0
 7154 2451 38       		.uleb128 0x38
 7155 2452 87190000 		.4byte	0x1987
 7156 2456 C8000000 		.4byte	.LBB303
 7157 245a 06000000 		.4byte	.LBE303-.LBB303
 7158 245e 01       		.byte	0x1
 7159 245f 0901     		.2byte	0x109
 7160 2461 81240000 		.4byte	0x2481
 7161 2465 37       		.uleb128 0x37
 7162 2466 AC190000 		.4byte	0x19ac
ARM GAS  C:\Users\seeho\AppData\Local\Temp\ccUkk7Dc.s 			page 179


 7163 246a FF050000 		.4byte	.LLST76
 7164 246e 37       		.uleb128 0x37
 7165 246f A0190000 		.4byte	0x19a0
 7166 2473 13060000 		.4byte	.LLST77
 7167 2477 37       		.uleb128 0x37
 7168 2478 94190000 		.4byte	0x1994
 7169 247c 27060000 		.4byte	.LLST78
 7170 2480 00       		.byte	0
 7171 2481 38       		.uleb128 0x38
 7172 2482 87190000 		.4byte	0x1987
 7173 2486 CE000000 		.4byte	.LBB305
 7174 248a 04000000 		.4byte	.LBE305-.LBB305
 7175 248e 01       		.byte	0x1
 7176 248f 0A01     		.2byte	0x10a
 7177 2491 B1240000 		.4byte	0x24b1
 7178 2495 37       		.uleb128 0x37
 7179 2496 AC190000 		.4byte	0x19ac
 7180 249a 3F060000 		.4byte	.LLST79
 7181 249e 37       		.uleb128 0x37
 7182 249f A0190000 		.4byte	0x19a0
 7183 24a3 53060000 		.4byte	.LLST80
 7184 24a7 37       		.uleb128 0x37
 7185 24a8 94190000 		.4byte	0x1994
 7186 24ac 67060000 		.4byte	.LLST81
 7187 24b0 00       		.byte	0
 7188 24b1 38       		.uleb128 0x38
 7189 24b2 87190000 		.4byte	0x1987
 7190 24b6 D2000000 		.4byte	.LBB307
 7191 24ba 04000000 		.4byte	.LBE307-.LBB307
 7192 24be 01       		.byte	0x1
 7193 24bf 0B01     		.2byte	0x10b
 7194 24c1 E1240000 		.4byte	0x24e1
 7195 24c5 37       		.uleb128 0x37
 7196 24c6 AC190000 		.4byte	0x19ac
 7197 24ca 7F060000 		.4byte	.LLST82
 7198 24ce 37       		.uleb128 0x37
 7199 24cf A0190000 		.4byte	0x19a0
 7200 24d3 7F060000 		.4byte	.LLST82
 7201 24d7 37       		.uleb128 0x37
 7202 24d8 94190000 		.4byte	0x1994
 7203 24dc 93060000 		.4byte	.LLST84
 7204 24e0 00       		.byte	0
 7205 24e1 38       		.uleb128 0x38
 7206 24e2 87190000 		.4byte	0x1987
 7207 24e6 D6000000 		.4byte	.LBB309
 7208 24ea 06000000 		.4byte	.LBE309-.LBB309
 7209 24ee 01       		.byte	0x1
 7210 24ef 0C01     		.2byte	0x10c
 7211 24f1 11250000 		.4byte	0x2511
 7212 24f5 37       		.uleb128 0x37
 7213 24f6 AC190000 		.4byte	0x19ac
 7214 24fa AB060000 		.4byte	.LLST85
 7215 24fe 37       		.uleb128 0x37
 7216 24ff A0190000 		.4byte	0x19a0
 7217 2503 AB060000 		.4byte	.LLST85
 7218 2507 37       		.uleb128 0x37
 7219 2508 94190000 		.4byte	0x1994
ARM GAS  C:\Users\seeho\AppData\Local\Temp\ccUkk7Dc.s 			page 180


 7220 250c BF060000 		.4byte	.LLST87
 7221 2510 00       		.byte	0
 7222 2511 38       		.uleb128 0x38
 7223 2512 87190000 		.4byte	0x1987
 7224 2516 E2000000 		.4byte	.LBB311
 7225 251a 06000000 		.4byte	.LBE311-.LBB311
 7226 251e 01       		.byte	0x1
 7227 251f 1101     		.2byte	0x111
 7228 2521 41250000 		.4byte	0x2541
 7229 2525 37       		.uleb128 0x37
 7230 2526 AC190000 		.4byte	0x19ac
 7231 252a D7060000 		.4byte	.LLST88
 7232 252e 37       		.uleb128 0x37
 7233 252f A0190000 		.4byte	0x19a0
 7234 2533 EB060000 		.4byte	.LLST89
 7235 2537 37       		.uleb128 0x37
 7236 2538 94190000 		.4byte	0x1994
 7237 253c FF060000 		.4byte	.LLST90
 7238 2540 00       		.byte	0
 7239 2541 38       		.uleb128 0x38
 7240 2542 87190000 		.4byte	0x1987
 7241 2546 E8000000 		.4byte	.LBB313
 7242 254a 04000000 		.4byte	.LBE313-.LBB313
 7243 254e 01       		.byte	0x1
 7244 254f 1201     		.2byte	0x112
 7245 2551 71250000 		.4byte	0x2571
 7246 2555 37       		.uleb128 0x37
 7247 2556 AC190000 		.4byte	0x19ac
 7248 255a 17070000 		.4byte	.LLST91
 7249 255e 37       		.uleb128 0x37
 7250 255f A0190000 		.4byte	0x19a0
 7251 2563 2B070000 		.4byte	.LLST92
 7252 2567 37       		.uleb128 0x37
 7253 2568 94190000 		.4byte	0x1994
 7254 256c 3F070000 		.4byte	.LLST93
 7255 2570 00       		.byte	0
 7256 2571 38       		.uleb128 0x38
 7257 2572 87190000 		.4byte	0x1987
 7258 2576 EC000000 		.4byte	.LBB315
 7259 257a 04000000 		.4byte	.LBE315-.LBB315
 7260 257e 01       		.byte	0x1
 7261 257f 1301     		.2byte	0x113
 7262 2581 A1250000 		.4byte	0x25a1
 7263 2585 37       		.uleb128 0x37
 7264 2586 AC190000 		.4byte	0x19ac
 7265 258a 57070000 		.4byte	.LLST94
 7266 258e 37       		.uleb128 0x37
 7267 258f A0190000 		.4byte	0x19a0
 7268 2593 57070000 		.4byte	.LLST94
 7269 2597 37       		.uleb128 0x37
 7270 2598 94190000 		.4byte	0x1994
 7271 259c 6B070000 		.4byte	.LLST96
 7272 25a0 00       		.byte	0
 7273 25a1 38       		.uleb128 0x38
 7274 25a2 87190000 		.4byte	0x1987
 7275 25a6 F0000000 		.4byte	.LBB317
 7276 25aa 06000000 		.4byte	.LBE317-.LBB317
ARM GAS  C:\Users\seeho\AppData\Local\Temp\ccUkk7Dc.s 			page 181


 7277 25ae 01       		.byte	0x1
 7278 25af 1401     		.2byte	0x114
 7279 25b1 D1250000 		.4byte	0x25d1
 7280 25b5 37       		.uleb128 0x37
 7281 25b6 AC190000 		.4byte	0x19ac
 7282 25ba 83070000 		.4byte	.LLST97
 7283 25be 37       		.uleb128 0x37
 7284 25bf A0190000 		.4byte	0x19a0
 7285 25c3 83070000 		.4byte	.LLST97
 7286 25c7 37       		.uleb128 0x37
 7287 25c8 94190000 		.4byte	0x1994
 7288 25cc 97070000 		.4byte	.LLST99
 7289 25d0 00       		.byte	0
 7290 25d1 38       		.uleb128 0x38
 7291 25d2 87190000 		.4byte	0x1987
 7292 25d6 FC000000 		.4byte	.LBB319
 7293 25da 06000000 		.4byte	.LBE319-.LBB319
 7294 25de 01       		.byte	0x1
 7295 25df 1901     		.2byte	0x119
 7296 25e1 01260000 		.4byte	0x2601
 7297 25e5 37       		.uleb128 0x37
 7298 25e6 AC190000 		.4byte	0x19ac
 7299 25ea AF070000 		.4byte	.LLST100
 7300 25ee 37       		.uleb128 0x37
 7301 25ef A0190000 		.4byte	0x19a0
 7302 25f3 C3070000 		.4byte	.LLST101
 7303 25f7 37       		.uleb128 0x37
 7304 25f8 94190000 		.4byte	0x1994
 7305 25fc D7070000 		.4byte	.LLST102
 7306 2600 00       		.byte	0
 7307 2601 38       		.uleb128 0x38
 7308 2602 87190000 		.4byte	0x1987
 7309 2606 02010000 		.4byte	.LBB321
 7310 260a 04000000 		.4byte	.LBE321-.LBB321
 7311 260e 01       		.byte	0x1
 7312 260f 1A01     		.2byte	0x11a
 7313 2611 31260000 		.4byte	0x2631
 7314 2615 37       		.uleb128 0x37
 7315 2616 AC190000 		.4byte	0x19ac
 7316 261a EF070000 		.4byte	.LLST103
 7317 261e 37       		.uleb128 0x37
 7318 261f A0190000 		.4byte	0x19a0
 7319 2623 03080000 		.4byte	.LLST104
 7320 2627 37       		.uleb128 0x37
 7321 2628 94190000 		.4byte	0x1994
 7322 262c 17080000 		.4byte	.LLST105
 7323 2630 00       		.byte	0
 7324 2631 38       		.uleb128 0x38
 7325 2632 87190000 		.4byte	0x1987
 7326 2636 06010000 		.4byte	.LBB323
 7327 263a 04000000 		.4byte	.LBE323-.LBB323
 7328 263e 01       		.byte	0x1
 7329 263f 1B01     		.2byte	0x11b
 7330 2641 61260000 		.4byte	0x2661
 7331 2645 37       		.uleb128 0x37
 7332 2646 AC190000 		.4byte	0x19ac
 7333 264a 2F080000 		.4byte	.LLST106
ARM GAS  C:\Users\seeho\AppData\Local\Temp\ccUkk7Dc.s 			page 182


 7334 264e 37       		.uleb128 0x37
 7335 264f A0190000 		.4byte	0x19a0
 7336 2653 43080000 		.4byte	.LLST107
 7337 2657 37       		.uleb128 0x37
 7338 2658 94190000 		.4byte	0x1994
 7339 265c 57080000 		.4byte	.LLST108
 7340 2660 00       		.byte	0
 7341 2661 38       		.uleb128 0x38
 7342 2662 87190000 		.4byte	0x1987
 7343 2666 0A010000 		.4byte	.LBB325
 7344 266a 06000000 		.4byte	.LBE325-.LBB325
 7345 266e 01       		.byte	0x1
 7346 266f 1C01     		.2byte	0x11c
 7347 2671 91260000 		.4byte	0x2691
 7348 2675 37       		.uleb128 0x37
 7349 2676 AC190000 		.4byte	0x19ac
 7350 267a 6F080000 		.4byte	.LLST109
 7351 267e 37       		.uleb128 0x37
 7352 267f A0190000 		.4byte	0x19a0
 7353 2683 83080000 		.4byte	.LLST110
 7354 2687 37       		.uleb128 0x37
 7355 2688 94190000 		.4byte	0x1994
 7356 268c 97080000 		.4byte	.LLST111
 7357 2690 00       		.byte	0
 7358 2691 38       		.uleb128 0x38
 7359 2692 87190000 		.4byte	0x1987
 7360 2696 16010000 		.4byte	.LBB327
 7361 269a 06000000 		.4byte	.LBE327-.LBB327
 7362 269e 01       		.byte	0x1
 7363 269f 2101     		.2byte	0x121
 7364 26a1 C1260000 		.4byte	0x26c1
 7365 26a5 37       		.uleb128 0x37
 7366 26a6 AC190000 		.4byte	0x19ac
 7367 26aa AF080000 		.4byte	.LLST112
 7368 26ae 37       		.uleb128 0x37
 7369 26af A0190000 		.4byte	0x19a0
 7370 26b3 C3080000 		.4byte	.LLST113
 7371 26b7 37       		.uleb128 0x37
 7372 26b8 94190000 		.4byte	0x1994
 7373 26bc D7080000 		.4byte	.LLST114
 7374 26c0 00       		.byte	0
 7375 26c1 38       		.uleb128 0x38
 7376 26c2 87190000 		.4byte	0x1987
 7377 26c6 1C010000 		.4byte	.LBB329
 7378 26ca 04000000 		.4byte	.LBE329-.LBB329
 7379 26ce 01       		.byte	0x1
 7380 26cf 2201     		.2byte	0x122
 7381 26d1 F1260000 		.4byte	0x26f1
 7382 26d5 37       		.uleb128 0x37
 7383 26d6 AC190000 		.4byte	0x19ac
 7384 26da EF080000 		.4byte	.LLST115
 7385 26de 37       		.uleb128 0x37
 7386 26df A0190000 		.4byte	0x19a0
 7387 26e3 03090000 		.4byte	.LLST116
 7388 26e7 37       		.uleb128 0x37
 7389 26e8 94190000 		.4byte	0x1994
 7390 26ec 17090000 		.4byte	.LLST117
ARM GAS  C:\Users\seeho\AppData\Local\Temp\ccUkk7Dc.s 			page 183


 7391 26f0 00       		.byte	0
 7392 26f1 38       		.uleb128 0x38
 7393 26f2 87190000 		.4byte	0x1987
 7394 26f6 20010000 		.4byte	.LBB331
 7395 26fa 04000000 		.4byte	.LBE331-.LBB331
 7396 26fe 01       		.byte	0x1
 7397 26ff 2301     		.2byte	0x123
 7398 2701 21270000 		.4byte	0x2721
 7399 2705 37       		.uleb128 0x37
 7400 2706 AC190000 		.4byte	0x19ac
 7401 270a 2F090000 		.4byte	.LLST118
 7402 270e 37       		.uleb128 0x37
 7403 270f A0190000 		.4byte	0x19a0
 7404 2713 43090000 		.4byte	.LLST119
 7405 2717 37       		.uleb128 0x37
 7406 2718 94190000 		.4byte	0x1994
 7407 271c 57090000 		.4byte	.LLST120
 7408 2720 00       		.byte	0
 7409 2721 38       		.uleb128 0x38
 7410 2722 87190000 		.4byte	0x1987
 7411 2726 24010000 		.4byte	.LBB333
 7412 272a 06000000 		.4byte	.LBE333-.LBB333
 7413 272e 01       		.byte	0x1
 7414 272f 2401     		.2byte	0x124
 7415 2731 51270000 		.4byte	0x2751
 7416 2735 37       		.uleb128 0x37
 7417 2736 AC190000 		.4byte	0x19ac
 7418 273a 6F090000 		.4byte	.LLST121
 7419 273e 37       		.uleb128 0x37
 7420 273f A0190000 		.4byte	0x19a0
 7421 2743 83090000 		.4byte	.LLST122
 7422 2747 37       		.uleb128 0x37
 7423 2748 94190000 		.4byte	0x1994
 7424 274c 97090000 		.4byte	.LLST123
 7425 2750 00       		.byte	0
 7426 2751 38       		.uleb128 0x38
 7427 2752 87190000 		.4byte	0x1987
 7428 2756 30010000 		.4byte	.LBB335
 7429 275a 06000000 		.4byte	.LBE335-.LBB335
 7430 275e 01       		.byte	0x1
 7431 275f 2901     		.2byte	0x129
 7432 2761 81270000 		.4byte	0x2781
 7433 2765 37       		.uleb128 0x37
 7434 2766 AC190000 		.4byte	0x19ac
 7435 276a AF090000 		.4byte	.LLST124
 7436 276e 37       		.uleb128 0x37
 7437 276f A0190000 		.4byte	0x19a0
 7438 2773 C3090000 		.4byte	.LLST125
 7439 2777 37       		.uleb128 0x37
 7440 2778 94190000 		.4byte	0x1994
 7441 277c D7090000 		.4byte	.LLST126
 7442 2780 00       		.byte	0
 7443 2781 38       		.uleb128 0x38
 7444 2782 87190000 		.4byte	0x1987
 7445 2786 36010000 		.4byte	.LBB337
 7446 278a 04000000 		.4byte	.LBE337-.LBB337
 7447 278e 01       		.byte	0x1
ARM GAS  C:\Users\seeho\AppData\Local\Temp\ccUkk7Dc.s 			page 184


 7448 278f 2A01     		.2byte	0x12a
 7449 2791 B1270000 		.4byte	0x27b1
 7450 2795 37       		.uleb128 0x37
 7451 2796 AC190000 		.4byte	0x19ac
 7452 279a EF090000 		.4byte	.LLST127
 7453 279e 37       		.uleb128 0x37
 7454 279f A0190000 		.4byte	0x19a0
 7455 27a3 030A0000 		.4byte	.LLST128
 7456 27a7 37       		.uleb128 0x37
 7457 27a8 94190000 		.4byte	0x1994
 7458 27ac 170A0000 		.4byte	.LLST129
 7459 27b0 00       		.byte	0
 7460 27b1 38       		.uleb128 0x38
 7461 27b2 87190000 		.4byte	0x1987
 7462 27b6 3A010000 		.4byte	.LBB339
 7463 27ba 04000000 		.4byte	.LBE339-.LBB339
 7464 27be 01       		.byte	0x1
 7465 27bf 2B01     		.2byte	0x12b
 7466 27c1 E1270000 		.4byte	0x27e1
 7467 27c5 37       		.uleb128 0x37
 7468 27c6 AC190000 		.4byte	0x19ac
 7469 27ca 2F0A0000 		.4byte	.LLST130
 7470 27ce 37       		.uleb128 0x37
 7471 27cf A0190000 		.4byte	0x19a0
 7472 27d3 430A0000 		.4byte	.LLST131
 7473 27d7 37       		.uleb128 0x37
 7474 27d8 94190000 		.4byte	0x1994
 7475 27dc 570A0000 		.4byte	.LLST132
 7476 27e0 00       		.byte	0
 7477 27e1 38       		.uleb128 0x38
 7478 27e2 87190000 		.4byte	0x1987
 7479 27e6 3E010000 		.4byte	.LBB341
 7480 27ea 06000000 		.4byte	.LBE341-.LBB341
 7481 27ee 01       		.byte	0x1
 7482 27ef 2C01     		.2byte	0x12c
 7483 27f1 11280000 		.4byte	0x2811
 7484 27f5 37       		.uleb128 0x37
 7485 27f6 AC190000 		.4byte	0x19ac
 7486 27fa 6F0A0000 		.4byte	.LLST133
 7487 27fe 37       		.uleb128 0x37
 7488 27ff A0190000 		.4byte	0x19a0
 7489 2803 830A0000 		.4byte	.LLST134
 7490 2807 37       		.uleb128 0x37
 7491 2808 94190000 		.4byte	0x1994
 7492 280c 970A0000 		.4byte	.LLST135
 7493 2810 00       		.byte	0
 7494 2811 38       		.uleb128 0x38
 7495 2812 87190000 		.4byte	0x1987
 7496 2816 4A010000 		.4byte	.LBB343
 7497 281a 06000000 		.4byte	.LBE343-.LBB343
 7498 281e 01       		.byte	0x1
 7499 281f 3101     		.2byte	0x131
 7500 2821 41280000 		.4byte	0x2841
 7501 2825 37       		.uleb128 0x37
 7502 2826 AC190000 		.4byte	0x19ac
 7503 282a AF0A0000 		.4byte	.LLST136
 7504 282e 37       		.uleb128 0x37
ARM GAS  C:\Users\seeho\AppData\Local\Temp\ccUkk7Dc.s 			page 185


 7505 282f A0190000 		.4byte	0x19a0
 7506 2833 C30A0000 		.4byte	.LLST137
 7507 2837 37       		.uleb128 0x37
 7508 2838 94190000 		.4byte	0x1994
 7509 283c D70A0000 		.4byte	.LLST138
 7510 2840 00       		.byte	0
 7511 2841 38       		.uleb128 0x38
 7512 2842 87190000 		.4byte	0x1987
 7513 2846 50010000 		.4byte	.LBB345
 7514 284a 04000000 		.4byte	.LBE345-.LBB345
 7515 284e 01       		.byte	0x1
 7516 284f 3201     		.2byte	0x132
 7517 2851 71280000 		.4byte	0x2871
 7518 2855 37       		.uleb128 0x37
 7519 2856 AC190000 		.4byte	0x19ac
 7520 285a EF0A0000 		.4byte	.LLST139
 7521 285e 37       		.uleb128 0x37
 7522 285f A0190000 		.4byte	0x19a0
 7523 2863 030B0000 		.4byte	.LLST140
 7524 2867 37       		.uleb128 0x37
 7525 2868 94190000 		.4byte	0x1994
 7526 286c 170B0000 		.4byte	.LLST141
 7527 2870 00       		.byte	0
 7528 2871 38       		.uleb128 0x38
 7529 2872 87190000 		.4byte	0x1987
 7530 2876 54010000 		.4byte	.LBB347
 7531 287a 04000000 		.4byte	.LBE347-.LBB347
 7532 287e 01       		.byte	0x1
 7533 287f 3301     		.2byte	0x133
 7534 2881 A1280000 		.4byte	0x28a1
 7535 2885 37       		.uleb128 0x37
 7536 2886 AC190000 		.4byte	0x19ac
 7537 288a 2F0B0000 		.4byte	.LLST142
 7538 288e 37       		.uleb128 0x37
 7539 288f A0190000 		.4byte	0x19a0
 7540 2893 430B0000 		.4byte	.LLST143
 7541 2897 37       		.uleb128 0x37
 7542 2898 94190000 		.4byte	0x1994
 7543 289c 570B0000 		.4byte	.LLST144
 7544 28a0 00       		.byte	0
 7545 28a1 38       		.uleb128 0x38
 7546 28a2 87190000 		.4byte	0x1987
 7547 28a6 58010000 		.4byte	.LBB349
 7548 28aa 06000000 		.4byte	.LBE349-.LBB349
 7549 28ae 01       		.byte	0x1
 7550 28af 3401     		.2byte	0x134
 7551 28b1 D1280000 		.4byte	0x28d1
 7552 28b5 37       		.uleb128 0x37
 7553 28b6 AC190000 		.4byte	0x19ac
 7554 28ba 6F0B0000 		.4byte	.LLST145
 7555 28be 37       		.uleb128 0x37
 7556 28bf A0190000 		.4byte	0x19a0
 7557 28c3 830B0000 		.4byte	.LLST146
 7558 28c7 37       		.uleb128 0x37
 7559 28c8 94190000 		.4byte	0x1994
 7560 28cc 970B0000 		.4byte	.LLST147
 7561 28d0 00       		.byte	0
ARM GAS  C:\Users\seeho\AppData\Local\Temp\ccUkk7Dc.s 			page 186


 7562 28d1 38       		.uleb128 0x38
 7563 28d2 87190000 		.4byte	0x1987
 7564 28d6 64010000 		.4byte	.LBB351
 7565 28da 06000000 		.4byte	.LBE351-.LBB351
 7566 28de 01       		.byte	0x1
 7567 28df 3901     		.2byte	0x139
 7568 28e1 01290000 		.4byte	0x2901
 7569 28e5 37       		.uleb128 0x37
 7570 28e6 AC190000 		.4byte	0x19ac
 7571 28ea AF0B0000 		.4byte	.LLST148
 7572 28ee 37       		.uleb128 0x37
 7573 28ef A0190000 		.4byte	0x19a0
 7574 28f3 C30B0000 		.4byte	.LLST149
 7575 28f7 37       		.uleb128 0x37
 7576 28f8 94190000 		.4byte	0x1994
 7577 28fc D70B0000 		.4byte	.LLST150
 7578 2900 00       		.byte	0
 7579 2901 38       		.uleb128 0x38
 7580 2902 87190000 		.4byte	0x1987
 7581 2906 6A010000 		.4byte	.LBB353
 7582 290a 04000000 		.4byte	.LBE353-.LBB353
 7583 290e 01       		.byte	0x1
 7584 290f 3A01     		.2byte	0x13a
 7585 2911 31290000 		.4byte	0x2931
 7586 2915 37       		.uleb128 0x37
 7587 2916 AC190000 		.4byte	0x19ac
 7588 291a EF0B0000 		.4byte	.LLST151
 7589 291e 37       		.uleb128 0x37
 7590 291f A0190000 		.4byte	0x19a0
 7591 2923 030C0000 		.4byte	.LLST152
 7592 2927 37       		.uleb128 0x37
 7593 2928 94190000 		.4byte	0x1994
 7594 292c 170C0000 		.4byte	.LLST153
 7595 2930 00       		.byte	0
 7596 2931 38       		.uleb128 0x38
 7597 2932 87190000 		.4byte	0x1987
 7598 2936 6E010000 		.4byte	.LBB355
 7599 293a 04000000 		.4byte	.LBE355-.LBB355
 7600 293e 01       		.byte	0x1
 7601 293f 3B01     		.2byte	0x13b
 7602 2941 61290000 		.4byte	0x2961
 7603 2945 37       		.uleb128 0x37
 7604 2946 AC190000 		.4byte	0x19ac
 7605 294a 2F0C0000 		.4byte	.LLST154
 7606 294e 37       		.uleb128 0x37
 7607 294f A0190000 		.4byte	0x19a0
 7608 2953 2F0C0000 		.4byte	.LLST154
 7609 2957 37       		.uleb128 0x37
 7610 2958 94190000 		.4byte	0x1994
 7611 295c 430C0000 		.4byte	.LLST156
 7612 2960 00       		.byte	0
 7613 2961 38       		.uleb128 0x38
 7614 2962 87190000 		.4byte	0x1987
 7615 2966 72010000 		.4byte	.LBB357
 7616 296a 06000000 		.4byte	.LBE357-.LBB357
 7617 296e 01       		.byte	0x1
 7618 296f 3C01     		.2byte	0x13c
ARM GAS  C:\Users\seeho\AppData\Local\Temp\ccUkk7Dc.s 			page 187


 7619 2971 91290000 		.4byte	0x2991
 7620 2975 37       		.uleb128 0x37
 7621 2976 AC190000 		.4byte	0x19ac
 7622 297a 5B0C0000 		.4byte	.LLST157
 7623 297e 37       		.uleb128 0x37
 7624 297f A0190000 		.4byte	0x19a0
 7625 2983 6F0C0000 		.4byte	.LLST158
 7626 2987 37       		.uleb128 0x37
 7627 2988 94190000 		.4byte	0x1994
 7628 298c 830C0000 		.4byte	.LLST159
 7629 2990 00       		.byte	0
 7630 2991 38       		.uleb128 0x38
 7631 2992 87190000 		.4byte	0x1987
 7632 2996 7E010000 		.4byte	.LBB359
 7633 299a 06000000 		.4byte	.LBE359-.LBB359
 7634 299e 01       		.byte	0x1
 7635 299f 4101     		.2byte	0x141
 7636 29a1 C1290000 		.4byte	0x29c1
 7637 29a5 37       		.uleb128 0x37
 7638 29a6 AC190000 		.4byte	0x19ac
 7639 29aa 9B0C0000 		.4byte	.LLST160
 7640 29ae 37       		.uleb128 0x37
 7641 29af A0190000 		.4byte	0x19a0
 7642 29b3 AF0C0000 		.4byte	.LLST161
 7643 29b7 37       		.uleb128 0x37
 7644 29b8 94190000 		.4byte	0x1994
 7645 29bc C30C0000 		.4byte	.LLST162
 7646 29c0 00       		.byte	0
 7647 29c1 38       		.uleb128 0x38
 7648 29c2 87190000 		.4byte	0x1987
 7649 29c6 84010000 		.4byte	.LBB361
 7650 29ca 04000000 		.4byte	.LBE361-.LBB361
 7651 29ce 01       		.byte	0x1
 7652 29cf 4201     		.2byte	0x142
 7653 29d1 F1290000 		.4byte	0x29f1
 7654 29d5 37       		.uleb128 0x37
 7655 29d6 AC190000 		.4byte	0x19ac
 7656 29da DB0C0000 		.4byte	.LLST163
 7657 29de 37       		.uleb128 0x37
 7658 29df A0190000 		.4byte	0x19a0
 7659 29e3 EF0C0000 		.4byte	.LLST164
 7660 29e7 37       		.uleb128 0x37
 7661 29e8 94190000 		.4byte	0x1994
 7662 29ec 030D0000 		.4byte	.LLST165
 7663 29f0 00       		.byte	0
 7664 29f1 38       		.uleb128 0x38
 7665 29f2 87190000 		.4byte	0x1987
 7666 29f6 88010000 		.4byte	.LBB363
 7667 29fa 04000000 		.4byte	.LBE363-.LBB363
 7668 29fe 01       		.byte	0x1
 7669 29ff 4301     		.2byte	0x143
 7670 2a01 212A0000 		.4byte	0x2a21
 7671 2a05 37       		.uleb128 0x37
 7672 2a06 AC190000 		.4byte	0x19ac
 7673 2a0a 1B0D0000 		.4byte	.LLST166
 7674 2a0e 37       		.uleb128 0x37
 7675 2a0f A0190000 		.4byte	0x19a0
ARM GAS  C:\Users\seeho\AppData\Local\Temp\ccUkk7Dc.s 			page 188


 7676 2a13 1B0D0000 		.4byte	.LLST166
 7677 2a17 37       		.uleb128 0x37
 7678 2a18 94190000 		.4byte	0x1994
 7679 2a1c 2F0D0000 		.4byte	.LLST168
 7680 2a20 00       		.byte	0
 7681 2a21 38       		.uleb128 0x38
 7682 2a22 87190000 		.4byte	0x1987
 7683 2a26 8C010000 		.4byte	.LBB365
 7684 2a2a 4C000000 		.4byte	.LBE365-.LBB365
 7685 2a2e 01       		.byte	0x1
 7686 2a2f 4401     		.2byte	0x144
 7687 2a31 4B2A0000 		.4byte	0x2a4b
 7688 2a35 39       		.uleb128 0x39
 7689 2a36 AC190000 		.4byte	0x19ac
 7690 2a3a 01       		.byte	0x1
 7691 2a3b 39       		.uleb128 0x39
 7692 2a3c A0190000 		.4byte	0x19a0
 7693 2a40 00       		.byte	0
 7694 2a41 3A       		.uleb128 0x3a
 7695 2a42 94190000 		.4byte	0x1994
 7696 2a46 80043240 		.4byte	0x40320480
 7697 2a4a 00       		.byte	0
 7698 2a4b 2F       		.uleb128 0x2f
 7699 2a4c 0C000000 		.4byte	.LVL57
 7700 2a50 9F3F0000 		.4byte	0x3f9f
 7701 2a54 622A0000 		.4byte	0x2a62
 7702 2a58 30       		.uleb128 0x30
 7703 2a59 01       		.uleb128 0x1
 7704 2a5a 50       		.byte	0x50
 7705 2a5b 05       		.uleb128 0x5
 7706 2a5c 03       		.byte	0x3
 7707 2a5d 78010000 		.4byte	.LC11
 7708 2a61 00       		.byte	0
 7709 2a62 2F       		.uleb128 0x2f
 7710 2a63 2C000000 		.4byte	.LVL58
 7711 2a67 E63F0000 		.4byte	0x3fe6
 7712 2a6b 792A0000 		.4byte	0x2a79
 7713 2a6f 30       		.uleb128 0x30
 7714 2a70 01       		.uleb128 0x1
 7715 2a71 50       		.byte	0x50
 7716 2a72 05       		.uleb128 0x5
 7717 2a73 03       		.byte	0x3
 7718 2a74 90010000 		.4byte	.LC12
 7719 2a78 00       		.byte	0
 7720 2a79 2F       		.uleb128 0x2f
 7721 2a7a 46000000 		.4byte	.LVL63
 7722 2a7e E63F0000 		.4byte	0x3fe6
 7723 2a82 902A0000 		.4byte	0x2a90
 7724 2a86 30       		.uleb128 0x30
 7725 2a87 01       		.uleb128 0x1
 7726 2a88 50       		.byte	0x50
 7727 2a89 05       		.uleb128 0x5
 7728 2a8a 03       		.byte	0x3
 7729 2a8b 9C010000 		.4byte	.LC13
 7730 2a8f 00       		.byte	0
 7731 2a90 2F       		.uleb128 0x2f
 7732 2a91 60000000 		.4byte	.LVL68
ARM GAS  C:\Users\seeho\AppData\Local\Temp\ccUkk7Dc.s 			page 189


 7733 2a95 E63F0000 		.4byte	0x3fe6
 7734 2a99 A72A0000 		.4byte	0x2aa7
 7735 2a9d 30       		.uleb128 0x30
 7736 2a9e 01       		.uleb128 0x1
 7737 2a9f 50       		.byte	0x50
 7738 2aa0 05       		.uleb128 0x5
 7739 2aa1 03       		.byte	0x3
 7740 2aa2 A8010000 		.4byte	.LC14
 7741 2aa6 00       		.byte	0
 7742 2aa7 2F       		.uleb128 0x2f
 7743 2aa8 7A000000 		.4byte	.LVL73
 7744 2aac E63F0000 		.4byte	0x3fe6
 7745 2ab0 BE2A0000 		.4byte	0x2abe
 7746 2ab4 30       		.uleb128 0x30
 7747 2ab5 01       		.uleb128 0x1
 7748 2ab6 50       		.byte	0x50
 7749 2ab7 05       		.uleb128 0x5
 7750 2ab8 03       		.byte	0x3
 7751 2ab9 B4010000 		.4byte	.LC15
 7752 2abd 00       		.byte	0
 7753 2abe 2F       		.uleb128 0x2f
 7754 2abf 94000000 		.4byte	.LVL78
 7755 2ac3 E63F0000 		.4byte	0x3fe6
 7756 2ac7 D52A0000 		.4byte	0x2ad5
 7757 2acb 30       		.uleb128 0x30
 7758 2acc 01       		.uleb128 0x1
 7759 2acd 50       		.byte	0x50
 7760 2ace 05       		.uleb128 0x5
 7761 2acf 03       		.byte	0x3
 7762 2ad0 C0010000 		.4byte	.LC16
 7763 2ad4 00       		.byte	0
 7764 2ad5 2F       		.uleb128 0x2f
 7765 2ad6 AE000000 		.4byte	.LVL83
 7766 2ada E63F0000 		.4byte	0x3fe6
 7767 2ade EC2A0000 		.4byte	0x2aec
 7768 2ae2 30       		.uleb128 0x30
 7769 2ae3 01       		.uleb128 0x1
 7770 2ae4 50       		.byte	0x50
 7771 2ae5 05       		.uleb128 0x5
 7772 2ae6 03       		.byte	0x3
 7773 2ae7 CC010000 		.4byte	.LC17
 7774 2aeb 00       		.byte	0
 7775 2aec 2F       		.uleb128 0x2f
 7776 2aed C8000000 		.4byte	.LVL88
 7777 2af1 E63F0000 		.4byte	0x3fe6
 7778 2af5 032B0000 		.4byte	0x2b03
 7779 2af9 30       		.uleb128 0x30
 7780 2afa 01       		.uleb128 0x1
 7781 2afb 50       		.byte	0x50
 7782 2afc 05       		.uleb128 0x5
 7783 2afd 03       		.byte	0x3
 7784 2afe D8010000 		.4byte	.LC18
 7785 2b02 00       		.byte	0
 7786 2b03 2F       		.uleb128 0x2f
 7787 2b04 E2000000 		.4byte	.LVL93
 7788 2b08 E63F0000 		.4byte	0x3fe6
 7789 2b0c 1A2B0000 		.4byte	0x2b1a
ARM GAS  C:\Users\seeho\AppData\Local\Temp\ccUkk7Dc.s 			page 190


 7790 2b10 30       		.uleb128 0x30
 7791 2b11 01       		.uleb128 0x1
 7792 2b12 50       		.byte	0x50
 7793 2b13 05       		.uleb128 0x5
 7794 2b14 03       		.byte	0x3
 7795 2b15 E4010000 		.4byte	.LC19
 7796 2b19 00       		.byte	0
 7797 2b1a 2F       		.uleb128 0x2f
 7798 2b1b FC000000 		.4byte	.LVL98
 7799 2b1f E63F0000 		.4byte	0x3fe6
 7800 2b23 312B0000 		.4byte	0x2b31
 7801 2b27 30       		.uleb128 0x30
 7802 2b28 01       		.uleb128 0x1
 7803 2b29 50       		.byte	0x50
 7804 2b2a 05       		.uleb128 0x5
 7805 2b2b 03       		.byte	0x3
 7806 2b2c F0010000 		.4byte	.LC20
 7807 2b30 00       		.byte	0
 7808 2b31 2F       		.uleb128 0x2f
 7809 2b32 16010000 		.4byte	.LVL103
 7810 2b36 E63F0000 		.4byte	0x3fe6
 7811 2b3a 482B0000 		.4byte	0x2b48
 7812 2b3e 30       		.uleb128 0x30
 7813 2b3f 01       		.uleb128 0x1
 7814 2b40 50       		.byte	0x50
 7815 2b41 05       		.uleb128 0x5
 7816 2b42 03       		.byte	0x3
 7817 2b43 FC010000 		.4byte	.LC21
 7818 2b47 00       		.byte	0
 7819 2b48 2F       		.uleb128 0x2f
 7820 2b49 30010000 		.4byte	.LVL108
 7821 2b4d E63F0000 		.4byte	0x3fe6
 7822 2b51 5F2B0000 		.4byte	0x2b5f
 7823 2b55 30       		.uleb128 0x30
 7824 2b56 01       		.uleb128 0x1
 7825 2b57 50       		.byte	0x50
 7826 2b58 05       		.uleb128 0x5
 7827 2b59 03       		.byte	0x3
 7828 2b5a 08020000 		.4byte	.LC22
 7829 2b5e 00       		.byte	0
 7830 2b5f 2F       		.uleb128 0x2f
 7831 2b60 4A010000 		.4byte	.LVL113
 7832 2b64 E63F0000 		.4byte	0x3fe6
 7833 2b68 762B0000 		.4byte	0x2b76
 7834 2b6c 30       		.uleb128 0x30
 7835 2b6d 01       		.uleb128 0x1
 7836 2b6e 50       		.byte	0x50
 7837 2b6f 05       		.uleb128 0x5
 7838 2b70 03       		.byte	0x3
 7839 2b71 14020000 		.4byte	.LC23
 7840 2b75 00       		.byte	0
 7841 2b76 2F       		.uleb128 0x2f
 7842 2b77 64010000 		.4byte	.LVL118
 7843 2b7b E63F0000 		.4byte	0x3fe6
 7844 2b7f 8D2B0000 		.4byte	0x2b8d
 7845 2b83 30       		.uleb128 0x30
 7846 2b84 01       		.uleb128 0x1
ARM GAS  C:\Users\seeho\AppData\Local\Temp\ccUkk7Dc.s 			page 191


 7847 2b85 50       		.byte	0x50
 7848 2b86 05       		.uleb128 0x5
 7849 2b87 03       		.byte	0x3
 7850 2b88 20020000 		.4byte	.LC24
 7851 2b8c 00       		.byte	0
 7852 2b8d 31       		.uleb128 0x31
 7853 2b8e 7E010000 		.4byte	.LVL123
 7854 2b92 E63F0000 		.4byte	0x3fe6
 7855 2b96 30       		.uleb128 0x30
 7856 2b97 01       		.uleb128 0x1
 7857 2b98 50       		.byte	0x50
 7858 2b99 05       		.uleb128 0x5
 7859 2b9a 03       		.byte	0x3
 7860 2b9b 2C020000 		.4byte	.LC25
 7861 2b9f 00       		.byte	0
 7862 2ba0 00       		.byte	0
 7863 2ba1 3B       		.uleb128 0x3b
 7864 2ba2 9C260000 		.4byte	.LASF513
 7865 2ba6 01       		.byte	0x1
 7866 2ba7 5001     		.2byte	0x150
 7867 2ba9 00000000 		.4byte	.LFB644
 7868 2bad 24020000 		.4byte	.LFE644-.LFB644
 7869 2bb1 01       		.uleb128 0x1
 7870 2bb2 9C       		.byte	0x9c
 7871 2bb3 35390000 		.4byte	0x3935
 7872 2bb7 38       		.uleb128 0x38
 7873 2bb8 87190000 		.4byte	0x1987
 7874 2bbc 3C000000 		.4byte	.LBB367
 7875 2bc0 06000000 		.4byte	.LBE367-.LBB367
 7876 2bc4 01       		.byte	0x1
 7877 2bc5 5801     		.2byte	0x158
 7878 2bc7 E72B0000 		.4byte	0x2be7
 7879 2bcb 37       		.uleb128 0x37
 7880 2bcc AC190000 		.4byte	0x19ac
 7881 2bd0 470D0000 		.4byte	.LLST169
 7882 2bd4 37       		.uleb128 0x37
 7883 2bd5 A0190000 		.4byte	0x19a0
 7884 2bd9 5B0D0000 		.4byte	.LLST170
 7885 2bdd 37       		.uleb128 0x37
 7886 2bde 94190000 		.4byte	0x1994
 7887 2be2 6F0D0000 		.4byte	.LLST171
 7888 2be6 00       		.byte	0
 7889 2be7 38       		.uleb128 0x38
 7890 2be8 87190000 		.4byte	0x1987
 7891 2bec 42000000 		.4byte	.LBB369
 7892 2bf0 04000000 		.4byte	.LBE369-.LBB369
 7893 2bf4 01       		.byte	0x1
 7894 2bf5 5901     		.2byte	0x159
 7895 2bf7 172C0000 		.4byte	0x2c17
 7896 2bfb 37       		.uleb128 0x37
 7897 2bfc AC190000 		.4byte	0x19ac
 7898 2c00 870D0000 		.4byte	.LLST172
 7899 2c04 37       		.uleb128 0x37
 7900 2c05 A0190000 		.4byte	0x19a0
 7901 2c09 9B0D0000 		.4byte	.LLST173
 7902 2c0d 37       		.uleb128 0x37
 7903 2c0e 94190000 		.4byte	0x1994
ARM GAS  C:\Users\seeho\AppData\Local\Temp\ccUkk7Dc.s 			page 192


 7904 2c12 AF0D0000 		.4byte	.LLST174
 7905 2c16 00       		.byte	0
 7906 2c17 38       		.uleb128 0x38
 7907 2c18 87190000 		.4byte	0x1987
 7908 2c1c 46000000 		.4byte	.LBB371
 7909 2c20 04000000 		.4byte	.LBE371-.LBB371
 7910 2c24 01       		.byte	0x1
 7911 2c25 5A01     		.2byte	0x15a
 7912 2c27 472C0000 		.4byte	0x2c47
 7913 2c2b 37       		.uleb128 0x37
 7914 2c2c AC190000 		.4byte	0x19ac
 7915 2c30 C70D0000 		.4byte	.LLST175
 7916 2c34 37       		.uleb128 0x37
 7917 2c35 A0190000 		.4byte	0x19a0
 7918 2c39 DB0D0000 		.4byte	.LLST176
 7919 2c3d 37       		.uleb128 0x37
 7920 2c3e 94190000 		.4byte	0x1994
 7921 2c42 EF0D0000 		.4byte	.LLST177
 7922 2c46 00       		.byte	0
 7923 2c47 38       		.uleb128 0x38
 7924 2c48 87190000 		.4byte	0x1987
 7925 2c4c 4A000000 		.4byte	.LBB373
 7926 2c50 06000000 		.4byte	.LBE373-.LBB373
 7927 2c54 01       		.byte	0x1
 7928 2c55 5B01     		.2byte	0x15b
 7929 2c57 772C0000 		.4byte	0x2c77
 7930 2c5b 37       		.uleb128 0x37
 7931 2c5c AC190000 		.4byte	0x19ac
 7932 2c60 070E0000 		.4byte	.LLST178
 7933 2c64 37       		.uleb128 0x37
 7934 2c65 A0190000 		.4byte	0x19a0
 7935 2c69 1B0E0000 		.4byte	.LLST179
 7936 2c6d 37       		.uleb128 0x37
 7937 2c6e 94190000 		.4byte	0x1994
 7938 2c72 2F0E0000 		.4byte	.LLST180
 7939 2c76 00       		.byte	0
 7940 2c77 38       		.uleb128 0x38
 7941 2c78 87190000 		.4byte	0x1987
 7942 2c7c 56000000 		.4byte	.LBB375
 7943 2c80 06000000 		.4byte	.LBE375-.LBB375
 7944 2c84 01       		.byte	0x1
 7945 2c85 6001     		.2byte	0x160
 7946 2c87 A72C0000 		.4byte	0x2ca7
 7947 2c8b 37       		.uleb128 0x37
 7948 2c8c AC190000 		.4byte	0x19ac
 7949 2c90 470E0000 		.4byte	.LLST181
 7950 2c94 37       		.uleb128 0x37
 7951 2c95 A0190000 		.4byte	0x19a0
 7952 2c99 5B0E0000 		.4byte	.LLST182
 7953 2c9d 37       		.uleb128 0x37
 7954 2c9e 94190000 		.4byte	0x1994
 7955 2ca2 6F0E0000 		.4byte	.LLST183
 7956 2ca6 00       		.byte	0
 7957 2ca7 38       		.uleb128 0x38
 7958 2ca8 87190000 		.4byte	0x1987
 7959 2cac 5C000000 		.4byte	.LBB377
 7960 2cb0 04000000 		.4byte	.LBE377-.LBB377
ARM GAS  C:\Users\seeho\AppData\Local\Temp\ccUkk7Dc.s 			page 193


 7961 2cb4 01       		.byte	0x1
 7962 2cb5 6101     		.2byte	0x161
 7963 2cb7 D72C0000 		.4byte	0x2cd7
 7964 2cbb 37       		.uleb128 0x37
 7965 2cbc AC190000 		.4byte	0x19ac
 7966 2cc0 870E0000 		.4byte	.LLST184
 7967 2cc4 37       		.uleb128 0x37
 7968 2cc5 A0190000 		.4byte	0x19a0
 7969 2cc9 9B0E0000 		.4byte	.LLST185
 7970 2ccd 37       		.uleb128 0x37
 7971 2cce 94190000 		.4byte	0x1994
 7972 2cd2 AF0E0000 		.4byte	.LLST186
 7973 2cd6 00       		.byte	0
 7974 2cd7 38       		.uleb128 0x38
 7975 2cd8 87190000 		.4byte	0x1987
 7976 2cdc 60000000 		.4byte	.LBB379
 7977 2ce0 04000000 		.4byte	.LBE379-.LBB379
 7978 2ce4 01       		.byte	0x1
 7979 2ce5 6201     		.2byte	0x162
 7980 2ce7 072D0000 		.4byte	0x2d07
 7981 2ceb 37       		.uleb128 0x37
 7982 2cec AC190000 		.4byte	0x19ac
 7983 2cf0 C70E0000 		.4byte	.LLST187
 7984 2cf4 37       		.uleb128 0x37
 7985 2cf5 A0190000 		.4byte	0x19a0
 7986 2cf9 DB0E0000 		.4byte	.LLST188
 7987 2cfd 37       		.uleb128 0x37
 7988 2cfe 94190000 		.4byte	0x1994
 7989 2d02 EF0E0000 		.4byte	.LLST189
 7990 2d06 00       		.byte	0
 7991 2d07 38       		.uleb128 0x38
 7992 2d08 87190000 		.4byte	0x1987
 7993 2d0c 64000000 		.4byte	.LBB381
 7994 2d10 06000000 		.4byte	.LBE381-.LBB381
 7995 2d14 01       		.byte	0x1
 7996 2d15 6301     		.2byte	0x163
 7997 2d17 372D0000 		.4byte	0x2d37
 7998 2d1b 37       		.uleb128 0x37
 7999 2d1c AC190000 		.4byte	0x19ac
 8000 2d20 070F0000 		.4byte	.LLST190
 8001 2d24 37       		.uleb128 0x37
 8002 2d25 A0190000 		.4byte	0x19a0
 8003 2d29 1B0F0000 		.4byte	.LLST191
 8004 2d2d 37       		.uleb128 0x37
 8005 2d2e 94190000 		.4byte	0x1994
 8006 2d32 2F0F0000 		.4byte	.LLST192
 8007 2d36 00       		.byte	0
 8008 2d37 38       		.uleb128 0x38
 8009 2d38 87190000 		.4byte	0x1987
 8010 2d3c 70000000 		.4byte	.LBB383
 8011 2d40 06000000 		.4byte	.LBE383-.LBB383
 8012 2d44 01       		.byte	0x1
 8013 2d45 6801     		.2byte	0x168
 8014 2d47 672D0000 		.4byte	0x2d67
 8015 2d4b 37       		.uleb128 0x37
 8016 2d4c AC190000 		.4byte	0x19ac
 8017 2d50 470F0000 		.4byte	.LLST193
ARM GAS  C:\Users\seeho\AppData\Local\Temp\ccUkk7Dc.s 			page 194


 8018 2d54 37       		.uleb128 0x37
 8019 2d55 A0190000 		.4byte	0x19a0
 8020 2d59 5B0F0000 		.4byte	.LLST194
 8021 2d5d 37       		.uleb128 0x37
 8022 2d5e 94190000 		.4byte	0x1994
 8023 2d62 6F0F0000 		.4byte	.LLST195
 8024 2d66 00       		.byte	0
 8025 2d67 38       		.uleb128 0x38
 8026 2d68 87190000 		.4byte	0x1987
 8027 2d6c 76000000 		.4byte	.LBB385
 8028 2d70 04000000 		.4byte	.LBE385-.LBB385
 8029 2d74 01       		.byte	0x1
 8030 2d75 6901     		.2byte	0x169
 8031 2d77 972D0000 		.4byte	0x2d97
 8032 2d7b 37       		.uleb128 0x37
 8033 2d7c AC190000 		.4byte	0x19ac
 8034 2d80 870F0000 		.4byte	.LLST196
 8035 2d84 37       		.uleb128 0x37
 8036 2d85 A0190000 		.4byte	0x19a0
 8037 2d89 9B0F0000 		.4byte	.LLST197
 8038 2d8d 37       		.uleb128 0x37
 8039 2d8e 94190000 		.4byte	0x1994
 8040 2d92 AF0F0000 		.4byte	.LLST198
 8041 2d96 00       		.byte	0
 8042 2d97 38       		.uleb128 0x38
 8043 2d98 87190000 		.4byte	0x1987
 8044 2d9c 7A000000 		.4byte	.LBB387
 8045 2da0 04000000 		.4byte	.LBE387-.LBB387
 8046 2da4 01       		.byte	0x1
 8047 2da5 6A01     		.2byte	0x16a
 8048 2da7 C72D0000 		.4byte	0x2dc7
 8049 2dab 37       		.uleb128 0x37
 8050 2dac AC190000 		.4byte	0x19ac
 8051 2db0 C70F0000 		.4byte	.LLST199
 8052 2db4 37       		.uleb128 0x37
 8053 2db5 A0190000 		.4byte	0x19a0
 8054 2db9 DB0F0000 		.4byte	.LLST200
 8055 2dbd 37       		.uleb128 0x37
 8056 2dbe 94190000 		.4byte	0x1994
 8057 2dc2 EF0F0000 		.4byte	.LLST201
 8058 2dc6 00       		.byte	0
 8059 2dc7 38       		.uleb128 0x38
 8060 2dc8 87190000 		.4byte	0x1987
 8061 2dcc 7E000000 		.4byte	.LBB389
 8062 2dd0 06000000 		.4byte	.LBE389-.LBB389
 8063 2dd4 01       		.byte	0x1
 8064 2dd5 6B01     		.2byte	0x16b
 8065 2dd7 F72D0000 		.4byte	0x2df7
 8066 2ddb 37       		.uleb128 0x37
 8067 2ddc AC190000 		.4byte	0x19ac
 8068 2de0 07100000 		.4byte	.LLST202
 8069 2de4 37       		.uleb128 0x37
 8070 2de5 A0190000 		.4byte	0x19a0
 8071 2de9 1B100000 		.4byte	.LLST203
 8072 2ded 37       		.uleb128 0x37
 8073 2dee 94190000 		.4byte	0x1994
 8074 2df2 2F100000 		.4byte	.LLST204
ARM GAS  C:\Users\seeho\AppData\Local\Temp\ccUkk7Dc.s 			page 195


 8075 2df6 00       		.byte	0
 8076 2df7 38       		.uleb128 0x38
 8077 2df8 87190000 		.4byte	0x1987
 8078 2dfc 8A000000 		.4byte	.LBB391
 8079 2e00 06000000 		.4byte	.LBE391-.LBB391
 8080 2e04 01       		.byte	0x1
 8081 2e05 7001     		.2byte	0x170
 8082 2e07 272E0000 		.4byte	0x2e27
 8083 2e0b 37       		.uleb128 0x37
 8084 2e0c AC190000 		.4byte	0x19ac
 8085 2e10 47100000 		.4byte	.LLST205
 8086 2e14 37       		.uleb128 0x37
 8087 2e15 A0190000 		.4byte	0x19a0
 8088 2e19 5B100000 		.4byte	.LLST206
 8089 2e1d 37       		.uleb128 0x37
 8090 2e1e 94190000 		.4byte	0x1994
 8091 2e22 6F100000 		.4byte	.LLST207
 8092 2e26 00       		.byte	0
 8093 2e27 38       		.uleb128 0x38
 8094 2e28 87190000 		.4byte	0x1987
 8095 2e2c 90000000 		.4byte	.LBB393
 8096 2e30 04000000 		.4byte	.LBE393-.LBB393
 8097 2e34 01       		.byte	0x1
 8098 2e35 7101     		.2byte	0x171
 8099 2e37 572E0000 		.4byte	0x2e57
 8100 2e3b 37       		.uleb128 0x37
 8101 2e3c AC190000 		.4byte	0x19ac
 8102 2e40 87100000 		.4byte	.LLST208
 8103 2e44 37       		.uleb128 0x37
 8104 2e45 A0190000 		.4byte	0x19a0
 8105 2e49 9B100000 		.4byte	.LLST209
 8106 2e4d 37       		.uleb128 0x37
 8107 2e4e 94190000 		.4byte	0x1994
 8108 2e52 AF100000 		.4byte	.LLST210
 8109 2e56 00       		.byte	0
 8110 2e57 38       		.uleb128 0x38
 8111 2e58 87190000 		.4byte	0x1987
 8112 2e5c 94000000 		.4byte	.LBB395
 8113 2e60 04000000 		.4byte	.LBE395-.LBB395
 8114 2e64 01       		.byte	0x1
 8115 2e65 7201     		.2byte	0x172
 8116 2e67 872E0000 		.4byte	0x2e87
 8117 2e6b 37       		.uleb128 0x37
 8118 2e6c AC190000 		.4byte	0x19ac
 8119 2e70 C7100000 		.4byte	.LLST211
 8120 2e74 37       		.uleb128 0x37
 8121 2e75 A0190000 		.4byte	0x19a0
 8122 2e79 DB100000 		.4byte	.LLST212
 8123 2e7d 37       		.uleb128 0x37
 8124 2e7e 94190000 		.4byte	0x1994
 8125 2e82 EF100000 		.4byte	.LLST213
 8126 2e86 00       		.byte	0
 8127 2e87 38       		.uleb128 0x38
 8128 2e88 87190000 		.4byte	0x1987
 8129 2e8c 98000000 		.4byte	.LBB397
 8130 2e90 06000000 		.4byte	.LBE397-.LBB397
 8131 2e94 01       		.byte	0x1
ARM GAS  C:\Users\seeho\AppData\Local\Temp\ccUkk7Dc.s 			page 196


 8132 2e95 7301     		.2byte	0x173
 8133 2e97 B72E0000 		.4byte	0x2eb7
 8134 2e9b 37       		.uleb128 0x37
 8135 2e9c AC190000 		.4byte	0x19ac
 8136 2ea0 07110000 		.4byte	.LLST214
 8137 2ea4 37       		.uleb128 0x37
 8138 2ea5 A0190000 		.4byte	0x19a0
 8139 2ea9 1B110000 		.4byte	.LLST215
 8140 2ead 37       		.uleb128 0x37
 8141 2eae 94190000 		.4byte	0x1994
 8142 2eb2 2F110000 		.4byte	.LLST216
 8143 2eb6 00       		.byte	0
 8144 2eb7 38       		.uleb128 0x38
 8145 2eb8 87190000 		.4byte	0x1987
 8146 2ebc A4000000 		.4byte	.LBB399
 8147 2ec0 06000000 		.4byte	.LBE399-.LBB399
 8148 2ec4 01       		.byte	0x1
 8149 2ec5 7801     		.2byte	0x178
 8150 2ec7 E72E0000 		.4byte	0x2ee7
 8151 2ecb 37       		.uleb128 0x37
 8152 2ecc AC190000 		.4byte	0x19ac
 8153 2ed0 47110000 		.4byte	.LLST217
 8154 2ed4 37       		.uleb128 0x37
 8155 2ed5 A0190000 		.4byte	0x19a0
 8156 2ed9 5B110000 		.4byte	.LLST218
 8157 2edd 37       		.uleb128 0x37
 8158 2ede 94190000 		.4byte	0x1994
 8159 2ee2 6F110000 		.4byte	.LLST219
 8160 2ee6 00       		.byte	0
 8161 2ee7 38       		.uleb128 0x38
 8162 2ee8 87190000 		.4byte	0x1987
 8163 2eec AA000000 		.4byte	.LBB401
 8164 2ef0 04000000 		.4byte	.LBE401-.LBB401
 8165 2ef4 01       		.byte	0x1
 8166 2ef5 7901     		.2byte	0x179
 8167 2ef7 172F0000 		.4byte	0x2f17
 8168 2efb 37       		.uleb128 0x37
 8169 2efc AC190000 		.4byte	0x19ac
 8170 2f00 87110000 		.4byte	.LLST220
 8171 2f04 37       		.uleb128 0x37
 8172 2f05 A0190000 		.4byte	0x19a0
 8173 2f09 9B110000 		.4byte	.LLST221
 8174 2f0d 37       		.uleb128 0x37
 8175 2f0e 94190000 		.4byte	0x1994
 8176 2f12 AF110000 		.4byte	.LLST222
 8177 2f16 00       		.byte	0
 8178 2f17 38       		.uleb128 0x38
 8179 2f18 87190000 		.4byte	0x1987
 8180 2f1c AE000000 		.4byte	.LBB403
 8181 2f20 04000000 		.4byte	.LBE403-.LBB403
 8182 2f24 01       		.byte	0x1
 8183 2f25 7A01     		.2byte	0x17a
 8184 2f27 472F0000 		.4byte	0x2f47
 8185 2f2b 37       		.uleb128 0x37
 8186 2f2c AC190000 		.4byte	0x19ac
 8187 2f30 C7110000 		.4byte	.LLST223
 8188 2f34 37       		.uleb128 0x37
ARM GAS  C:\Users\seeho\AppData\Local\Temp\ccUkk7Dc.s 			page 197


 8189 2f35 A0190000 		.4byte	0x19a0
 8190 2f39 DB110000 		.4byte	.LLST224
 8191 2f3d 37       		.uleb128 0x37
 8192 2f3e 94190000 		.4byte	0x1994
 8193 2f42 EF110000 		.4byte	.LLST225
 8194 2f46 00       		.byte	0
 8195 2f47 38       		.uleb128 0x38
 8196 2f48 87190000 		.4byte	0x1987
 8197 2f4c B2000000 		.4byte	.LBB405
 8198 2f50 06000000 		.4byte	.LBE405-.LBB405
 8199 2f54 01       		.byte	0x1
 8200 2f55 7B01     		.2byte	0x17b
 8201 2f57 772F0000 		.4byte	0x2f77
 8202 2f5b 37       		.uleb128 0x37
 8203 2f5c AC190000 		.4byte	0x19ac
 8204 2f60 07120000 		.4byte	.LLST226
 8205 2f64 37       		.uleb128 0x37
 8206 2f65 A0190000 		.4byte	0x19a0
 8207 2f69 1B120000 		.4byte	.LLST227
 8208 2f6d 37       		.uleb128 0x37
 8209 2f6e 94190000 		.4byte	0x1994
 8210 2f72 2F120000 		.4byte	.LLST228
 8211 2f76 00       		.byte	0
 8212 2f77 38       		.uleb128 0x38
 8213 2f78 87190000 		.4byte	0x1987
 8214 2f7c BE000000 		.4byte	.LBB407
 8215 2f80 06000000 		.4byte	.LBE407-.LBB407
 8216 2f84 01       		.byte	0x1
 8217 2f85 8001     		.2byte	0x180
 8218 2f87 A72F0000 		.4byte	0x2fa7
 8219 2f8b 37       		.uleb128 0x37
 8220 2f8c AC190000 		.4byte	0x19ac
 8221 2f90 47120000 		.4byte	.LLST229
 8222 2f94 37       		.uleb128 0x37
 8223 2f95 A0190000 		.4byte	0x19a0
 8224 2f99 5B120000 		.4byte	.LLST230
 8225 2f9d 37       		.uleb128 0x37
 8226 2f9e 94190000 		.4byte	0x1994
 8227 2fa2 6F120000 		.4byte	.LLST231
 8228 2fa6 00       		.byte	0
 8229 2fa7 38       		.uleb128 0x38
 8230 2fa8 87190000 		.4byte	0x1987
 8231 2fac C4000000 		.4byte	.LBB409
 8232 2fb0 04000000 		.4byte	.LBE409-.LBB409
 8233 2fb4 01       		.byte	0x1
 8234 2fb5 8101     		.2byte	0x181
 8235 2fb7 D72F0000 		.4byte	0x2fd7
 8236 2fbb 37       		.uleb128 0x37
 8237 2fbc AC190000 		.4byte	0x19ac
 8238 2fc0 87120000 		.4byte	.LLST232
 8239 2fc4 37       		.uleb128 0x37
 8240 2fc5 A0190000 		.4byte	0x19a0
 8241 2fc9 9B120000 		.4byte	.LLST233
 8242 2fcd 37       		.uleb128 0x37
 8243 2fce 94190000 		.4byte	0x1994
 8244 2fd2 AF120000 		.4byte	.LLST234
 8245 2fd6 00       		.byte	0
ARM GAS  C:\Users\seeho\AppData\Local\Temp\ccUkk7Dc.s 			page 198


 8246 2fd7 38       		.uleb128 0x38
 8247 2fd8 87190000 		.4byte	0x1987
 8248 2fdc C8000000 		.4byte	.LBB411
 8249 2fe0 04000000 		.4byte	.LBE411-.LBB411
 8250 2fe4 01       		.byte	0x1
 8251 2fe5 8201     		.2byte	0x182
 8252 2fe7 07300000 		.4byte	0x3007
 8253 2feb 37       		.uleb128 0x37
 8254 2fec AC190000 		.4byte	0x19ac
 8255 2ff0 C7120000 		.4byte	.LLST235
 8256 2ff4 37       		.uleb128 0x37
 8257 2ff5 A0190000 		.4byte	0x19a0
 8258 2ff9 DB120000 		.4byte	.LLST236
 8259 2ffd 37       		.uleb128 0x37
 8260 2ffe 94190000 		.4byte	0x1994
 8261 3002 EF120000 		.4byte	.LLST237
 8262 3006 00       		.byte	0
 8263 3007 38       		.uleb128 0x38
 8264 3008 87190000 		.4byte	0x1987
 8265 300c CC000000 		.4byte	.LBB413
 8266 3010 06000000 		.4byte	.LBE413-.LBB413
 8267 3014 01       		.byte	0x1
 8268 3015 8301     		.2byte	0x183
 8269 3017 37300000 		.4byte	0x3037
 8270 301b 37       		.uleb128 0x37
 8271 301c AC190000 		.4byte	0x19ac
 8272 3020 07130000 		.4byte	.LLST238
 8273 3024 37       		.uleb128 0x37
 8274 3025 A0190000 		.4byte	0x19a0
 8275 3029 1B130000 		.4byte	.LLST239
 8276 302d 37       		.uleb128 0x37
 8277 302e 94190000 		.4byte	0x1994
 8278 3032 2F130000 		.4byte	.LLST240
 8279 3036 00       		.byte	0
 8280 3037 38       		.uleb128 0x38
 8281 3038 87190000 		.4byte	0x1987
 8282 303c D8000000 		.4byte	.LBB415
 8283 3040 06000000 		.4byte	.LBE415-.LBB415
 8284 3044 01       		.byte	0x1
 8285 3045 8801     		.2byte	0x188
 8286 3047 67300000 		.4byte	0x3067
 8287 304b 37       		.uleb128 0x37
 8288 304c AC190000 		.4byte	0x19ac
 8289 3050 47130000 		.4byte	.LLST241
 8290 3054 37       		.uleb128 0x37
 8291 3055 A0190000 		.4byte	0x19a0
 8292 3059 5B130000 		.4byte	.LLST242
 8293 305d 37       		.uleb128 0x37
 8294 305e 94190000 		.4byte	0x1994
 8295 3062 6F130000 		.4byte	.LLST243
 8296 3066 00       		.byte	0
 8297 3067 38       		.uleb128 0x38
 8298 3068 87190000 		.4byte	0x1987
 8299 306c DE000000 		.4byte	.LBB417
 8300 3070 04000000 		.4byte	.LBE417-.LBB417
 8301 3074 01       		.byte	0x1
 8302 3075 8901     		.2byte	0x189
ARM GAS  C:\Users\seeho\AppData\Local\Temp\ccUkk7Dc.s 			page 199


 8303 3077 97300000 		.4byte	0x3097
 8304 307b 37       		.uleb128 0x37
 8305 307c AC190000 		.4byte	0x19ac
 8306 3080 87130000 		.4byte	.LLST244
 8307 3084 37       		.uleb128 0x37
 8308 3085 A0190000 		.4byte	0x19a0
 8309 3089 9B130000 		.4byte	.LLST245
 8310 308d 37       		.uleb128 0x37
 8311 308e 94190000 		.4byte	0x1994
 8312 3092 AF130000 		.4byte	.LLST246
 8313 3096 00       		.byte	0
 8314 3097 38       		.uleb128 0x38
 8315 3098 87190000 		.4byte	0x1987
 8316 309c E2000000 		.4byte	.LBB419
 8317 30a0 04000000 		.4byte	.LBE419-.LBB419
 8318 30a4 01       		.byte	0x1
 8319 30a5 8A01     		.2byte	0x18a
 8320 30a7 C7300000 		.4byte	0x30c7
 8321 30ab 37       		.uleb128 0x37
 8322 30ac AC190000 		.4byte	0x19ac
 8323 30b0 C7130000 		.4byte	.LLST247
 8324 30b4 37       		.uleb128 0x37
 8325 30b5 A0190000 		.4byte	0x19a0
 8326 30b9 DB130000 		.4byte	.LLST248
 8327 30bd 37       		.uleb128 0x37
 8328 30be 94190000 		.4byte	0x1994
 8329 30c2 EF130000 		.4byte	.LLST249
 8330 30c6 00       		.byte	0
 8331 30c7 38       		.uleb128 0x38
 8332 30c8 87190000 		.4byte	0x1987
 8333 30cc E6000000 		.4byte	.LBB421
 8334 30d0 06000000 		.4byte	.LBE421-.LBB421
 8335 30d4 01       		.byte	0x1
 8336 30d5 8B01     		.2byte	0x18b
 8337 30d7 F7300000 		.4byte	0x30f7
 8338 30db 37       		.uleb128 0x37
 8339 30dc AC190000 		.4byte	0x19ac
 8340 30e0 07140000 		.4byte	.LLST250
 8341 30e4 37       		.uleb128 0x37
 8342 30e5 A0190000 		.4byte	0x19a0
 8343 30e9 1B140000 		.4byte	.LLST251
 8344 30ed 37       		.uleb128 0x37
 8345 30ee 94190000 		.4byte	0x1994
 8346 30f2 2F140000 		.4byte	.LLST252
 8347 30f6 00       		.byte	0
 8348 30f7 38       		.uleb128 0x38
 8349 30f8 87190000 		.4byte	0x1987
 8350 30fc F2000000 		.4byte	.LBB423
 8351 3100 06000000 		.4byte	.LBE423-.LBB423
 8352 3104 01       		.byte	0x1
 8353 3105 9001     		.2byte	0x190
 8354 3107 27310000 		.4byte	0x3127
 8355 310b 37       		.uleb128 0x37
 8356 310c AC190000 		.4byte	0x19ac
 8357 3110 47140000 		.4byte	.LLST253
 8358 3114 37       		.uleb128 0x37
 8359 3115 A0190000 		.4byte	0x19a0
ARM GAS  C:\Users\seeho\AppData\Local\Temp\ccUkk7Dc.s 			page 200


 8360 3119 5B140000 		.4byte	.LLST254
 8361 311d 37       		.uleb128 0x37
 8362 311e 94190000 		.4byte	0x1994
 8363 3122 6F140000 		.4byte	.LLST255
 8364 3126 00       		.byte	0
 8365 3127 38       		.uleb128 0x38
 8366 3128 87190000 		.4byte	0x1987
 8367 312c F8000000 		.4byte	.LBB425
 8368 3130 04000000 		.4byte	.LBE425-.LBB425
 8369 3134 01       		.byte	0x1
 8370 3135 9101     		.2byte	0x191
 8371 3137 57310000 		.4byte	0x3157
 8372 313b 37       		.uleb128 0x37
 8373 313c AC190000 		.4byte	0x19ac
 8374 3140 87140000 		.4byte	.LLST256
 8375 3144 37       		.uleb128 0x37
 8376 3145 A0190000 		.4byte	0x19a0
 8377 3149 9B140000 		.4byte	.LLST257
 8378 314d 37       		.uleb128 0x37
 8379 314e 94190000 		.4byte	0x1994
 8380 3152 AF140000 		.4byte	.LLST258
 8381 3156 00       		.byte	0
 8382 3157 38       		.uleb128 0x38
 8383 3158 87190000 		.4byte	0x1987
 8384 315c FC000000 		.4byte	.LBB427
 8385 3160 04000000 		.4byte	.LBE427-.LBB427
 8386 3164 01       		.byte	0x1
 8387 3165 9201     		.2byte	0x192
 8388 3167 87310000 		.4byte	0x3187
 8389 316b 37       		.uleb128 0x37
 8390 316c AC190000 		.4byte	0x19ac
 8391 3170 C7140000 		.4byte	.LLST259
 8392 3174 37       		.uleb128 0x37
 8393 3175 A0190000 		.4byte	0x19a0
 8394 3179 DB140000 		.4byte	.LLST260
 8395 317d 37       		.uleb128 0x37
 8396 317e 94190000 		.4byte	0x1994
 8397 3182 EF140000 		.4byte	.LLST261
 8398 3186 00       		.byte	0
 8399 3187 38       		.uleb128 0x38
 8400 3188 87190000 		.4byte	0x1987
 8401 318c 00010000 		.4byte	.LBB429
 8402 3190 06000000 		.4byte	.LBE429-.LBB429
 8403 3194 01       		.byte	0x1
 8404 3195 9301     		.2byte	0x193
 8405 3197 B7310000 		.4byte	0x31b7
 8406 319b 37       		.uleb128 0x37
 8407 319c AC190000 		.4byte	0x19ac
 8408 31a0 07150000 		.4byte	.LLST262
 8409 31a4 37       		.uleb128 0x37
 8410 31a5 A0190000 		.4byte	0x19a0
 8411 31a9 1B150000 		.4byte	.LLST263
 8412 31ad 37       		.uleb128 0x37
 8413 31ae 94190000 		.4byte	0x1994
 8414 31b2 2F150000 		.4byte	.LLST264
 8415 31b6 00       		.byte	0
 8416 31b7 38       		.uleb128 0x38
ARM GAS  C:\Users\seeho\AppData\Local\Temp\ccUkk7Dc.s 			page 201


 8417 31b8 87190000 		.4byte	0x1987
 8418 31bc 0C010000 		.4byte	.LBB431
 8419 31c0 06000000 		.4byte	.LBE431-.LBB431
 8420 31c4 01       		.byte	0x1
 8421 31c5 9801     		.2byte	0x198
 8422 31c7 E7310000 		.4byte	0x31e7
 8423 31cb 37       		.uleb128 0x37
 8424 31cc AC190000 		.4byte	0x19ac
 8425 31d0 47150000 		.4byte	.LLST265
 8426 31d4 37       		.uleb128 0x37
 8427 31d5 A0190000 		.4byte	0x19a0
 8428 31d9 5B150000 		.4byte	.LLST266
 8429 31dd 37       		.uleb128 0x37
 8430 31de 94190000 		.4byte	0x1994
 8431 31e2 6F150000 		.4byte	.LLST267
 8432 31e6 00       		.byte	0
 8433 31e7 38       		.uleb128 0x38
 8434 31e8 87190000 		.4byte	0x1987
 8435 31ec 12010000 		.4byte	.LBB433
 8436 31f0 04000000 		.4byte	.LBE433-.LBB433
 8437 31f4 01       		.byte	0x1
 8438 31f5 9901     		.2byte	0x199
 8439 31f7 17320000 		.4byte	0x3217
 8440 31fb 37       		.uleb128 0x37
 8441 31fc AC190000 		.4byte	0x19ac
 8442 3200 87150000 		.4byte	.LLST268
 8443 3204 37       		.uleb128 0x37
 8444 3205 A0190000 		.4byte	0x19a0
 8445 3209 9B150000 		.4byte	.LLST269
 8446 320d 37       		.uleb128 0x37
 8447 320e 94190000 		.4byte	0x1994
 8448 3212 AF150000 		.4byte	.LLST270
 8449 3216 00       		.byte	0
 8450 3217 38       		.uleb128 0x38
 8451 3218 87190000 		.4byte	0x1987
 8452 321c 16010000 		.4byte	.LBB435
 8453 3220 04000000 		.4byte	.LBE435-.LBB435
 8454 3224 01       		.byte	0x1
 8455 3225 9A01     		.2byte	0x19a
 8456 3227 47320000 		.4byte	0x3247
 8457 322b 37       		.uleb128 0x37
 8458 322c AC190000 		.4byte	0x19ac
 8459 3230 C7150000 		.4byte	.LLST271
 8460 3234 37       		.uleb128 0x37
 8461 3235 A0190000 		.4byte	0x19a0
 8462 3239 DB150000 		.4byte	.LLST272
 8463 323d 37       		.uleb128 0x37
 8464 323e 94190000 		.4byte	0x1994
 8465 3242 EF150000 		.4byte	.LLST273
 8466 3246 00       		.byte	0
 8467 3247 38       		.uleb128 0x38
 8468 3248 87190000 		.4byte	0x1987
 8469 324c 1A010000 		.4byte	.LBB437
 8470 3250 06000000 		.4byte	.LBE437-.LBB437
 8471 3254 01       		.byte	0x1
 8472 3255 9B01     		.2byte	0x19b
 8473 3257 77320000 		.4byte	0x3277
ARM GAS  C:\Users\seeho\AppData\Local\Temp\ccUkk7Dc.s 			page 202


 8474 325b 37       		.uleb128 0x37
 8475 325c AC190000 		.4byte	0x19ac
 8476 3260 07160000 		.4byte	.LLST274
 8477 3264 37       		.uleb128 0x37
 8478 3265 A0190000 		.4byte	0x19a0
 8479 3269 1B160000 		.4byte	.LLST275
 8480 326d 37       		.uleb128 0x37
 8481 326e 94190000 		.4byte	0x1994
 8482 3272 2F160000 		.4byte	.LLST276
 8483 3276 00       		.byte	0
 8484 3277 38       		.uleb128 0x38
 8485 3278 87190000 		.4byte	0x1987
 8486 327c 26010000 		.4byte	.LBB439
 8487 3280 06000000 		.4byte	.LBE439-.LBB439
 8488 3284 01       		.byte	0x1
 8489 3285 A001     		.2byte	0x1a0
 8490 3287 A7320000 		.4byte	0x32a7
 8491 328b 37       		.uleb128 0x37
 8492 328c AC190000 		.4byte	0x19ac
 8493 3290 47160000 		.4byte	.LLST277
 8494 3294 37       		.uleb128 0x37
 8495 3295 A0190000 		.4byte	0x19a0
 8496 3299 5B160000 		.4byte	.LLST278
 8497 329d 37       		.uleb128 0x37
 8498 329e 94190000 		.4byte	0x1994
 8499 32a2 6F160000 		.4byte	.LLST279
 8500 32a6 00       		.byte	0
 8501 32a7 38       		.uleb128 0x38
 8502 32a8 87190000 		.4byte	0x1987
 8503 32ac 2C010000 		.4byte	.LBB441
 8504 32b0 04000000 		.4byte	.LBE441-.LBB441
 8505 32b4 01       		.byte	0x1
 8506 32b5 A101     		.2byte	0x1a1
 8507 32b7 D7320000 		.4byte	0x32d7
 8508 32bb 37       		.uleb128 0x37
 8509 32bc AC190000 		.4byte	0x19ac
 8510 32c0 87160000 		.4byte	.LLST280
 8511 32c4 37       		.uleb128 0x37
 8512 32c5 A0190000 		.4byte	0x19a0
 8513 32c9 9B160000 		.4byte	.LLST281
 8514 32cd 37       		.uleb128 0x37
 8515 32ce 94190000 		.4byte	0x1994
 8516 32d2 AF160000 		.4byte	.LLST282
 8517 32d6 00       		.byte	0
 8518 32d7 38       		.uleb128 0x38
 8519 32d8 87190000 		.4byte	0x1987
 8520 32dc 30010000 		.4byte	.LBB443
 8521 32e0 04000000 		.4byte	.LBE443-.LBB443
 8522 32e4 01       		.byte	0x1
 8523 32e5 A201     		.2byte	0x1a2
 8524 32e7 07330000 		.4byte	0x3307
 8525 32eb 37       		.uleb128 0x37
 8526 32ec AC190000 		.4byte	0x19ac
 8527 32f0 C7160000 		.4byte	.LLST283
 8528 32f4 37       		.uleb128 0x37
 8529 32f5 A0190000 		.4byte	0x19a0
 8530 32f9 DB160000 		.4byte	.LLST284
ARM GAS  C:\Users\seeho\AppData\Local\Temp\ccUkk7Dc.s 			page 203


 8531 32fd 37       		.uleb128 0x37
 8532 32fe 94190000 		.4byte	0x1994
 8533 3302 EF160000 		.4byte	.LLST285
 8534 3306 00       		.byte	0
 8535 3307 38       		.uleb128 0x38
 8536 3308 87190000 		.4byte	0x1987
 8537 330c 34010000 		.4byte	.LBB445
 8538 3310 06000000 		.4byte	.LBE445-.LBB445
 8539 3314 01       		.byte	0x1
 8540 3315 A301     		.2byte	0x1a3
 8541 3317 37330000 		.4byte	0x3337
 8542 331b 37       		.uleb128 0x37
 8543 331c AC190000 		.4byte	0x19ac
 8544 3320 07170000 		.4byte	.LLST286
 8545 3324 37       		.uleb128 0x37
 8546 3325 A0190000 		.4byte	0x19a0
 8547 3329 1B170000 		.4byte	.LLST287
 8548 332d 37       		.uleb128 0x37
 8549 332e 94190000 		.4byte	0x1994
 8550 3332 2F170000 		.4byte	.LLST288
 8551 3336 00       		.byte	0
 8552 3337 38       		.uleb128 0x38
 8553 3338 87190000 		.4byte	0x1987
 8554 333c 40010000 		.4byte	.LBB447
 8555 3340 06000000 		.4byte	.LBE447-.LBB447
 8556 3344 01       		.byte	0x1
 8557 3345 A801     		.2byte	0x1a8
 8558 3347 67330000 		.4byte	0x3367
 8559 334b 37       		.uleb128 0x37
 8560 334c AC190000 		.4byte	0x19ac
 8561 3350 47170000 		.4byte	.LLST289
 8562 3354 37       		.uleb128 0x37
 8563 3355 A0190000 		.4byte	0x19a0
 8564 3359 5B170000 		.4byte	.LLST290
 8565 335d 37       		.uleb128 0x37
 8566 335e 94190000 		.4byte	0x1994
 8567 3362 6F170000 		.4byte	.LLST291
 8568 3366 00       		.byte	0
 8569 3367 38       		.uleb128 0x38
 8570 3368 87190000 		.4byte	0x1987
 8571 336c 46010000 		.4byte	.LBB449
 8572 3370 04000000 		.4byte	.LBE449-.LBB449
 8573 3374 01       		.byte	0x1
 8574 3375 A901     		.2byte	0x1a9
 8575 3377 97330000 		.4byte	0x3397
 8576 337b 37       		.uleb128 0x37
 8577 337c AC190000 		.4byte	0x19ac
 8578 3380 87170000 		.4byte	.LLST292
 8579 3384 37       		.uleb128 0x37
 8580 3385 A0190000 		.4byte	0x19a0
 8581 3389 9B170000 		.4byte	.LLST293
 8582 338d 37       		.uleb128 0x37
 8583 338e 94190000 		.4byte	0x1994
 8584 3392 AF170000 		.4byte	.LLST294
 8585 3396 00       		.byte	0
 8586 3397 38       		.uleb128 0x38
 8587 3398 87190000 		.4byte	0x1987
ARM GAS  C:\Users\seeho\AppData\Local\Temp\ccUkk7Dc.s 			page 204


 8588 339c 4A010000 		.4byte	.LBB451
 8589 33a0 04000000 		.4byte	.LBE451-.LBB451
 8590 33a4 01       		.byte	0x1
 8591 33a5 AA01     		.2byte	0x1aa
 8592 33a7 C7330000 		.4byte	0x33c7
 8593 33ab 37       		.uleb128 0x37
 8594 33ac AC190000 		.4byte	0x19ac
 8595 33b0 C7170000 		.4byte	.LLST295
 8596 33b4 37       		.uleb128 0x37
 8597 33b5 A0190000 		.4byte	0x19a0
 8598 33b9 DB170000 		.4byte	.LLST296
 8599 33bd 37       		.uleb128 0x37
 8600 33be 94190000 		.4byte	0x1994
 8601 33c2 EF170000 		.4byte	.LLST297
 8602 33c6 00       		.byte	0
 8603 33c7 38       		.uleb128 0x38
 8604 33c8 87190000 		.4byte	0x1987
 8605 33cc 4E010000 		.4byte	.LBB453
 8606 33d0 06000000 		.4byte	.LBE453-.LBB453
 8607 33d4 01       		.byte	0x1
 8608 33d5 AB01     		.2byte	0x1ab
 8609 33d7 F7330000 		.4byte	0x33f7
 8610 33db 37       		.uleb128 0x37
 8611 33dc AC190000 		.4byte	0x19ac
 8612 33e0 07180000 		.4byte	.LLST298
 8613 33e4 37       		.uleb128 0x37
 8614 33e5 A0190000 		.4byte	0x19a0
 8615 33e9 1B180000 		.4byte	.LLST299
 8616 33ed 37       		.uleb128 0x37
 8617 33ee 94190000 		.4byte	0x1994
 8618 33f2 2F180000 		.4byte	.LLST300
 8619 33f6 00       		.byte	0
 8620 33f7 38       		.uleb128 0x38
 8621 33f8 87190000 		.4byte	0x1987
 8622 33fc 5A010000 		.4byte	.LBB455
 8623 3400 06000000 		.4byte	.LBE455-.LBB455
 8624 3404 01       		.byte	0x1
 8625 3405 B001     		.2byte	0x1b0
 8626 3407 27340000 		.4byte	0x3427
 8627 340b 37       		.uleb128 0x37
 8628 340c AC190000 		.4byte	0x19ac
 8629 3410 47180000 		.4byte	.LLST301
 8630 3414 37       		.uleb128 0x37
 8631 3415 A0190000 		.4byte	0x19a0
 8632 3419 5B180000 		.4byte	.LLST302
 8633 341d 37       		.uleb128 0x37
 8634 341e 94190000 		.4byte	0x1994
 8635 3422 6F180000 		.4byte	.LLST303
 8636 3426 00       		.byte	0
 8637 3427 38       		.uleb128 0x38
 8638 3428 87190000 		.4byte	0x1987
 8639 342c 60010000 		.4byte	.LBB457
 8640 3430 04000000 		.4byte	.LBE457-.LBB457
 8641 3434 01       		.byte	0x1
 8642 3435 B101     		.2byte	0x1b1
 8643 3437 57340000 		.4byte	0x3457
 8644 343b 37       		.uleb128 0x37
ARM GAS  C:\Users\seeho\AppData\Local\Temp\ccUkk7Dc.s 			page 205


 8645 343c AC190000 		.4byte	0x19ac
 8646 3440 87180000 		.4byte	.LLST304
 8647 3444 37       		.uleb128 0x37
 8648 3445 A0190000 		.4byte	0x19a0
 8649 3449 9B180000 		.4byte	.LLST305
 8650 344d 37       		.uleb128 0x37
 8651 344e 94190000 		.4byte	0x1994
 8652 3452 AF180000 		.4byte	.LLST306
 8653 3456 00       		.byte	0
 8654 3457 38       		.uleb128 0x38
 8655 3458 87190000 		.4byte	0x1987
 8656 345c 64010000 		.4byte	.LBB459
 8657 3460 04000000 		.4byte	.LBE459-.LBB459
 8658 3464 01       		.byte	0x1
 8659 3465 B201     		.2byte	0x1b2
 8660 3467 87340000 		.4byte	0x3487
 8661 346b 37       		.uleb128 0x37
 8662 346c AC190000 		.4byte	0x19ac
 8663 3470 C7180000 		.4byte	.LLST307
 8664 3474 37       		.uleb128 0x37
 8665 3475 A0190000 		.4byte	0x19a0
 8666 3479 DB180000 		.4byte	.LLST308
 8667 347d 37       		.uleb128 0x37
 8668 347e 94190000 		.4byte	0x1994
 8669 3482 EF180000 		.4byte	.LLST309
 8670 3486 00       		.byte	0
 8671 3487 38       		.uleb128 0x38
 8672 3488 87190000 		.4byte	0x1987
 8673 348c 68010000 		.4byte	.LBB461
 8674 3490 06000000 		.4byte	.LBE461-.LBB461
 8675 3494 01       		.byte	0x1
 8676 3495 B301     		.2byte	0x1b3
 8677 3497 B7340000 		.4byte	0x34b7
 8678 349b 37       		.uleb128 0x37
 8679 349c AC190000 		.4byte	0x19ac
 8680 34a0 07190000 		.4byte	.LLST310
 8681 34a4 37       		.uleb128 0x37
 8682 34a5 A0190000 		.4byte	0x19a0
 8683 34a9 1B190000 		.4byte	.LLST311
 8684 34ad 37       		.uleb128 0x37
 8685 34ae 94190000 		.4byte	0x1994
 8686 34b2 2F190000 		.4byte	.LLST312
 8687 34b6 00       		.byte	0
 8688 34b7 38       		.uleb128 0x38
 8689 34b8 87190000 		.4byte	0x1987
 8690 34bc 74010000 		.4byte	.LBB463
 8691 34c0 06000000 		.4byte	.LBE463-.LBB463
 8692 34c4 01       		.byte	0x1
 8693 34c5 B801     		.2byte	0x1b8
 8694 34c7 E7340000 		.4byte	0x34e7
 8695 34cb 37       		.uleb128 0x37
 8696 34cc AC190000 		.4byte	0x19ac
 8697 34d0 47190000 		.4byte	.LLST313
 8698 34d4 37       		.uleb128 0x37
 8699 34d5 A0190000 		.4byte	0x19a0
 8700 34d9 5B190000 		.4byte	.LLST314
 8701 34dd 37       		.uleb128 0x37
ARM GAS  C:\Users\seeho\AppData\Local\Temp\ccUkk7Dc.s 			page 206


 8702 34de 94190000 		.4byte	0x1994
 8703 34e2 6F190000 		.4byte	.LLST315
 8704 34e6 00       		.byte	0
 8705 34e7 38       		.uleb128 0x38
 8706 34e8 87190000 		.4byte	0x1987
 8707 34ec 7A010000 		.4byte	.LBB465
 8708 34f0 04000000 		.4byte	.LBE465-.LBB465
 8709 34f4 01       		.byte	0x1
 8710 34f5 B901     		.2byte	0x1b9
 8711 34f7 17350000 		.4byte	0x3517
 8712 34fb 37       		.uleb128 0x37
 8713 34fc AC190000 		.4byte	0x19ac
 8714 3500 87190000 		.4byte	.LLST316
 8715 3504 37       		.uleb128 0x37
 8716 3505 A0190000 		.4byte	0x19a0
 8717 3509 9B190000 		.4byte	.LLST317
 8718 350d 37       		.uleb128 0x37
 8719 350e 94190000 		.4byte	0x1994
 8720 3512 AF190000 		.4byte	.LLST318
 8721 3516 00       		.byte	0
 8722 3517 38       		.uleb128 0x38
 8723 3518 87190000 		.4byte	0x1987
 8724 351c 7E010000 		.4byte	.LBB467
 8725 3520 04000000 		.4byte	.LBE467-.LBB467
 8726 3524 01       		.byte	0x1
 8727 3525 BA01     		.2byte	0x1ba
 8728 3527 47350000 		.4byte	0x3547
 8729 352b 37       		.uleb128 0x37
 8730 352c AC190000 		.4byte	0x19ac
 8731 3530 C7190000 		.4byte	.LLST319
 8732 3534 37       		.uleb128 0x37
 8733 3535 A0190000 		.4byte	0x19a0
 8734 3539 DB190000 		.4byte	.LLST320
 8735 353d 37       		.uleb128 0x37
 8736 353e 94190000 		.4byte	0x1994
 8737 3542 EF190000 		.4byte	.LLST321
 8738 3546 00       		.byte	0
 8739 3547 38       		.uleb128 0x38
 8740 3548 87190000 		.4byte	0x1987
 8741 354c 82010000 		.4byte	.LBB469
 8742 3550 06000000 		.4byte	.LBE469-.LBB469
 8743 3554 01       		.byte	0x1
 8744 3555 BB01     		.2byte	0x1bb
 8745 3557 77350000 		.4byte	0x3577
 8746 355b 37       		.uleb128 0x37
 8747 355c AC190000 		.4byte	0x19ac
 8748 3560 071A0000 		.4byte	.LLST322
 8749 3564 37       		.uleb128 0x37
 8750 3565 A0190000 		.4byte	0x19a0
 8751 3569 1B1A0000 		.4byte	.LLST323
 8752 356d 37       		.uleb128 0x37
 8753 356e 94190000 		.4byte	0x1994
 8754 3572 2F1A0000 		.4byte	.LLST324
 8755 3576 00       		.byte	0
 8756 3577 38       		.uleb128 0x38
 8757 3578 87190000 		.4byte	0x1987
 8758 357c 8E010000 		.4byte	.LBB471
ARM GAS  C:\Users\seeho\AppData\Local\Temp\ccUkk7Dc.s 			page 207


 8759 3580 06000000 		.4byte	.LBE471-.LBB471
 8760 3584 01       		.byte	0x1
 8761 3585 C001     		.2byte	0x1c0
 8762 3587 A7350000 		.4byte	0x35a7
 8763 358b 37       		.uleb128 0x37
 8764 358c AC190000 		.4byte	0x19ac
 8765 3590 471A0000 		.4byte	.LLST325
 8766 3594 37       		.uleb128 0x37
 8767 3595 A0190000 		.4byte	0x19a0
 8768 3599 5B1A0000 		.4byte	.LLST326
 8769 359d 37       		.uleb128 0x37
 8770 359e 94190000 		.4byte	0x1994
 8771 35a2 6F1A0000 		.4byte	.LLST327
 8772 35a6 00       		.byte	0
 8773 35a7 38       		.uleb128 0x38
 8774 35a8 87190000 		.4byte	0x1987
 8775 35ac 94010000 		.4byte	.LBB473
 8776 35b0 04000000 		.4byte	.LBE473-.LBB473
 8777 35b4 01       		.byte	0x1
 8778 35b5 C101     		.2byte	0x1c1
 8779 35b7 D7350000 		.4byte	0x35d7
 8780 35bb 37       		.uleb128 0x37
 8781 35bc AC190000 		.4byte	0x19ac
 8782 35c0 871A0000 		.4byte	.LLST328
 8783 35c4 37       		.uleb128 0x37
 8784 35c5 A0190000 		.4byte	0x19a0
 8785 35c9 9B1A0000 		.4byte	.LLST329
 8786 35cd 37       		.uleb128 0x37
 8787 35ce 94190000 		.4byte	0x1994
 8788 35d2 AF1A0000 		.4byte	.LLST330
 8789 35d6 00       		.byte	0
 8790 35d7 38       		.uleb128 0x38
 8791 35d8 87190000 		.4byte	0x1987
 8792 35dc 98010000 		.4byte	.LBB475
 8793 35e0 04000000 		.4byte	.LBE475-.LBB475
 8794 35e4 01       		.byte	0x1
 8795 35e5 C201     		.2byte	0x1c2
 8796 35e7 07360000 		.4byte	0x3607
 8797 35eb 37       		.uleb128 0x37
 8798 35ec AC190000 		.4byte	0x19ac
 8799 35f0 C71A0000 		.4byte	.LLST331
 8800 35f4 37       		.uleb128 0x37
 8801 35f5 A0190000 		.4byte	0x19a0
 8802 35f9 DB1A0000 		.4byte	.LLST332
 8803 35fd 37       		.uleb128 0x37
 8804 35fe 94190000 		.4byte	0x1994
 8805 3602 EF1A0000 		.4byte	.LLST333
 8806 3606 00       		.byte	0
 8807 3607 38       		.uleb128 0x38
 8808 3608 87190000 		.4byte	0x1987
 8809 360c 9C010000 		.4byte	.LBB477
 8810 3610 06000000 		.4byte	.LBE477-.LBB477
 8811 3614 01       		.byte	0x1
 8812 3615 C301     		.2byte	0x1c3
 8813 3617 37360000 		.4byte	0x3637
 8814 361b 37       		.uleb128 0x37
 8815 361c AC190000 		.4byte	0x19ac
ARM GAS  C:\Users\seeho\AppData\Local\Temp\ccUkk7Dc.s 			page 208


 8816 3620 071B0000 		.4byte	.LLST334
 8817 3624 37       		.uleb128 0x37
 8818 3625 A0190000 		.4byte	0x19a0
 8819 3629 1B1B0000 		.4byte	.LLST335
 8820 362d 37       		.uleb128 0x37
 8821 362e 94190000 		.4byte	0x1994
 8822 3632 2F1B0000 		.4byte	.LLST336
 8823 3636 00       		.byte	0
 8824 3637 38       		.uleb128 0x38
 8825 3638 87190000 		.4byte	0x1987
 8826 363c A8010000 		.4byte	.LBB479
 8827 3640 06000000 		.4byte	.LBE479-.LBB479
 8828 3644 01       		.byte	0x1
 8829 3645 C801     		.2byte	0x1c8
 8830 3647 67360000 		.4byte	0x3667
 8831 364b 37       		.uleb128 0x37
 8832 364c AC190000 		.4byte	0x19ac
 8833 3650 471B0000 		.4byte	.LLST337
 8834 3654 37       		.uleb128 0x37
 8835 3655 A0190000 		.4byte	0x19a0
 8836 3659 5B1B0000 		.4byte	.LLST338
 8837 365d 37       		.uleb128 0x37
 8838 365e 94190000 		.4byte	0x1994
 8839 3662 6F1B0000 		.4byte	.LLST339
 8840 3666 00       		.byte	0
 8841 3667 38       		.uleb128 0x38
 8842 3668 87190000 		.4byte	0x1987
 8843 366c AE010000 		.4byte	.LBB481
 8844 3670 04000000 		.4byte	.LBE481-.LBB481
 8845 3674 01       		.byte	0x1
 8846 3675 C901     		.2byte	0x1c9
 8847 3677 97360000 		.4byte	0x3697
 8848 367b 37       		.uleb128 0x37
 8849 367c AC190000 		.4byte	0x19ac
 8850 3680 871B0000 		.4byte	.LLST340
 8851 3684 37       		.uleb128 0x37
 8852 3685 A0190000 		.4byte	0x19a0
 8853 3689 9B1B0000 		.4byte	.LLST341
 8854 368d 37       		.uleb128 0x37
 8855 368e 94190000 		.4byte	0x1994
 8856 3692 AF1B0000 		.4byte	.LLST342
 8857 3696 00       		.byte	0
 8858 3697 38       		.uleb128 0x38
 8859 3698 87190000 		.4byte	0x1987
 8860 369c B2010000 		.4byte	.LBB483
 8861 36a0 04000000 		.4byte	.LBE483-.LBB483
 8862 36a4 01       		.byte	0x1
 8863 36a5 CA01     		.2byte	0x1ca
 8864 36a7 C7360000 		.4byte	0x36c7
 8865 36ab 37       		.uleb128 0x37
 8866 36ac AC190000 		.4byte	0x19ac
 8867 36b0 C71B0000 		.4byte	.LLST343
 8868 36b4 37       		.uleb128 0x37
 8869 36b5 A0190000 		.4byte	0x19a0
 8870 36b9 DB1B0000 		.4byte	.LLST344
 8871 36bd 37       		.uleb128 0x37
 8872 36be 94190000 		.4byte	0x1994
ARM GAS  C:\Users\seeho\AppData\Local\Temp\ccUkk7Dc.s 			page 209


 8873 36c2 EF1B0000 		.4byte	.LLST345
 8874 36c6 00       		.byte	0
 8875 36c7 38       		.uleb128 0x38
 8876 36c8 87190000 		.4byte	0x1987
 8877 36cc B6010000 		.4byte	.LBB485
 8878 36d0 06000000 		.4byte	.LBE485-.LBB485
 8879 36d4 01       		.byte	0x1
 8880 36d5 CB01     		.2byte	0x1cb
 8881 36d7 F7360000 		.4byte	0x36f7
 8882 36db 37       		.uleb128 0x37
 8883 36dc AC190000 		.4byte	0x19ac
 8884 36e0 071C0000 		.4byte	.LLST346
 8885 36e4 37       		.uleb128 0x37
 8886 36e5 A0190000 		.4byte	0x19a0
 8887 36e9 1B1C0000 		.4byte	.LLST347
 8888 36ed 37       		.uleb128 0x37
 8889 36ee 94190000 		.4byte	0x1994
 8890 36f2 2F1C0000 		.4byte	.LLST348
 8891 36f6 00       		.byte	0
 8892 36f7 38       		.uleb128 0x38
 8893 36f8 87190000 		.4byte	0x1987
 8894 36fc C2010000 		.4byte	.LBB487
 8895 3700 06000000 		.4byte	.LBE487-.LBB487
 8896 3704 01       		.byte	0x1
 8897 3705 D001     		.2byte	0x1d0
 8898 3707 27370000 		.4byte	0x3727
 8899 370b 37       		.uleb128 0x37
 8900 370c AC190000 		.4byte	0x19ac
 8901 3710 471C0000 		.4byte	.LLST349
 8902 3714 37       		.uleb128 0x37
 8903 3715 A0190000 		.4byte	0x19a0
 8904 3719 5B1C0000 		.4byte	.LLST350
 8905 371d 37       		.uleb128 0x37
 8906 371e 94190000 		.4byte	0x1994
 8907 3722 6F1C0000 		.4byte	.LLST351
 8908 3726 00       		.byte	0
 8909 3727 38       		.uleb128 0x38
 8910 3728 87190000 		.4byte	0x1987
 8911 372c C8010000 		.4byte	.LBB489
 8912 3730 04000000 		.4byte	.LBE489-.LBB489
 8913 3734 01       		.byte	0x1
 8914 3735 D101     		.2byte	0x1d1
 8915 3737 57370000 		.4byte	0x3757
 8916 373b 37       		.uleb128 0x37
 8917 373c AC190000 		.4byte	0x19ac
 8918 3740 871C0000 		.4byte	.LLST352
 8919 3744 37       		.uleb128 0x37
 8920 3745 A0190000 		.4byte	0x19a0
 8921 3749 9B1C0000 		.4byte	.LLST353
 8922 374d 37       		.uleb128 0x37
 8923 374e 94190000 		.4byte	0x1994
 8924 3752 AF1C0000 		.4byte	.LLST354
 8925 3756 00       		.byte	0
 8926 3757 38       		.uleb128 0x38
 8927 3758 87190000 		.4byte	0x1987
 8928 375c CC010000 		.4byte	.LBB491
 8929 3760 04000000 		.4byte	.LBE491-.LBB491
ARM GAS  C:\Users\seeho\AppData\Local\Temp\ccUkk7Dc.s 			page 210


 8930 3764 01       		.byte	0x1
 8931 3765 D201     		.2byte	0x1d2
 8932 3767 87370000 		.4byte	0x3787
 8933 376b 37       		.uleb128 0x37
 8934 376c AC190000 		.4byte	0x19ac
 8935 3770 C71C0000 		.4byte	.LLST355
 8936 3774 37       		.uleb128 0x37
 8937 3775 A0190000 		.4byte	0x19a0
 8938 3779 DB1C0000 		.4byte	.LLST356
 8939 377d 37       		.uleb128 0x37
 8940 377e 94190000 		.4byte	0x1994
 8941 3782 EF1C0000 		.4byte	.LLST357
 8942 3786 00       		.byte	0
 8943 3787 38       		.uleb128 0x38
 8944 3788 87190000 		.4byte	0x1987
 8945 378c D0010000 		.4byte	.LBB493
 8946 3790 54000000 		.4byte	.LBE493-.LBB493
 8947 3794 01       		.byte	0x1
 8948 3795 D301     		.2byte	0x1d3
 8949 3797 B1370000 		.4byte	0x37b1
 8950 379b 39       		.uleb128 0x39
 8951 379c AC190000 		.4byte	0x19ac
 8952 37a0 01       		.byte	0x1
 8953 37a1 39       		.uleb128 0x39
 8954 37a2 A0190000 		.4byte	0x19a0
 8955 37a6 05       		.byte	0x5
 8956 37a7 3A       		.uleb128 0x3a
 8957 37a8 94190000 		.4byte	0x1994
 8958 37ac 80023240 		.4byte	0x40320280
 8959 37b0 00       		.byte	0
 8960 37b1 2F       		.uleb128 0x2f
 8961 37b2 0C000000 		.4byte	.LVL127
 8962 37b6 9F3F0000 		.4byte	0x3f9f
 8963 37ba C8370000 		.4byte	0x37c8
 8964 37be 30       		.uleb128 0x30
 8965 37bf 01       		.uleb128 0x1
 8966 37c0 50       		.byte	0x50
 8967 37c1 05       		.uleb128 0x5
 8968 37c2 03       		.byte	0x3
 8969 37c3 38020000 		.4byte	.LC26
 8970 37c7 00       		.byte	0
 8971 37c8 2F       		.uleb128 0x2f
 8972 37c9 3C000000 		.4byte	.LVL128
 8973 37cd E63F0000 		.4byte	0x3fe6
 8974 37d1 DF370000 		.4byte	0x37df
 8975 37d5 30       		.uleb128 0x30
 8976 37d6 01       		.uleb128 0x1
 8977 37d7 50       		.byte	0x50
 8978 37d8 05       		.uleb128 0x5
 8979 37d9 03       		.byte	0x3
 8980 37da 50020000 		.4byte	.LC27
 8981 37de 00       		.byte	0
 8982 37df 2F       		.uleb128 0x2f
 8983 37e0 56000000 		.4byte	.LVL133
 8984 37e4 E63F0000 		.4byte	0x3fe6
 8985 37e8 F6370000 		.4byte	0x37f6
 8986 37ec 30       		.uleb128 0x30
ARM GAS  C:\Users\seeho\AppData\Local\Temp\ccUkk7Dc.s 			page 211


 8987 37ed 01       		.uleb128 0x1
 8988 37ee 50       		.byte	0x50
 8989 37ef 05       		.uleb128 0x5
 8990 37f0 03       		.byte	0x3
 8991 37f1 60020000 		.4byte	.LC28
 8992 37f5 00       		.byte	0
 8993 37f6 2F       		.uleb128 0x2f
 8994 37f7 70000000 		.4byte	.LVL138
 8995 37fb E63F0000 		.4byte	0x3fe6
 8996 37ff 0D380000 		.4byte	0x380d
 8997 3803 30       		.uleb128 0x30
 8998 3804 01       		.uleb128 0x1
 8999 3805 50       		.byte	0x50
 9000 3806 05       		.uleb128 0x5
 9001 3807 03       		.byte	0x3
 9002 3808 70020000 		.4byte	.LC29
 9003 380c 00       		.byte	0
 9004 380d 2F       		.uleb128 0x2f
 9005 380e 8A000000 		.4byte	.LVL143
 9006 3812 E63F0000 		.4byte	0x3fe6
 9007 3816 24380000 		.4byte	0x3824
 9008 381a 30       		.uleb128 0x30
 9009 381b 01       		.uleb128 0x1
 9010 381c 50       		.byte	0x50
 9011 381d 05       		.uleb128 0x5
 9012 381e 03       		.byte	0x3
 9013 381f 80020000 		.4byte	.LC30
 9014 3823 00       		.byte	0
 9015 3824 2F       		.uleb128 0x2f
 9016 3825 A4000000 		.4byte	.LVL148
 9017 3829 E63F0000 		.4byte	0x3fe6
 9018 382d 3B380000 		.4byte	0x383b
 9019 3831 30       		.uleb128 0x30
 9020 3832 01       		.uleb128 0x1
 9021 3833 50       		.byte	0x50
 9022 3834 05       		.uleb128 0x5
 9023 3835 03       		.byte	0x3
 9024 3836 90020000 		.4byte	.LC31
 9025 383a 00       		.byte	0
 9026 383b 2F       		.uleb128 0x2f
 9027 383c BE000000 		.4byte	.LVL153
 9028 3840 E63F0000 		.4byte	0x3fe6
 9029 3844 52380000 		.4byte	0x3852
 9030 3848 30       		.uleb128 0x30
 9031 3849 01       		.uleb128 0x1
 9032 384a 50       		.byte	0x50
 9033 384b 05       		.uleb128 0x5
 9034 384c 03       		.byte	0x3
 9035 384d A0020000 		.4byte	.LC32
 9036 3851 00       		.byte	0
 9037 3852 2F       		.uleb128 0x2f
 9038 3853 D8000000 		.4byte	.LVL158
 9039 3857 E63F0000 		.4byte	0x3fe6
 9040 385b 69380000 		.4byte	0x3869
 9041 385f 30       		.uleb128 0x30
 9042 3860 01       		.uleb128 0x1
 9043 3861 50       		.byte	0x50
ARM GAS  C:\Users\seeho\AppData\Local\Temp\ccUkk7Dc.s 			page 212


 9044 3862 05       		.uleb128 0x5
 9045 3863 03       		.byte	0x3
 9046 3864 B0020000 		.4byte	.LC33
 9047 3868 00       		.byte	0
 9048 3869 2F       		.uleb128 0x2f
 9049 386a F2000000 		.4byte	.LVL163
 9050 386e E63F0000 		.4byte	0x3fe6
 9051 3872 80380000 		.4byte	0x3880
 9052 3876 30       		.uleb128 0x30
 9053 3877 01       		.uleb128 0x1
 9054 3878 50       		.byte	0x50
 9055 3879 05       		.uleb128 0x5
 9056 387a 03       		.byte	0x3
 9057 387b C0020000 		.4byte	.LC34
 9058 387f 00       		.byte	0
 9059 3880 2F       		.uleb128 0x2f
 9060 3881 0C010000 		.4byte	.LVL168
 9061 3885 E63F0000 		.4byte	0x3fe6
 9062 3889 97380000 		.4byte	0x3897
 9063 388d 30       		.uleb128 0x30
 9064 388e 01       		.uleb128 0x1
 9065 388f 50       		.byte	0x50
 9066 3890 05       		.uleb128 0x5
 9067 3891 03       		.byte	0x3
 9068 3892 D0020000 		.4byte	.LC35
 9069 3896 00       		.byte	0
 9070 3897 2F       		.uleb128 0x2f
 9071 3898 26010000 		.4byte	.LVL173
 9072 389c E63F0000 		.4byte	0x3fe6
 9073 38a0 AE380000 		.4byte	0x38ae
 9074 38a4 30       		.uleb128 0x30
 9075 38a5 01       		.uleb128 0x1
 9076 38a6 50       		.byte	0x50
 9077 38a7 05       		.uleb128 0x5
 9078 38a8 03       		.byte	0x3
 9079 38a9 E0020000 		.4byte	.LC36
 9080 38ad 00       		.byte	0
 9081 38ae 2F       		.uleb128 0x2f
 9082 38af 40010000 		.4byte	.LVL178
 9083 38b3 E63F0000 		.4byte	0x3fe6
 9084 38b7 C5380000 		.4byte	0x38c5
 9085 38bb 30       		.uleb128 0x30
 9086 38bc 01       		.uleb128 0x1
 9087 38bd 50       		.byte	0x50
 9088 38be 05       		.uleb128 0x5
 9089 38bf 03       		.byte	0x3
 9090 38c0 F0020000 		.4byte	.LC37
 9091 38c4 00       		.byte	0
 9092 38c5 2F       		.uleb128 0x2f
 9093 38c6 5A010000 		.4byte	.LVL183
 9094 38ca E63F0000 		.4byte	0x3fe6
 9095 38ce DC380000 		.4byte	0x38dc
 9096 38d2 30       		.uleb128 0x30
 9097 38d3 01       		.uleb128 0x1
 9098 38d4 50       		.byte	0x50
 9099 38d5 05       		.uleb128 0x5
 9100 38d6 03       		.byte	0x3
ARM GAS  C:\Users\seeho\AppData\Local\Temp\ccUkk7Dc.s 			page 213


 9101 38d7 00030000 		.4byte	.LC38
 9102 38db 00       		.byte	0
 9103 38dc 2F       		.uleb128 0x2f
 9104 38dd 74010000 		.4byte	.LVL188
 9105 38e1 E63F0000 		.4byte	0x3fe6
 9106 38e5 F3380000 		.4byte	0x38f3
 9107 38e9 30       		.uleb128 0x30
 9108 38ea 01       		.uleb128 0x1
 9109 38eb 50       		.byte	0x50
 9110 38ec 05       		.uleb128 0x5
 9111 38ed 03       		.byte	0x3
 9112 38ee 10030000 		.4byte	.LC39
 9113 38f2 00       		.byte	0
 9114 38f3 2F       		.uleb128 0x2f
 9115 38f4 8E010000 		.4byte	.LVL193
 9116 38f8 E63F0000 		.4byte	0x3fe6
 9117 38fc 0A390000 		.4byte	0x390a
 9118 3900 30       		.uleb128 0x30
 9119 3901 01       		.uleb128 0x1
 9120 3902 50       		.byte	0x50
 9121 3903 05       		.uleb128 0x5
 9122 3904 03       		.byte	0x3
 9123 3905 20030000 		.4byte	.LC40
 9124 3909 00       		.byte	0
 9125 390a 2F       		.uleb128 0x2f
 9126 390b A8010000 		.4byte	.LVL198
 9127 390f E63F0000 		.4byte	0x3fe6
 9128 3913 21390000 		.4byte	0x3921
 9129 3917 30       		.uleb128 0x30
 9130 3918 01       		.uleb128 0x1
 9131 3919 50       		.byte	0x50
 9132 391a 05       		.uleb128 0x5
 9133 391b 03       		.byte	0x3
 9134 391c 30030000 		.4byte	.LC41
 9135 3920 00       		.byte	0
 9136 3921 31       		.uleb128 0x31
 9137 3922 C2010000 		.4byte	.LVL203
 9138 3926 E63F0000 		.4byte	0x3fe6
 9139 392a 30       		.uleb128 0x30
 9140 392b 01       		.uleb128 0x1
 9141 392c 50       		.byte	0x50
 9142 392d 05       		.uleb128 0x5
 9143 392e 03       		.byte	0x3
 9144 392f 40030000 		.4byte	.LC42
 9145 3933 00       		.byte	0
 9146 3934 00       		.byte	0
 9147 3935 3B       		.uleb128 0x3b
 9148 3936 500B0000 		.4byte	.LASF514
 9149 393a 01       		.byte	0x1
 9150 393b DF01     		.2byte	0x1df
 9151 393d 00000000 		.4byte	.LFB645
 9152 3941 18000000 		.4byte	.LFE645-.LFB645
 9153 3945 01       		.uleb128 0x1
 9154 3946 9C       		.byte	0x9c
 9155 3947 5F390000 		.4byte	0x395f
 9156 394b 31       		.uleb128 0x31
 9157 394c 0C000000 		.4byte	.LVL207
ARM GAS  C:\Users\seeho\AppData\Local\Temp\ccUkk7Dc.s 			page 214


 9158 3950 9F3F0000 		.4byte	0x3f9f
 9159 3954 30       		.uleb128 0x30
 9160 3955 01       		.uleb128 0x1
 9161 3956 50       		.byte	0x50
 9162 3957 05       		.uleb128 0x5
 9163 3958 03       		.byte	0x3
 9164 3959 50030000 		.4byte	.LC43
 9165 395d 00       		.byte	0
 9166 395e 00       		.byte	0
 9167 395f 3B       		.uleb128 0x3b
 9168 3960 8A190000 		.4byte	.LASF515
 9169 3964 01       		.byte	0x1
 9170 3965 EE01     		.2byte	0x1ee
 9171 3967 00000000 		.4byte	.LFB646
 9172 396b 18000000 		.4byte	.LFE646-.LFB646
 9173 396f 01       		.uleb128 0x1
 9174 3970 9C       		.byte	0x9c
 9175 3971 89390000 		.4byte	0x3989
 9176 3975 31       		.uleb128 0x31
 9177 3976 0C000000 		.4byte	.LVL208
 9178 397a 9F3F0000 		.4byte	0x3f9f
 9179 397e 30       		.uleb128 0x30
 9180 397f 01       		.uleb128 0x1
 9181 3980 50       		.byte	0x50
 9182 3981 05       		.uleb128 0x5
 9183 3982 03       		.byte	0x3
 9184 3983 64030000 		.4byte	.LC44
 9185 3987 00       		.byte	0
 9186 3988 00       		.byte	0
 9187 3989 3B       		.uleb128 0x3b
 9188 398a 5C0F0000 		.4byte	.LASF516
 9189 398e 01       		.byte	0x1
 9190 398f FE01     		.2byte	0x1fe
 9191 3991 00000000 		.4byte	.LFB647
 9192 3995 84020000 		.4byte	.LFE647-.LFB647
 9193 3999 01       		.uleb128 0x1
 9194 399a 9C       		.byte	0x9c
 9195 399b 5B3D0000 		.4byte	0x3d5b
 9196 399f 3C       		.uleb128 0x3c
 9197 39a0 1E160000 		.4byte	.LASF517
 9198 39a4 01       		.byte	0x1
 9199 39a5 FE01     		.2byte	0x1fe
 9200 39a7 CE000000 		.4byte	0xce
 9201 39ab 071D0000 		.4byte	.LLST358
 9202 39af 3C       		.uleb128 0x3c
 9203 39b0 1F000000 		.4byte	.LASF518
 9204 39b4 01       		.byte	0x1
 9205 39b5 FE01     		.2byte	0x1fe
 9206 39b7 8F080000 		.4byte	0x88f
 9207 39bb AA1E0000 		.4byte	.LLST359
 9208 39bf 3D       		.uleb128 0x3d
 9209 39c0 410F0000 		.4byte	.LASF519
 9210 39c4 01       		.byte	0x1
 9211 39c5 0002     		.2byte	0x200
 9212 39c7 5B3D0000 		.4byte	0x3d5b
 9213 39cb 23200000 		.4byte	.LLST360
 9214 39cf 3E       		.uleb128 0x3e
ARM GAS  C:\Users\seeho\AppData\Local\Temp\ccUkk7Dc.s 			page 215


 9215 39d0 6900     		.ascii	"i\000"
 9216 39d2 01       		.byte	0x1
 9217 39d3 0102     		.2byte	0x201
 9218 39d5 83080000 		.4byte	0x883
 9219 39d9 36200000 		.4byte	.LLST361
 9220 39dd 38       		.uleb128 0x38
 9221 39de EB190000 		.4byte	0x19eb
 9222 39e2 9E000000 		.4byte	.LBB495
 9223 39e6 06000000 		.4byte	.LBE495-.LBB495
 9224 39ea 01       		.byte	0x1
 9225 39eb 1402     		.2byte	0x214
 9226 39ed 043A0000 		.4byte	0x3a04
 9227 39f1 37       		.uleb128 0x37
 9228 39f2 041A0000 		.4byte	0x1a04
 9229 39f6 60200000 		.4byte	.LLST362
 9230 39fa 37       		.uleb128 0x37
 9231 39fb F8190000 		.4byte	0x19f8
 9232 39ff 74200000 		.4byte	.LLST363
 9233 3a03 00       		.byte	0
 9234 3a04 38       		.uleb128 0x38
 9235 3a05 BF190000 		.4byte	0x19bf
 9236 3a09 A4000000 		.4byte	.LBB497
 9237 3a0d 04000000 		.4byte	.LBE497-.LBB497
 9238 3a11 01       		.byte	0x1
 9239 3a12 1502     		.2byte	0x215
 9240 3a14 2B3A0000 		.4byte	0x3a2b
 9241 3a18 37       		.uleb128 0x37
 9242 3a19 D8190000 		.4byte	0x19d8
 9243 3a1d 8C200000 		.4byte	.LLST364
 9244 3a21 37       		.uleb128 0x37
 9245 3a22 CC190000 		.4byte	0x19cc
 9246 3a26 A0200000 		.4byte	.LLST365
 9247 3a2a 00       		.byte	0
 9248 3a2b 38       		.uleb128 0x38
 9249 3a2c EB190000 		.4byte	0x19eb
 9250 3a30 3E010000 		.4byte	.LBB499
 9251 3a34 06000000 		.4byte	.LBE499-.LBB499
 9252 3a38 01       		.byte	0x1
 9253 3a39 6C02     		.2byte	0x26c
 9254 3a3b 523A0000 		.4byte	0x3a52
 9255 3a3f 37       		.uleb128 0x37
 9256 3a40 041A0000 		.4byte	0x1a04
 9257 3a44 B8200000 		.4byte	.LLST366
 9258 3a48 37       		.uleb128 0x37
 9259 3a49 F8190000 		.4byte	0x19f8
 9260 3a4d CC200000 		.4byte	.LLST367
 9261 3a51 00       		.byte	0
 9262 3a52 38       		.uleb128 0x38
 9263 3a53 BF190000 		.4byte	0x19bf
 9264 3a57 44010000 		.4byte	.LBB501
 9265 3a5b 04000000 		.4byte	.LBE501-.LBB501
 9266 3a5f 01       		.byte	0x1
 9267 3a60 6D02     		.2byte	0x26d
 9268 3a62 793A0000 		.4byte	0x3a79
 9269 3a66 37       		.uleb128 0x37
 9270 3a67 D8190000 		.4byte	0x19d8
 9271 3a6b E4200000 		.4byte	.LLST368
ARM GAS  C:\Users\seeho\AppData\Local\Temp\ccUkk7Dc.s 			page 216


 9272 3a6f 37       		.uleb128 0x37
 9273 3a70 CC190000 		.4byte	0x19cc
 9274 3a74 F8200000 		.4byte	.LLST369
 9275 3a78 00       		.byte	0
 9276 3a79 38       		.uleb128 0x38
 9277 3a7a 111A0000 		.4byte	0x1a11
 9278 3a7e 9C010000 		.4byte	.LBB503
 9279 3a82 06000000 		.4byte	.LBE503-.LBB503
 9280 3a86 01       		.byte	0x1
 9281 3a87 9B02     		.2byte	0x29b
 9282 3a89 A93A0000 		.4byte	0x3aa9
 9283 3a8d 37       		.uleb128 0x37
 9284 3a8e 361A0000 		.4byte	0x1a36
 9285 3a92 10210000 		.4byte	.LLST370
 9286 3a96 37       		.uleb128 0x37
 9287 3a97 2A1A0000 		.4byte	0x1a2a
 9288 3a9b 23210000 		.4byte	.LLST371
 9289 3a9f 37       		.uleb128 0x37
 9290 3aa0 1E1A0000 		.4byte	0x1a1e
 9291 3aa4 37210000 		.4byte	.LLST372
 9292 3aa8 00       		.byte	0
 9293 3aa9 2F       		.uleb128 0x2f
 9294 3aaa 92000000 		.4byte	.LVL211
 9295 3aae E63F0000 		.4byte	0x3fe6
 9296 3ab2 C03A0000 		.4byte	0x3ac0
 9297 3ab6 30       		.uleb128 0x30
 9298 3ab7 01       		.uleb128 0x1
 9299 3ab8 50       		.byte	0x50
 9300 3ab9 05       		.uleb128 0x5
 9301 3aba 03       		.byte	0x3
 9302 3abb 7C030000 		.4byte	.LC45
 9303 3abf 00       		.byte	0
 9304 3ac0 2E       		.uleb128 0x2e
 9305 3ac1 96000000 		.4byte	.LVL212
 9306 3ac5 5F400000 		.4byte	0x405f
 9307 3ac9 2F       		.uleb128 0x2f
 9308 3aca 9E000000 		.4byte	.LVL213
 9309 3ace 6A400000 		.4byte	0x406a
 9310 3ad2 E13A0000 		.4byte	0x3ae1
 9311 3ad6 30       		.uleb128 0x30
 9312 3ad7 01       		.uleb128 0x1
 9313 3ad8 50       		.byte	0x50
 9314 3ad9 01       		.uleb128 0x1
 9315 3ada 30       		.byte	0x30
 9316 3adb 30       		.uleb128 0x30
 9317 3adc 01       		.uleb128 0x1
 9318 3add 51       		.byte	0x51
 9319 3ade 01       		.uleb128 0x1
 9320 3adf 30       		.byte	0x30
 9321 3ae0 00       		.byte	0
 9322 3ae1 2F       		.uleb128 0x2f
 9323 3ae2 AE000000 		.4byte	.LVL216
 9324 3ae6 E63F0000 		.4byte	0x3fe6
 9325 3aea F83A0000 		.4byte	0x3af8
 9326 3aee 30       		.uleb128 0x30
 9327 3aef 01       		.uleb128 0x1
 9328 3af0 50       		.byte	0x50
ARM GAS  C:\Users\seeho\AppData\Local\Temp\ccUkk7Dc.s 			page 217


 9329 3af1 05       		.uleb128 0x5
 9330 3af2 03       		.byte	0x3
 9331 3af3 94030000 		.4byte	.LC46
 9332 3af7 00       		.byte	0
 9333 3af8 2F       		.uleb128 0x2f
 9334 3af9 B4000000 		.4byte	.LVL217
 9335 3afd E63F0000 		.4byte	0x3fe6
 9336 3b01 0F3B0000 		.4byte	0x3b0f
 9337 3b05 30       		.uleb128 0x30
 9338 3b06 01       		.uleb128 0x1
 9339 3b07 50       		.byte	0x50
 9340 3b08 05       		.uleb128 0x5
 9341 3b09 03       		.byte	0x3
 9342 3b0a AC030000 		.4byte	.LC47
 9343 3b0e 00       		.byte	0
 9344 3b0f 2F       		.uleb128 0x2f
 9345 3b10 BC000000 		.4byte	.LVL220
 9346 3b14 E63F0000 		.4byte	0x3fe6
 9347 3b18 263B0000 		.4byte	0x3b26
 9348 3b1c 30       		.uleb128 0x30
 9349 3b1d 01       		.uleb128 0x1
 9350 3b1e 50       		.byte	0x50
 9351 3b1f 05       		.uleb128 0x5
 9352 3b20 03       		.byte	0x3
 9353 3b21 D0030000 		.4byte	.LC48
 9354 3b25 00       		.byte	0
 9355 3b26 2F       		.uleb128 0x2f
 9356 3b27 C4000000 		.4byte	.LVL223
 9357 3b2b E63F0000 		.4byte	0x3fe6
 9358 3b2f 3D3B0000 		.4byte	0x3b3d
 9359 3b33 30       		.uleb128 0x30
 9360 3b34 01       		.uleb128 0x1
 9361 3b35 50       		.byte	0x50
 9362 3b36 05       		.uleb128 0x5
 9363 3b37 03       		.byte	0x3
 9364 3b38 E8030000 		.4byte	.LC49
 9365 3b3c 00       		.byte	0
 9366 3b3d 2F       		.uleb128 0x2f
 9367 3b3e CE000000 		.4byte	.LVL227
 9368 3b42 9F3F0000 		.4byte	0x3f9f
 9369 3b46 543B0000 		.4byte	0x3b54
 9370 3b4a 30       		.uleb128 0x30
 9371 3b4b 01       		.uleb128 0x1
 9372 3b4c 50       		.byte	0x50
 9373 3b4d 05       		.uleb128 0x5
 9374 3b4e 03       		.byte	0x3
 9375 3b4f 04040000 		.4byte	.LC50
 9376 3b53 00       		.byte	0
 9377 3b54 2F       		.uleb128 0x2f
 9378 3b55 D6000000 		.4byte	.LVL230
 9379 3b59 E63F0000 		.4byte	0x3fe6
 9380 3b5d 6B3B0000 		.4byte	0x3b6b
 9381 3b61 30       		.uleb128 0x30
 9382 3b62 01       		.uleb128 0x1
 9383 3b63 50       		.byte	0x50
 9384 3b64 05       		.uleb128 0x5
 9385 3b65 03       		.byte	0x3
ARM GAS  C:\Users\seeho\AppData\Local\Temp\ccUkk7Dc.s 			page 218


 9386 3b66 28040000 		.4byte	.LC51
 9387 3b6a 00       		.byte	0
 9388 3b6b 2F       		.uleb128 0x2f
 9389 3b6c DE000000 		.4byte	.LVL233
 9390 3b70 9F3F0000 		.4byte	0x3f9f
 9391 3b74 823B0000 		.4byte	0x3b82
 9392 3b78 30       		.uleb128 0x30
 9393 3b79 01       		.uleb128 0x1
 9394 3b7a 50       		.byte	0x50
 9395 3b7b 05       		.uleb128 0x5
 9396 3b7c 03       		.byte	0x3
 9397 3b7d 50040000 		.4byte	.LC52
 9398 3b81 00       		.byte	0
 9399 3b82 2F       		.uleb128 0x2f
 9400 3b83 F2000000 		.4byte	.LVL236
 9401 3b87 9F3F0000 		.4byte	0x3f9f
 9402 3b8b 963B0000 		.4byte	0x3b96
 9403 3b8f 30       		.uleb128 0x30
 9404 3b90 01       		.uleb128 0x1
 9405 3b91 50       		.byte	0x50
 9406 3b92 02       		.uleb128 0x2
 9407 3b93 76       		.byte	0x76
 9408 3b94 00       		.sleb128 0
 9409 3b95 00       		.byte	0
 9410 3b96 2F       		.uleb128 0x2f
 9411 3b97 FE000000 		.4byte	.LVL237
 9412 3b9b 9F3F0000 		.4byte	0x3f9f
 9413 3b9f AA3B0000 		.4byte	0x3baa
 9414 3ba3 30       		.uleb128 0x30
 9415 3ba4 01       		.uleb128 0x1
 9416 3ba5 50       		.byte	0x50
 9417 3ba6 02       		.uleb128 0x2
 9418 3ba7 76       		.byte	0x76
 9419 3ba8 00       		.sleb128 0
 9420 3ba9 00       		.byte	0
 9421 3baa 2F       		.uleb128 0x2f
 9422 3bab 0A010000 		.4byte	.LVL239
 9423 3baf E63F0000 		.4byte	0x3fe6
 9424 3bb3 C13B0000 		.4byte	0x3bc1
 9425 3bb7 30       		.uleb128 0x30
 9426 3bb8 01       		.uleb128 0x1
 9427 3bb9 50       		.byte	0x50
 9428 3bba 05       		.uleb128 0x5
 9429 3bbb 03       		.byte	0x3
 9430 3bbc 80040000 		.4byte	.LC54
 9431 3bc0 00       		.byte	0
 9432 3bc1 2F       		.uleb128 0x2f
 9433 3bc2 12010000 		.4byte	.LVL242
 9434 3bc6 E63F0000 		.4byte	0x3fe6
 9435 3bca D83B0000 		.4byte	0x3bd8
 9436 3bce 30       		.uleb128 0x30
 9437 3bcf 01       		.uleb128 0x1
 9438 3bd0 50       		.byte	0x50
 9439 3bd1 05       		.uleb128 0x5
 9440 3bd2 03       		.byte	0x3
 9441 3bd3 84040000 		.4byte	.LC55
 9442 3bd7 00       		.byte	0
ARM GAS  C:\Users\seeho\AppData\Local\Temp\ccUkk7Dc.s 			page 219


 9443 3bd8 2F       		.uleb128 0x2f
 9444 3bd9 1A010000 		.4byte	.LVL245
 9445 3bdd 9F3F0000 		.4byte	0x3f9f
 9446 3be1 EF3B0000 		.4byte	0x3bef
 9447 3be5 30       		.uleb128 0x30
 9448 3be6 01       		.uleb128 0x1
 9449 3be7 50       		.byte	0x50
 9450 3be8 05       		.uleb128 0x5
 9451 3be9 03       		.byte	0x3
 9452 3bea A8040000 		.4byte	.LC56
 9453 3bee 00       		.byte	0
 9454 3bef 2F       		.uleb128 0x2f
 9455 3bf0 22010000 		.4byte	.LVL248
 9456 3bf4 E63F0000 		.4byte	0x3fe6
 9457 3bf8 063C0000 		.4byte	0x3c06
 9458 3bfc 30       		.uleb128 0x30
 9459 3bfd 01       		.uleb128 0x1
 9460 3bfe 50       		.byte	0x50
 9461 3bff 05       		.uleb128 0x5
 9462 3c00 03       		.byte	0x3
 9463 3c01 D4040000 		.4byte	.LC57
 9464 3c05 00       		.byte	0
 9465 3c06 2F       		.uleb128 0x2f
 9466 3c07 2A010000 		.4byte	.LVL251
 9467 3c0b E63F0000 		.4byte	0x3fe6
 9468 3c0f 1D3C0000 		.4byte	0x3c1d
 9469 3c13 30       		.uleb128 0x30
 9470 3c14 01       		.uleb128 0x1
 9471 3c15 50       		.byte	0x50
 9472 3c16 05       		.uleb128 0x5
 9473 3c17 03       		.byte	0x3
 9474 3c18 F8040000 		.4byte	.LC58
 9475 3c1c 00       		.byte	0
 9476 3c1d 2F       		.uleb128 0x2f
 9477 3c1e 36010000 		.4byte	.LVL255
 9478 3c22 9F3F0000 		.4byte	0x3f9f
 9479 3c26 343C0000 		.4byte	0x3c34
 9480 3c2a 30       		.uleb128 0x30
 9481 3c2b 01       		.uleb128 0x1
 9482 3c2c 50       		.byte	0x50
 9483 3c2d 05       		.uleb128 0x5
 9484 3c2e 03       		.byte	0x3
 9485 3c2f 24050000 		.4byte	.LC59
 9486 3c33 00       		.byte	0
 9487 3c34 2F       		.uleb128 0x2f
 9488 3c35 3E010000 		.4byte	.LVL256
 9489 3c39 9F3F0000 		.4byte	0x3f9f
 9490 3c3d 4B3C0000 		.4byte	0x3c4b
 9491 3c41 30       		.uleb128 0x30
 9492 3c42 01       		.uleb128 0x1
 9493 3c43 50       		.byte	0x50
 9494 3c44 05       		.uleb128 0x5
 9495 3c45 03       		.byte	0x3
 9496 3c46 4C050000 		.4byte	.LC60
 9497 3c4a 00       		.byte	0
 9498 3c4b 2E       		.uleb128 0x2e
 9499 3c4c 4C010000 		.4byte	.LVL259
ARM GAS  C:\Users\seeho\AppData\Local\Temp\ccUkk7Dc.s 			page 220


 9500 3c50 76400000 		.4byte	0x4076
 9501 3c54 2F       		.uleb128 0x2f
 9502 3c55 54010000 		.4byte	.LVL262
 9503 3c59 E63F0000 		.4byte	0x3fe6
 9504 3c5d 6B3C0000 		.4byte	0x3c6b
 9505 3c61 30       		.uleb128 0x30
 9506 3c62 01       		.uleb128 0x1
 9507 3c63 50       		.byte	0x50
 9508 3c64 05       		.uleb128 0x5
 9509 3c65 03       		.byte	0x3
 9510 3c66 70050000 		.4byte	.LC61
 9511 3c6a 00       		.byte	0
 9512 3c6b 2F       		.uleb128 0x2f
 9513 3c6c 5C010000 		.4byte	.LVL265
 9514 3c70 E63F0000 		.4byte	0x3fe6
 9515 3c74 823C0000 		.4byte	0x3c82
 9516 3c78 30       		.uleb128 0x30
 9517 3c79 01       		.uleb128 0x1
 9518 3c7a 50       		.byte	0x50
 9519 3c7b 05       		.uleb128 0x5
 9520 3c7c 03       		.byte	0x3
 9521 3c7d 94050000 		.4byte	.LC62
 9522 3c81 00       		.byte	0
 9523 3c82 2F       		.uleb128 0x2f
 9524 3c83 6C010000 		.4byte	.LVL266
 9525 3c87 30400000 		.4byte	0x4030
 9526 3c8b 953C0000 		.4byte	0x3c95
 9527 3c8f 30       		.uleb128 0x30
 9528 3c90 01       		.uleb128 0x1
 9529 3c91 51       		.byte	0x51
 9530 3c92 01       		.uleb128 0x1
 9531 3c93 3A       		.byte	0x3a
 9532 3c94 00       		.byte	0
 9533 3c95 2F       		.uleb128 0x2f
 9534 3c96 90010000 		.4byte	.LVL267
 9535 3c9a 47400000 		.4byte	0x4047
 9536 3c9e B23C0000 		.4byte	0x3cb2
 9537 3ca2 30       		.uleb128 0x30
 9538 3ca3 01       		.uleb128 0x1
 9539 3ca4 51       		.byte	0x51
 9540 3ca5 01       		.uleb128 0x1
 9541 3ca6 30       		.byte	0x30
 9542 3ca7 30       		.uleb128 0x30
 9543 3ca8 01       		.uleb128 0x1
 9544 3ca9 52       		.byte	0x52
 9545 3caa 01       		.uleb128 0x1
 9546 3cab 30       		.byte	0x30
 9547 3cac 30       		.uleb128 0x30
 9548 3cad 01       		.uleb128 0x1
 9549 3cae 53       		.byte	0x53
 9550 3caf 01       		.uleb128 0x1
 9551 3cb0 30       		.byte	0x30
 9552 3cb1 00       		.byte	0
 9553 3cb2 2F       		.uleb128 0x2f
 9554 3cb3 98010000 		.4byte	.LVL268
 9555 3cb7 E63F0000 		.4byte	0x3fe6
 9556 3cbb C93C0000 		.4byte	0x3cc9
ARM GAS  C:\Users\seeho\AppData\Local\Temp\ccUkk7Dc.s 			page 221


 9557 3cbf 30       		.uleb128 0x30
 9558 3cc0 01       		.uleb128 0x1
 9559 3cc1 50       		.byte	0x50
 9560 3cc2 05       		.uleb128 0x5
 9561 3cc3 03       		.byte	0x3
 9562 3cc4 B0050000 		.4byte	.LC63
 9563 3cc8 00       		.byte	0
 9564 3cc9 2F       		.uleb128 0x2f
 9565 3cca AC010000 		.4byte	.LVL271
 9566 3cce 30400000 		.4byte	0x4030
 9567 3cd2 DC3C0000 		.4byte	0x3cdc
 9568 3cd6 30       		.uleb128 0x30
 9569 3cd7 01       		.uleb128 0x1
 9570 3cd8 51       		.byte	0x51
 9571 3cd9 01       		.uleb128 0x1
 9572 3cda 3A       		.byte	0x3a
 9573 3cdb 00       		.byte	0
 9574 3cdc 2E       		.uleb128 0x2e
 9575 3cdd B0010000 		.4byte	.LVL272
 9576 3ce1 771D0000 		.4byte	0x1d77
 9577 3ce5 2E       		.uleb128 0x2e
 9578 3ce6 C2010000 		.4byte	.LVL273
 9579 3cea D01F0000 		.4byte	0x1fd0
 9580 3cee 2E       		.uleb128 0x2e
 9581 3cef D4010000 		.4byte	.LVL274
 9582 3cf3 A12B0000 		.4byte	0x2ba1
 9583 3cf7 2E       		.uleb128 0x2e
 9584 3cf8 E6010000 		.4byte	.LVL275
 9585 3cfc 35390000 		.4byte	0x3935
 9586 3d00 2E       		.uleb128 0x2e
 9587 3d01 F8010000 		.4byte	.LVL276
 9588 3d05 5F390000 		.4byte	0x395f
 9589 3d09 2E       		.uleb128 0x2e
 9590 3d0a FE010000 		.4byte	.LVL277
 9591 3d0e 81400000 		.4byte	0x4081
 9592 3d12 2F       		.uleb128 0x2f
 9593 3d13 06020000 		.4byte	.LVL280
 9594 3d17 E63F0000 		.4byte	0x3fe6
 9595 3d1b 293D0000 		.4byte	0x3d29
 9596 3d1f 30       		.uleb128 0x30
 9597 3d20 01       		.uleb128 0x1
 9598 3d21 50       		.byte	0x50
 9599 3d22 05       		.uleb128 0x5
 9600 3d23 03       		.byte	0x3
 9601 3d24 C8050000 		.4byte	.LC64
 9602 3d28 00       		.byte	0
 9603 3d29 2F       		.uleb128 0x2f
 9604 3d2a 0E020000 		.4byte	.LVL283
 9605 3d2e E63F0000 		.4byte	0x3fe6
 9606 3d32 403D0000 		.4byte	0x3d40
 9607 3d36 30       		.uleb128 0x30
 9608 3d37 01       		.uleb128 0x1
 9609 3d38 50       		.byte	0x50
 9610 3d39 05       		.uleb128 0x5
 9611 3d3a 03       		.byte	0x3
 9612 3d3b EC050000 		.4byte	.LC65
 9613 3d3f 00       		.byte	0
ARM GAS  C:\Users\seeho\AppData\Local\Temp\ccUkk7Dc.s 			page 222


 9614 3d40 31       		.uleb128 0x31
 9615 3d41 18020000 		.4byte	.LVL287
 9616 3d45 9F3F0000 		.4byte	0x3f9f
 9617 3d49 30       		.uleb128 0x30
 9618 3d4a 01       		.uleb128 0x1
 9619 3d4b 50       		.byte	0x50
 9620 3d4c 05       		.uleb128 0x5
 9621 3d4d 03       		.byte	0x3
 9622 3d4e 18060000 		.4byte	.LC66
 9623 3d52 30       		.uleb128 0x30
 9624 3d53 01       		.uleb128 0x1
 9625 3d54 51       		.byte	0x51
 9626 3d55 03       		.uleb128 0x3
 9627 3d56 F3       		.byte	0xf3
 9628 3d57 01       		.uleb128 0x1
 9629 3d58 50       		.byte	0x50
 9630 3d59 00       		.byte	0
 9631 3d5a 00       		.byte	0
 9632 3d5b 10       		.uleb128 0x10
 9633 3d5c 04       		.byte	0x4
 9634 3d5d 45190000 		.4byte	0x1945
 9635 3d61 3F       		.uleb128 0x3f
 9636 3d62 7E060000 		.4byte	.LASF569
 9637 3d66 01       		.byte	0x1
 9638 3d67 3203     		.2byte	0x332
 9639 3d69 94000000 		.4byte	0x94
 9640 3d6d 00000000 		.4byte	.LFB650
 9641 3d71 68000000 		.4byte	.LFE650-.LFB650
 9642 3d75 01       		.uleb128 0x1
 9643 3d76 9C       		.byte	0x9c
 9644 3d77 4B3E0000 		.4byte	0x3e4b
 9645 3d7b 40       		.uleb128 0x40
 9646 3d7c 431A0000 		.4byte	0x1a43
 9647 3d80 04000000 		.4byte	.LBB505
 9648 3d84 02000000 		.4byte	.LBE505-.LBB505
 9649 3d88 01       		.byte	0x1
 9650 3d89 3403     		.2byte	0x334
 9651 3d8b 2E       		.uleb128 0x2e
 9652 3d8c 0A000000 		.4byte	.LVL289
 9653 3d90 8D400000 		.4byte	0x408d
 9654 3d94 2F       		.uleb128 0x2f
 9655 3d95 1A000000 		.4byte	.LVL290
 9656 3d99 98400000 		.4byte	0x4098
 9657 3d9d B13D0000 		.4byte	0x3db1
 9658 3da1 30       		.uleb128 0x30
 9659 3da2 01       		.uleb128 0x1
 9660 3da3 51       		.byte	0x51
 9661 3da4 01       		.uleb128 0x1
 9662 3da5 30       		.byte	0x30
 9663 3da6 30       		.uleb128 0x30
 9664 3da7 01       		.uleb128 0x1
 9665 3da8 52       		.byte	0x52
 9666 3da9 01       		.uleb128 0x1
 9667 3daa 32       		.byte	0x32
 9668 3dab 30       		.uleb128 0x30
 9669 3dac 01       		.uleb128 0x1
 9670 3dad 53       		.byte	0x53
ARM GAS  C:\Users\seeho\AppData\Local\Temp\ccUkk7Dc.s 			page 223


 9671 3dae 01       		.uleb128 0x1
 9672 3daf 30       		.byte	0x30
 9673 3db0 00       		.byte	0
 9674 3db1 2F       		.uleb128 0x2f
 9675 3db2 28000000 		.4byte	.LVL291
 9676 3db6 98400000 		.4byte	0x4098
 9677 3dba CE3D0000 		.4byte	0x3dce
 9678 3dbe 30       		.uleb128 0x30
 9679 3dbf 01       		.uleb128 0x1
 9680 3dc0 51       		.byte	0x51
 9681 3dc1 01       		.uleb128 0x1
 9682 3dc2 30       		.byte	0x30
 9683 3dc3 30       		.uleb128 0x30
 9684 3dc4 01       		.uleb128 0x1
 9685 3dc5 52       		.byte	0x52
 9686 3dc6 01       		.uleb128 0x1
 9687 3dc7 32       		.byte	0x32
 9688 3dc8 30       		.uleb128 0x30
 9689 3dc9 01       		.uleb128 0x1
 9690 3dca 53       		.byte	0x53
 9691 3dcb 01       		.uleb128 0x1
 9692 3dcc 30       		.byte	0x30
 9693 3dcd 00       		.byte	0
 9694 3dce 2F       		.uleb128 0x2f
 9695 3dcf 2E000000 		.4byte	.LVL292
 9696 3dd3 E63F0000 		.4byte	0x3fe6
 9697 3dd7 E53D0000 		.4byte	0x3de5
 9698 3ddb 30       		.uleb128 0x30
 9699 3ddc 01       		.uleb128 0x1
 9700 3ddd 50       		.byte	0x50
 9701 3dde 05       		.uleb128 0x5
 9702 3ddf 03       		.byte	0x3
 9703 3de0 2C060000 		.4byte	.LC67
 9704 3de4 00       		.byte	0
 9705 3de5 2E       		.uleb128 0x2e
 9706 3de6 32000000 		.4byte	.LVL293
 9707 3dea 76400000 		.4byte	0x4076
 9708 3dee 2E       		.uleb128 0x2e
 9709 3def 36000000 		.4byte	.LVL294
 9710 3df3 5F400000 		.4byte	0x405f
 9711 3df7 2E       		.uleb128 0x2e
 9712 3df8 3A000000 		.4byte	.LVL295
 9713 3dfc BD1D0000 		.4byte	0x1dbd
 9714 3e00 2E       		.uleb128 0x2e
 9715 3e01 3E000000 		.4byte	.LVL296
 9716 3e05 C21C0000 		.4byte	0x1cc2
 9717 3e09 2F       		.uleb128 0x2f
 9718 3e0a 52000000 		.4byte	.LVL297
 9719 3e0e A3400000 		.4byte	0x40a3
 9720 3e12 413E0000 		.4byte	0x3e41
 9721 3e16 30       		.uleb128 0x30
 9722 3e17 01       		.uleb128 0x1
 9723 3e18 50       		.byte	0x50
 9724 3e19 05       		.uleb128 0x5
 9725 3e1a 03       		.byte	0x3
 9726 3e1b 00000000 		.4byte	bleTask
 9727 3e1f 30       		.uleb128 0x30
ARM GAS  C:\Users\seeho\AppData\Local\Temp\ccUkk7Dc.s 			page 224


 9728 3e20 01       		.uleb128 0x1
 9729 3e21 51       		.byte	0x51
 9730 3e22 05       		.uleb128 0x5
 9731 3e23 03       		.byte	0x3
 9732 3e24 4C060000 		.4byte	.LC68
 9733 3e28 30       		.uleb128 0x30
 9734 3e29 01       		.uleb128 0x1
 9735 3e2a 52       		.byte	0x52
 9736 3e2b 03       		.uleb128 0x3
 9737 3e2c 0A       		.byte	0xa
 9738 3e2d 0020     		.2byte	0x2000
 9739 3e2f 30       		.uleb128 0x30
 9740 3e30 01       		.uleb128 0x1
 9741 3e31 53       		.byte	0x53
 9742 3e32 01       		.uleb128 0x1
 9743 3e33 30       		.byte	0x30
 9744 3e34 30       		.uleb128 0x30
 9745 3e35 02       		.uleb128 0x2
 9746 3e36 7D       		.byte	0x7d
 9747 3e37 00       		.sleb128 0
 9748 3e38 01       		.uleb128 0x1
 9749 3e39 32       		.byte	0x32
 9750 3e3a 30       		.uleb128 0x30
 9751 3e3b 02       		.uleb128 0x2
 9752 3e3c 7D       		.byte	0x7d
 9753 3e3d 04       		.sleb128 4
 9754 3e3e 01       		.uleb128 0x1
 9755 3e3f 30       		.byte	0x30
 9756 3e40 00       		.byte	0
 9757 3e41 2E       		.uleb128 0x2e
 9758 3e42 56000000 		.4byte	.LVL298
 9759 3e46 AF400000 		.4byte	0x40af
 9760 3e4a 00       		.byte	0
 9761 3e4b 41       		.uleb128 0x41
 9762 3e4c A3150000 		.4byte	.LASF520
 9763 3e50 1C       		.byte	0x1c
 9764 3e51 F907     		.2byte	0x7f9
 9765 3e53 573E0000 		.4byte	0x3e57
 9766 3e57 05       		.uleb128 0x5
 9767 3e58 C3000000 		.4byte	0xc3
 9768 3e5c 42       		.uleb128 0x42
 9769 3e5d D6200000 		.4byte	.LASF521
 9770 3e61 0B       		.byte	0xb
 9771 3e62 A7       		.byte	0xa7
 9772 3e63 673E0000 		.4byte	0x3e67
 9773 3e67 10       		.uleb128 0x10
 9774 3e68 04       		.byte	0x4
 9775 3e69 6D3E0000 		.4byte	0x3e6d
 9776 3e6d 06       		.uleb128 0x6
 9777 3e6e 50080000 		.4byte	0x850
 9778 3e72 41       		.uleb128 0x41
 9779 3e73 C5050000 		.4byte	.LASF522
 9780 3e77 12       		.byte	0x12
 9781 3e78 FD02     		.2byte	0x2fd
 9782 3e7a EF0F0000 		.4byte	0xfef
 9783 3e7e 41       		.uleb128 0x41
 9784 3e7f D7180000 		.4byte	.LASF523
ARM GAS  C:\Users\seeho\AppData\Local\Temp\ccUkk7Dc.s 			page 225


 9785 3e83 16       		.byte	0x16
 9786 3e84 1B02     		.2byte	0x21b
 9787 3e86 C2180000 		.4byte	0x18c2
 9788 3e8a 41       		.uleb128 0x41
 9789 3e8b F9230000 		.4byte	.LASF524
 9790 3e8f 16       		.byte	0x16
 9791 3e90 2202     		.2byte	0x222
 9792 3e92 F2180000 		.4byte	0x18f2
 9793 3e96 07       		.uleb128 0x7
 9794 3e97 BE170000 		.4byte	0x17be
 9795 3e9b A63E0000 		.4byte	0x3ea6
 9796 3e9f 08       		.uleb128 0x8
 9797 3ea0 D9000000 		.4byte	0xd9
 9798 3ea4 00       		.byte	0
 9799 3ea5 00       		.byte	0
 9800 3ea6 41       		.uleb128 0x41
 9801 3ea7 2A0A0000 		.4byte	.LASF525
 9802 3eab 16       		.byte	0x16
 9803 3eac 2C02     		.2byte	0x22c
 9804 3eae 963E0000 		.4byte	0x3e96
 9805 3eb2 07       		.uleb128 0x7
 9806 3eb3 3A190000 		.4byte	0x193a
 9807 3eb7 C23E0000 		.4byte	0x3ec2
 9808 3ebb 08       		.uleb128 0x8
 9809 3ebc D9000000 		.4byte	0xd9
 9810 3ec0 00       		.byte	0
 9811 3ec1 00       		.byte	0
 9812 3ec2 41       		.uleb128 0x41
 9813 3ec3 41230000 		.4byte	.LASF526
 9814 3ec7 16       		.byte	0x16
 9815 3ec8 2D02     		.2byte	0x22d
 9816 3eca B23E0000 		.4byte	0x3eb2
 9817 3ece 41       		.uleb128 0x41
 9818 3ecf 1D070000 		.4byte	.LASF527
 9819 3ed3 16       		.byte	0x16
 9820 3ed4 5202     		.2byte	0x252
 9821 3ed6 A2000000 		.4byte	0xa2
 9822 3eda 42       		.uleb128 0x42
 9823 3edb C6140000 		.4byte	.LASF528
 9824 3edf 1D       		.byte	0x1d
 9825 3ee0 87       		.byte	0x87
 9826 3ee1 020B0000 		.4byte	0xb02
 9827 3ee5 42       		.uleb128 0x42
 9828 3ee6 460E0000 		.4byte	.LASF529
 9829 3eea 1E       		.byte	0x1e
 9830 3eeb 1F       		.byte	0x1f
 9831 3eec F03E0000 		.4byte	0x3ef0
 9832 3ef0 06       		.uleb128 0x6
 9833 3ef1 470C0000 		.4byte	0xc47
 9834 3ef5 42       		.uleb128 0x42
 9835 3ef6 C60D0000 		.4byte	.LASF530
 9836 3efa 1F       		.byte	0x1f
 9837 3efb 1F       		.byte	0x1f
 9838 3efc F03E0000 		.4byte	0x3ef0
 9839 3f00 42       		.uleb128 0x42
 9840 3f01 B7220000 		.4byte	.LASF531
 9841 3f05 20       		.byte	0x20
ARM GAS  C:\Users\seeho\AppData\Local\Temp\ccUkk7Dc.s 			page 226


 9842 3f06 7F       		.byte	0x7f
 9843 3f07 260A0000 		.4byte	0xa26
 9844 3f0b 43       		.uleb128 0x43
 9845 3f0c 76616C00 		.ascii	"val\000"
 9846 3f10 01       		.byte	0x1
 9847 3f11 2A       		.byte	0x2a
 9848 3f12 CE000000 		.4byte	0xce
 9849 3f16 05       		.uleb128 0x5
 9850 3f17 03       		.byte	0x3
 9851 3f18 00000000 		.4byte	val
 9852 3f1c 44       		.uleb128 0x44
 9853 3f1d E4000000 		.4byte	.LASF532
 9854 3f21 01       		.byte	0x1
 9855 3f22 2B       		.byte	0x2b
 9856 3f23 CE000000 		.4byte	0xce
 9857 3f27 05       		.uleb128 0x5
 9858 3f28 03       		.byte	0x3
 9859 3f29 00000000 		.4byte	valPA
 9860 3f2d 44       		.uleb128 0x44
 9861 3f2e 531F0000 		.4byte	.LASF533
 9862 3f32 01       		.byte	0x1
 9863 3f33 2C       		.byte	0x2c
 9864 3f34 CE000000 		.4byte	0xce
 9865 3f38 05       		.uleb128 0x5
 9866 3f39 03       		.byte	0x3
 9867 3f3a 00000000 		.4byte	valMUX
 9868 3f3e 44       		.uleb128 0x44
 9869 3f3f AE130000 		.4byte	.LASF534
 9870 3f43 01       		.byte	0x1
 9871 3f44 2D       		.byte	0x2d
 9872 3f45 CE000000 		.4byte	0xce
 9873 3f49 05       		.uleb128 0x5
 9874 3f4a 03       		.byte	0x3
 9875 3f4b 00000000 		.4byte	valOSC
 9876 3f4f 44       		.uleb128 0x44
 9877 3f50 DE0B0000 		.4byte	.LASF535
 9878 3f54 01       		.byte	0x1
 9879 3f55 2E       		.byte	0x2e
 9880 3f56 CE000000 		.4byte	0xce
 9881 3f5a 05       		.uleb128 0x5
 9882 3f5b 03       		.byte	0x3
 9883 3f5c 00000000 		.4byte	valMISC
 9884 3f60 44       		.uleb128 0x44
 9885 3f61 FC1C0000 		.4byte	.LASF536
 9886 3f65 01       		.byte	0x1
 9887 3f66 32       		.byte	0x32
 9888 3f67 71190000 		.4byte	0x1971
 9889 3f6b 05       		.uleb128 0x5
 9890 3f6c 03       		.byte	0x3
 9891 3f6d 00000000 		.4byte	bleSemaphore
 9892 3f71 44       		.uleb128 0x44
 9893 3f72 24040000 		.4byte	.LASF537
 9894 3f76 01       		.byte	0x1
 9895 3f77 35       		.byte	0x35
 9896 3f78 71190000 		.4byte	0x1971
 9897 3f7c 05       		.uleb128 0x5
 9898 3f7d 03       		.byte	0x3
ARM GAS  C:\Users\seeho\AppData\Local\Temp\ccUkk7Dc.s 			page 227


 9899 3f7e 00000000 		.4byte	bleSemaphoreval
 9900 3f82 44       		.uleb128 0x44
 9901 3f83 5B0A0000 		.4byte	.LASF538
 9902 3f87 01       		.byte	0x1
 9903 3f88 38       		.byte	0x38
 9904 3f89 7C190000 		.4byte	0x197c
 9905 3f8d 05       		.uleb128 0x5
 9906 3f8e 03       		.byte	0x3
 9907 3f8f 00000000 		.4byte	xtimer
 9908 3f93 45       		.uleb128 0x45
 9909 3f94 09050000 		.4byte	.LASF539
 9910 3f98 09050000 		.4byte	.LASF539
 9911 3f9c 1B       		.byte	0x1b
 9912 3f9d CF04     		.2byte	0x4cf
 9913 3f9f 46       		.uleb128 0x46
 9914 3fa0 BF0D0000 		.4byte	.LASF540
 9915 3fa4 BF0D0000 		.4byte	.LASF540
 9916 3fa8 21       		.byte	0x21
 9917 3fa9 BB       		.byte	0xbb
 9918 3faa 45       		.uleb128 0x45
 9919 3fab 801C0000 		.4byte	.LASF541
 9920 3faf 801C0000 		.4byte	.LASF541
 9921 3fb3 1B       		.byte	0x1b
 9922 3fb4 9601     		.2byte	0x196
 9923 3fb6 45       		.uleb128 0x45
 9924 3fb7 EF1F0000 		.4byte	.LASF542
 9925 3fbb EF1F0000 		.4byte	.LASF542
 9926 3fbf 22       		.byte	0x22
 9927 3fc0 3E05     		.2byte	0x53e
 9928 3fc2 45       		.uleb128 0x45
 9929 3fc3 3A1A0000 		.4byte	.LASF543
 9930 3fc7 3A1A0000 		.4byte	.LASF543
 9931 3fcb 1B       		.byte	0x1b
 9932 3fcc F004     		.2byte	0x4f0
 9933 3fce 45       		.uleb128 0x45
 9934 3fcf 66240000 		.4byte	.LASF544
 9935 3fd3 66240000 		.4byte	.LASF544
 9936 3fd7 1B       		.byte	0x1b
 9937 3fd8 8101     		.2byte	0x181
 9938 3fda 45       		.uleb128 0x45
 9939 3fdb E0230000 		.4byte	.LASF545
 9940 3fdf E0230000 		.4byte	.LASF545
 9941 3fe3 19       		.byte	0x19
 9942 3fe4 0E05     		.2byte	0x50e
 9943 3fe6 47       		.uleb128 0x47
 9944 3fe7 EB020000 		.4byte	.LASF570
 9945 3feb 331B0000 		.4byte	.LASF571
 9946 3fef 25       		.byte	0x25
 9947 3ff0 00       		.byte	0
 9948 3ff1 EB020000 		.4byte	.LASF570
 9949 3ff5 45       		.uleb128 0x45
 9950 3ff6 29130000 		.4byte	.LASF546
 9951 3ffa 29130000 		.4byte	.LASF546
 9952 3ffe 19       		.byte	0x19
 9953 3fff 8605     		.2byte	0x586
 9954 4001 45       		.uleb128 0x45
 9955 4002 9B0A0000 		.4byte	.LASF547
ARM GAS  C:\Users\seeho\AppData\Local\Temp\ccUkk7Dc.s 			page 228


 9956 4006 9B0A0000 		.4byte	.LASF547
 9957 400a 19       		.byte	0x19
 9958 400b 8405     		.2byte	0x584
 9959 400d 46       		.uleb128 0x46
 9960 400e D4260000 		.4byte	.LASF548
 9961 4012 D4260000 		.4byte	.LASF548
 9962 4016 23       		.byte	0x23
 9963 4017 24       		.byte	0x24
 9964 4018 45       		.uleb128 0x45
 9965 4019 DA120000 		.4byte	.LASF549
 9966 401d DA120000 		.4byte	.LASF549
 9967 4021 13       		.byte	0x13
 9968 4022 F207     		.2byte	0x7f2
 9969 4024 45       		.uleb128 0x45
 9970 4025 10250000 		.4byte	.LASF550
 9971 4029 10250000 		.4byte	.LASF550
 9972 402d 24       		.byte	0x24
 9973 402e 7702     		.2byte	0x277
 9974 4030 45       		.uleb128 0x45
 9975 4031 231F0000 		.4byte	.LASF551
 9976 4035 231F0000 		.4byte	.LASF551
 9977 4039 19       		.byte	0x19
 9978 403a 8805     		.2byte	0x588
 9979 403c 46       		.uleb128 0x46
 9980 403d F2130000 		.4byte	.LASF552
 9981 4041 F2130000 		.4byte	.LASF552
 9982 4045 1B       		.byte	0x1b
 9983 4046 E3       		.byte	0xe3
 9984 4047 45       		.uleb128 0x45
 9985 4048 9E1E0000 		.4byte	.LASF553
 9986 404c 9E1E0000 		.4byte	.LASF553
 9987 4050 19       		.byte	0x19
 9988 4051 8802     		.2byte	0x288
 9989 4053 45       		.uleb128 0x45
 9990 4054 24160000 		.4byte	.LASF554
 9991 4058 24160000 		.4byte	.LASF554
 9992 405c 02       		.byte	0x2
 9993 405d 1602     		.2byte	0x216
 9994 405f 46       		.uleb128 0x46
 9995 4060 6B200000 		.4byte	.LASF555
 9996 4064 6B200000 		.4byte	.LASF555
 9997 4068 1E       		.byte	0x1e
 9998 4069 2A       		.byte	0x2a
 9999 406a 45       		.uleb128 0x45
 10000 406b 3C140000 		.4byte	.LASF556
 10001 406f 3C140000 		.4byte	.LASF556
 10002 4073 16       		.byte	0x16
 10003 4074 F901     		.2byte	0x1f9
 10004 4076 46       		.uleb128 0x46
 10005 4077 680A0000 		.4byte	.LASF557
 10006 407b 680A0000 		.4byte	.LASF557
 10007 407f 1F       		.byte	0x1f
 10008 4080 2A       		.byte	0x2a
 10009 4081 45       		.uleb128 0x45
 10010 4082 CE000000 		.4byte	.LASF558
 10011 4086 CE000000 		.4byte	.LASF558
 10012 408a 17       		.byte	0x17
ARM GAS  C:\Users\seeho\AppData\Local\Temp\ccUkk7Dc.s 			page 229


 10013 408b 5F01     		.2byte	0x15f
 10014 408d 46       		.uleb128 0x46
 10015 408e D1050000 		.4byte	.LASF559
 10016 4092 D1050000 		.4byte	.LASF559
 10017 4096 1D       		.byte	0x1d
 10018 4097 31       		.byte	0x31
 10019 4098 46       		.uleb128 0x46
 10020 4099 C0170000 		.4byte	.LASF560
 10021 409d C0170000 		.4byte	.LASF560
 10022 40a1 21       		.byte	0x21
 10023 40a2 B6       		.byte	0xb6
 10024 40a3 45       		.uleb128 0x45
 10025 40a4 26190000 		.4byte	.LASF561
 10026 40a8 26190000 		.4byte	.LASF561
 10027 40ac 22       		.byte	0x22
 10028 40ad 4101     		.2byte	0x141
 10029 40af 45       		.uleb128 0x45
 10030 40b0 0A0E0000 		.4byte	.LASF562
 10031 40b4 0A0E0000 		.4byte	.LASF562
 10032 40b8 22       		.byte	0x22
 10033 40b9 8E04     		.2byte	0x48e
 10034 40bb 00       		.byte	0
 10035              		.section	.debug_abbrev,"",%progbits
 10036              	.Ldebug_abbrev0:
 10037 0000 01       		.uleb128 0x1
 10038 0001 11       		.uleb128 0x11
 10039 0002 01       		.byte	0x1
 10040 0003 25       		.uleb128 0x25
 10041 0004 0E       		.uleb128 0xe
 10042 0005 13       		.uleb128 0x13
 10043 0006 0B       		.uleb128 0xb
 10044 0007 03       		.uleb128 0x3
 10045 0008 0E       		.uleb128 0xe
 10046 0009 1B       		.uleb128 0x1b
 10047 000a 0E       		.uleb128 0xe
 10048 000b 55       		.uleb128 0x55
 10049 000c 17       		.uleb128 0x17
 10050 000d 11       		.uleb128 0x11
 10051 000e 01       		.uleb128 0x1
 10052 000f 10       		.uleb128 0x10
 10053 0010 17       		.uleb128 0x17
 10054 0011 00       		.byte	0
 10055 0012 00       		.byte	0
 10056 0013 02       		.uleb128 0x2
 10057 0014 24       		.uleb128 0x24
 10058 0015 00       		.byte	0
 10059 0016 0B       		.uleb128 0xb
 10060 0017 0B       		.uleb128 0xb
 10061 0018 3E       		.uleb128 0x3e
 10062 0019 0B       		.uleb128 0xb
 10063 001a 03       		.uleb128 0x3
 10064 001b 0E       		.uleb128 0xe
 10065 001c 00       		.byte	0
 10066 001d 00       		.byte	0
 10067 001e 03       		.uleb128 0x3
 10068 001f 16       		.uleb128 0x16
 10069 0020 00       		.byte	0
ARM GAS  C:\Users\seeho\AppData\Local\Temp\ccUkk7Dc.s 			page 230


 10070 0021 03       		.uleb128 0x3
 10071 0022 0E       		.uleb128 0xe
 10072 0023 3A       		.uleb128 0x3a
 10073 0024 0B       		.uleb128 0xb
 10074 0025 3B       		.uleb128 0x3b
 10075 0026 0B       		.uleb128 0xb
 10076 0027 49       		.uleb128 0x49
 10077 0028 13       		.uleb128 0x13
 10078 0029 00       		.byte	0
 10079 002a 00       		.byte	0
 10080 002b 04       		.uleb128 0x4
 10081 002c 24       		.uleb128 0x24
 10082 002d 00       		.byte	0
 10083 002e 0B       		.uleb128 0xb
 10084 002f 0B       		.uleb128 0xb
 10085 0030 3E       		.uleb128 0x3e
 10086 0031 0B       		.uleb128 0xb
 10087 0032 03       		.uleb128 0x3
 10088 0033 08       		.uleb128 0x8
 10089 0034 00       		.byte	0
 10090 0035 00       		.byte	0
 10091 0036 05       		.uleb128 0x5
 10092 0037 35       		.uleb128 0x35
 10093 0038 00       		.byte	0
 10094 0039 49       		.uleb128 0x49
 10095 003a 13       		.uleb128 0x13
 10096 003b 00       		.byte	0
 10097 003c 00       		.byte	0
 10098 003d 06       		.uleb128 0x6
 10099 003e 26       		.uleb128 0x26
 10100 003f 00       		.byte	0
 10101 0040 49       		.uleb128 0x49
 10102 0041 13       		.uleb128 0x13
 10103 0042 00       		.byte	0
 10104 0043 00       		.byte	0
 10105 0044 07       		.uleb128 0x7
 10106 0045 01       		.uleb128 0x1
 10107 0046 01       		.byte	0x1
 10108 0047 49       		.uleb128 0x49
 10109 0048 13       		.uleb128 0x13
 10110 0049 01       		.uleb128 0x1
 10111 004a 13       		.uleb128 0x13
 10112 004b 00       		.byte	0
 10113 004c 00       		.byte	0
 10114 004d 08       		.uleb128 0x8
 10115 004e 21       		.uleb128 0x21
 10116 004f 00       		.byte	0
 10117 0050 49       		.uleb128 0x49
 10118 0051 13       		.uleb128 0x13
 10119 0052 2F       		.uleb128 0x2f
 10120 0053 0B       		.uleb128 0xb
 10121 0054 00       		.byte	0
 10122 0055 00       		.byte	0
 10123 0056 09       		.uleb128 0x9
 10124 0057 13       		.uleb128 0x13
 10125 0058 01       		.byte	0x1
 10126 0059 0B       		.uleb128 0xb
ARM GAS  C:\Users\seeho\AppData\Local\Temp\ccUkk7Dc.s 			page 231


 10127 005a 0B       		.uleb128 0xb
 10128 005b 3A       		.uleb128 0x3a
 10129 005c 0B       		.uleb128 0xb
 10130 005d 3B       		.uleb128 0x3b
 10131 005e 0B       		.uleb128 0xb
 10132 005f 01       		.uleb128 0x1
 10133 0060 13       		.uleb128 0x13
 10134 0061 00       		.byte	0
 10135 0062 00       		.byte	0
 10136 0063 0A       		.uleb128 0xa
 10137 0064 0D       		.uleb128 0xd
 10138 0065 00       		.byte	0
 10139 0066 03       		.uleb128 0x3
 10140 0067 08       		.uleb128 0x8
 10141 0068 3A       		.uleb128 0x3a
 10142 0069 0B       		.uleb128 0xb
 10143 006a 3B       		.uleb128 0x3b
 10144 006b 0B       		.uleb128 0xb
 10145 006c 49       		.uleb128 0x49
 10146 006d 13       		.uleb128 0x13
 10147 006e 38       		.uleb128 0x38
 10148 006f 0B       		.uleb128 0xb
 10149 0070 00       		.byte	0
 10150 0071 00       		.byte	0
 10151 0072 0B       		.uleb128 0xb
 10152 0073 0D       		.uleb128 0xd
 10153 0074 00       		.byte	0
 10154 0075 03       		.uleb128 0x3
 10155 0076 0E       		.uleb128 0xe
 10156 0077 3A       		.uleb128 0x3a
 10157 0078 0B       		.uleb128 0xb
 10158 0079 3B       		.uleb128 0x3b
 10159 007a 0B       		.uleb128 0xb
 10160 007b 49       		.uleb128 0x49
 10161 007c 13       		.uleb128 0x13
 10162 007d 38       		.uleb128 0x38
 10163 007e 0B       		.uleb128 0xb
 10164 007f 00       		.byte	0
 10165 0080 00       		.byte	0
 10166 0081 0C       		.uleb128 0xc
 10167 0082 13       		.uleb128 0x13
 10168 0083 01       		.byte	0x1
 10169 0084 0B       		.uleb128 0xb
 10170 0085 05       		.uleb128 0x5
 10171 0086 3A       		.uleb128 0x3a
 10172 0087 0B       		.uleb128 0xb
 10173 0088 3B       		.uleb128 0x3b
 10174 0089 0B       		.uleb128 0xb
 10175 008a 01       		.uleb128 0x1
 10176 008b 13       		.uleb128 0x13
 10177 008c 00       		.byte	0
 10178 008d 00       		.byte	0
 10179 008e 0D       		.uleb128 0xd
 10180 008f 0D       		.uleb128 0xd
 10181 0090 00       		.byte	0
 10182 0091 03       		.uleb128 0x3
 10183 0092 0E       		.uleb128 0xe
ARM GAS  C:\Users\seeho\AppData\Local\Temp\ccUkk7Dc.s 			page 232


 10184 0093 3A       		.uleb128 0x3a
 10185 0094 0B       		.uleb128 0xb
 10186 0095 3B       		.uleb128 0x3b
 10187 0096 0B       		.uleb128 0xb
 10188 0097 49       		.uleb128 0x49
 10189 0098 13       		.uleb128 0x13
 10190 0099 38       		.uleb128 0x38
 10191 009a 05       		.uleb128 0x5
 10192 009b 00       		.byte	0
 10193 009c 00       		.byte	0
 10194 009d 0E       		.uleb128 0xe
 10195 009e 0D       		.uleb128 0xd
 10196 009f 00       		.byte	0
 10197 00a0 03       		.uleb128 0x3
 10198 00a1 08       		.uleb128 0x8
 10199 00a2 3A       		.uleb128 0x3a
 10200 00a3 0B       		.uleb128 0xb
 10201 00a4 3B       		.uleb128 0x3b
 10202 00a5 0B       		.uleb128 0xb
 10203 00a6 49       		.uleb128 0x49
 10204 00a7 13       		.uleb128 0x13
 10205 00a8 38       		.uleb128 0x38
 10206 00a9 05       		.uleb128 0x5
 10207 00aa 00       		.byte	0
 10208 00ab 00       		.byte	0
 10209 00ac 0F       		.uleb128 0xf
 10210 00ad 16       		.uleb128 0x16
 10211 00ae 00       		.byte	0
 10212 00af 03       		.uleb128 0x3
 10213 00b0 0E       		.uleb128 0xe
 10214 00b1 3A       		.uleb128 0x3a
 10215 00b2 0B       		.uleb128 0xb
 10216 00b3 3B       		.uleb128 0x3b
 10217 00b4 05       		.uleb128 0x5
 10218 00b5 49       		.uleb128 0x49
 10219 00b6 13       		.uleb128 0x13
 10220 00b7 00       		.byte	0
 10221 00b8 00       		.byte	0
 10222 00b9 10       		.uleb128 0x10
 10223 00ba 0F       		.uleb128 0xf
 10224 00bb 00       		.byte	0
 10225 00bc 0B       		.uleb128 0xb
 10226 00bd 0B       		.uleb128 0xb
 10227 00be 49       		.uleb128 0x49
 10228 00bf 13       		.uleb128 0x13
 10229 00c0 00       		.byte	0
 10230 00c1 00       		.byte	0
 10231 00c2 11       		.uleb128 0x11
 10232 00c3 15       		.uleb128 0x15
 10233 00c4 00       		.byte	0
 10234 00c5 27       		.uleb128 0x27
 10235 00c6 19       		.uleb128 0x19
 10236 00c7 00       		.byte	0
 10237 00c8 00       		.byte	0
 10238 00c9 12       		.uleb128 0x12
 10239 00ca 0F       		.uleb128 0xf
 10240 00cb 00       		.byte	0
ARM GAS  C:\Users\seeho\AppData\Local\Temp\ccUkk7Dc.s 			page 233


 10241 00cc 0B       		.uleb128 0xb
 10242 00cd 0B       		.uleb128 0xb
 10243 00ce 00       		.byte	0
 10244 00cf 00       		.byte	0
 10245 00d0 13       		.uleb128 0x13
 10246 00d1 04       		.uleb128 0x4
 10247 00d2 01       		.byte	0x1
 10248 00d3 0B       		.uleb128 0xb
 10249 00d4 0B       		.uleb128 0xb
 10250 00d5 49       		.uleb128 0x49
 10251 00d6 13       		.uleb128 0x13
 10252 00d7 3A       		.uleb128 0x3a
 10253 00d8 0B       		.uleb128 0xb
 10254 00d9 3B       		.uleb128 0x3b
 10255 00da 05       		.uleb128 0x5
 10256 00db 01       		.uleb128 0x1
 10257 00dc 13       		.uleb128 0x13
 10258 00dd 00       		.byte	0
 10259 00de 00       		.byte	0
 10260 00df 14       		.uleb128 0x14
 10261 00e0 28       		.uleb128 0x28
 10262 00e1 00       		.byte	0
 10263 00e2 03       		.uleb128 0x3
 10264 00e3 0E       		.uleb128 0xe
 10265 00e4 1C       		.uleb128 0x1c
 10266 00e5 0B       		.uleb128 0xb
 10267 00e6 00       		.byte	0
 10268 00e7 00       		.byte	0
 10269 00e8 15       		.uleb128 0x15
 10270 00e9 15       		.uleb128 0x15
 10271 00ea 01       		.byte	0x1
 10272 00eb 27       		.uleb128 0x27
 10273 00ec 19       		.uleb128 0x19
 10274 00ed 01       		.uleb128 0x1
 10275 00ee 13       		.uleb128 0x13
 10276 00ef 00       		.byte	0
 10277 00f0 00       		.byte	0
 10278 00f1 16       		.uleb128 0x16
 10279 00f2 05       		.uleb128 0x5
 10280 00f3 00       		.byte	0
 10281 00f4 49       		.uleb128 0x49
 10282 00f5 13       		.uleb128 0x13
 10283 00f6 00       		.byte	0
 10284 00f7 00       		.byte	0
 10285 00f8 17       		.uleb128 0x17
 10286 00f9 15       		.uleb128 0x15
 10287 00fa 01       		.byte	0x1
 10288 00fb 27       		.uleb128 0x27
 10289 00fc 19       		.uleb128 0x19
 10290 00fd 49       		.uleb128 0x49
 10291 00fe 13       		.uleb128 0x13
 10292 00ff 01       		.uleb128 0x1
 10293 0100 13       		.uleb128 0x13
 10294 0101 00       		.byte	0
 10295 0102 00       		.byte	0
 10296 0103 18       		.uleb128 0x18
 10297 0104 13       		.uleb128 0x13
ARM GAS  C:\Users\seeho\AppData\Local\Temp\ccUkk7Dc.s 			page 234


 10298 0105 01       		.byte	0x1
 10299 0106 03       		.uleb128 0x3
 10300 0107 0E       		.uleb128 0xe
 10301 0108 0B       		.uleb128 0xb
 10302 0109 0B       		.uleb128 0xb
 10303 010a 3A       		.uleb128 0x3a
 10304 010b 0B       		.uleb128 0xb
 10305 010c 3B       		.uleb128 0x3b
 10306 010d 05       		.uleb128 0x5
 10307 010e 01       		.uleb128 0x1
 10308 010f 13       		.uleb128 0x13
 10309 0110 00       		.byte	0
 10310 0111 00       		.byte	0
 10311 0112 19       		.uleb128 0x19
 10312 0113 0D       		.uleb128 0xd
 10313 0114 00       		.byte	0
 10314 0115 03       		.uleb128 0x3
 10315 0116 0E       		.uleb128 0xe
 10316 0117 3A       		.uleb128 0x3a
 10317 0118 0B       		.uleb128 0xb
 10318 0119 3B       		.uleb128 0x3b
 10319 011a 05       		.uleb128 0x5
 10320 011b 49       		.uleb128 0x49
 10321 011c 13       		.uleb128 0x13
 10322 011d 38       		.uleb128 0x38
 10323 011e 0B       		.uleb128 0xb
 10324 011f 00       		.byte	0
 10325 0120 00       		.byte	0
 10326 0121 1A       		.uleb128 0x1a
 10327 0122 13       		.uleb128 0x13
 10328 0123 01       		.byte	0x1
 10329 0124 03       		.uleb128 0x3
 10330 0125 0E       		.uleb128 0xe
 10331 0126 0B       		.uleb128 0xb
 10332 0127 0B       		.uleb128 0xb
 10333 0128 3A       		.uleb128 0x3a
 10334 0129 0B       		.uleb128 0xb
 10335 012a 3B       		.uleb128 0x3b
 10336 012b 0B       		.uleb128 0xb
 10337 012c 01       		.uleb128 0x1
 10338 012d 13       		.uleb128 0x13
 10339 012e 00       		.byte	0
 10340 012f 00       		.byte	0
 10341 0130 1B       		.uleb128 0x1b
 10342 0131 17       		.uleb128 0x17
 10343 0132 01       		.byte	0x1
 10344 0133 0B       		.uleb128 0xb
 10345 0134 0B       		.uleb128 0xb
 10346 0135 3A       		.uleb128 0x3a
 10347 0136 0B       		.uleb128 0xb
 10348 0137 3B       		.uleb128 0x3b
 10349 0138 0B       		.uleb128 0xb
 10350 0139 01       		.uleb128 0x1
 10351 013a 13       		.uleb128 0x13
 10352 013b 00       		.byte	0
 10353 013c 00       		.byte	0
 10354 013d 1C       		.uleb128 0x1c
ARM GAS  C:\Users\seeho\AppData\Local\Temp\ccUkk7Dc.s 			page 235


 10355 013e 0D       		.uleb128 0xd
 10356 013f 00       		.byte	0
 10357 0140 03       		.uleb128 0x3
 10358 0141 0E       		.uleb128 0xe
 10359 0142 3A       		.uleb128 0x3a
 10360 0143 0B       		.uleb128 0xb
 10361 0144 3B       		.uleb128 0x3b
 10362 0145 0B       		.uleb128 0xb
 10363 0146 49       		.uleb128 0x49
 10364 0147 13       		.uleb128 0x13
 10365 0148 00       		.byte	0
 10366 0149 00       		.byte	0
 10367 014a 1D       		.uleb128 0x1d
 10368 014b 13       		.uleb128 0x13
 10369 014c 01       		.byte	0x1
 10370 014d 03       		.uleb128 0x3
 10371 014e 0E       		.uleb128 0xe
 10372 014f 0B       		.uleb128 0xb
 10373 0150 05       		.uleb128 0x5
 10374 0151 3A       		.uleb128 0x3a
 10375 0152 0B       		.uleb128 0xb
 10376 0153 3B       		.uleb128 0x3b
 10377 0154 0B       		.uleb128 0xb
 10378 0155 01       		.uleb128 0x1
 10379 0156 13       		.uleb128 0x13
 10380 0157 00       		.byte	0
 10381 0158 00       		.byte	0
 10382 0159 1E       		.uleb128 0x1e
 10383 015a 13       		.uleb128 0x13
 10384 015b 01       		.byte	0x1
 10385 015c 03       		.uleb128 0x3
 10386 015d 0E       		.uleb128 0xe
 10387 015e 0B       		.uleb128 0xb
 10388 015f 05       		.uleb128 0x5
 10389 0160 3A       		.uleb128 0x3a
 10390 0161 0B       		.uleb128 0xb
 10391 0162 3B       		.uleb128 0x3b
 10392 0163 05       		.uleb128 0x5
 10393 0164 01       		.uleb128 0x1
 10394 0165 13       		.uleb128 0x13
 10395 0166 00       		.byte	0
 10396 0167 00       		.byte	0
 10397 0168 1F       		.uleb128 0x1f
 10398 0169 0D       		.uleb128 0xd
 10399 016a 00       		.byte	0
 10400 016b 03       		.uleb128 0x3
 10401 016c 0E       		.uleb128 0xe
 10402 016d 3A       		.uleb128 0x3a
 10403 016e 0B       		.uleb128 0xb
 10404 016f 3B       		.uleb128 0x3b
 10405 0170 05       		.uleb128 0x5
 10406 0171 49       		.uleb128 0x49
 10407 0172 13       		.uleb128 0x13
 10408 0173 38       		.uleb128 0x38
 10409 0174 05       		.uleb128 0x5
 10410 0175 00       		.byte	0
 10411 0176 00       		.byte	0
ARM GAS  C:\Users\seeho\AppData\Local\Temp\ccUkk7Dc.s 			page 236


 10412 0177 20       		.uleb128 0x20
 10413 0178 13       		.uleb128 0x13
 10414 0179 01       		.byte	0x1
 10415 017a 0B       		.uleb128 0xb
 10416 017b 0B       		.uleb128 0xb
 10417 017c 3A       		.uleb128 0x3a
 10418 017d 0B       		.uleb128 0xb
 10419 017e 3B       		.uleb128 0x3b
 10420 017f 05       		.uleb128 0x5
 10421 0180 01       		.uleb128 0x1
 10422 0181 13       		.uleb128 0x13
 10423 0182 00       		.byte	0
 10424 0183 00       		.byte	0
 10425 0184 21       		.uleb128 0x21
 10426 0185 17       		.uleb128 0x17
 10427 0186 01       		.byte	0x1
 10428 0187 0B       		.uleb128 0xb
 10429 0188 0B       		.uleb128 0xb
 10430 0189 3A       		.uleb128 0x3a
 10431 018a 0B       		.uleb128 0xb
 10432 018b 3B       		.uleb128 0x3b
 10433 018c 05       		.uleb128 0x5
 10434 018d 01       		.uleb128 0x1
 10435 018e 13       		.uleb128 0x13
 10436 018f 00       		.byte	0
 10437 0190 00       		.byte	0
 10438 0191 22       		.uleb128 0x22
 10439 0192 0D       		.uleb128 0xd
 10440 0193 00       		.byte	0
 10441 0194 03       		.uleb128 0x3
 10442 0195 0E       		.uleb128 0xe
 10443 0196 3A       		.uleb128 0x3a
 10444 0197 0B       		.uleb128 0xb
 10445 0198 3B       		.uleb128 0x3b
 10446 0199 05       		.uleb128 0x5
 10447 019a 49       		.uleb128 0x49
 10448 019b 13       		.uleb128 0x13
 10449 019c 00       		.byte	0
 10450 019d 00       		.byte	0
 10451 019e 23       		.uleb128 0x23
 10452 019f 28       		.uleb128 0x28
 10453 01a0 00       		.byte	0
 10454 01a1 03       		.uleb128 0x3
 10455 01a2 0E       		.uleb128 0xe
 10456 01a3 1C       		.uleb128 0x1c
 10457 01a4 05       		.uleb128 0x5
 10458 01a5 00       		.byte	0
 10459 01a6 00       		.byte	0
 10460 01a7 24       		.uleb128 0x24
 10461 01a8 0D       		.uleb128 0xd
 10462 01a9 00       		.byte	0
 10463 01aa 03       		.uleb128 0x3
 10464 01ab 08       		.uleb128 0x8
 10465 01ac 3A       		.uleb128 0x3a
 10466 01ad 0B       		.uleb128 0xb
 10467 01ae 3B       		.uleb128 0x3b
 10468 01af 05       		.uleb128 0x5
ARM GAS  C:\Users\seeho\AppData\Local\Temp\ccUkk7Dc.s 			page 237


 10469 01b0 49       		.uleb128 0x49
 10470 01b1 13       		.uleb128 0x13
 10471 01b2 38       		.uleb128 0x38
 10472 01b3 0B       		.uleb128 0xb
 10473 01b4 00       		.byte	0
 10474 01b5 00       		.byte	0
 10475 01b6 25       		.uleb128 0x25
 10476 01b7 04       		.uleb128 0x4
 10477 01b8 01       		.byte	0x1
 10478 01b9 0B       		.uleb128 0xb
 10479 01ba 0B       		.uleb128 0xb
 10480 01bb 49       		.uleb128 0x49
 10481 01bc 13       		.uleb128 0x13
 10482 01bd 3A       		.uleb128 0x3a
 10483 01be 0B       		.uleb128 0xb
 10484 01bf 3B       		.uleb128 0x3b
 10485 01c0 0B       		.uleb128 0xb
 10486 01c1 01       		.uleb128 0x1
 10487 01c2 13       		.uleb128 0x13
 10488 01c3 00       		.byte	0
 10489 01c4 00       		.byte	0
 10490 01c5 26       		.uleb128 0x26
 10491 01c6 2E       		.uleb128 0x2e
 10492 01c7 01       		.byte	0x1
 10493 01c8 03       		.uleb128 0x3
 10494 01c9 0E       		.uleb128 0xe
 10495 01ca 3A       		.uleb128 0x3a
 10496 01cb 0B       		.uleb128 0xb
 10497 01cc 3B       		.uleb128 0x3b
 10498 01cd 05       		.uleb128 0x5
 10499 01ce 27       		.uleb128 0x27
 10500 01cf 19       		.uleb128 0x19
 10501 01d0 20       		.uleb128 0x20
 10502 01d1 0B       		.uleb128 0xb
 10503 01d2 01       		.uleb128 0x1
 10504 01d3 13       		.uleb128 0x13
 10505 01d4 00       		.byte	0
 10506 01d5 00       		.byte	0
 10507 01d6 27       		.uleb128 0x27
 10508 01d7 05       		.uleb128 0x5
 10509 01d8 00       		.byte	0
 10510 01d9 03       		.uleb128 0x3
 10511 01da 0E       		.uleb128 0xe
 10512 01db 3A       		.uleb128 0x3a
 10513 01dc 0B       		.uleb128 0xb
 10514 01dd 3B       		.uleb128 0x3b
 10515 01de 05       		.uleb128 0x5
 10516 01df 49       		.uleb128 0x49
 10517 01e0 13       		.uleb128 0x13
 10518 01e1 00       		.byte	0
 10519 01e2 00       		.byte	0
 10520 01e3 28       		.uleb128 0x28
 10521 01e4 2E       		.uleb128 0x2e
 10522 01e5 00       		.byte	0
 10523 01e6 03       		.uleb128 0x3
 10524 01e7 0E       		.uleb128 0xe
 10525 01e8 3A       		.uleb128 0x3a
ARM GAS  C:\Users\seeho\AppData\Local\Temp\ccUkk7Dc.s 			page 238


 10526 01e9 0B       		.uleb128 0xb
 10527 01ea 3B       		.uleb128 0x3b
 10528 01eb 0B       		.uleb128 0xb
 10529 01ec 27       		.uleb128 0x27
 10530 01ed 19       		.uleb128 0x19
 10531 01ee 20       		.uleb128 0x20
 10532 01ef 0B       		.uleb128 0xb
 10533 01f0 00       		.byte	0
 10534 01f1 00       		.byte	0
 10535 01f2 29       		.uleb128 0x29
 10536 01f3 2E       		.uleb128 0x2e
 10537 01f4 01       		.byte	0x1
 10538 01f5 3F       		.uleb128 0x3f
 10539 01f6 19       		.uleb128 0x19
 10540 01f7 03       		.uleb128 0x3
 10541 01f8 0E       		.uleb128 0xe
 10542 01f9 3A       		.uleb128 0x3a
 10543 01fa 0B       		.uleb128 0xb
 10544 01fb 3B       		.uleb128 0x3b
 10545 01fc 0B       		.uleb128 0xb
 10546 01fd 27       		.uleb128 0x27
 10547 01fe 19       		.uleb128 0x19
 10548 01ff 11       		.uleb128 0x11
 10549 0200 01       		.uleb128 0x1
 10550 0201 12       		.uleb128 0x12
 10551 0202 06       		.uleb128 0x6
 10552 0203 40       		.uleb128 0x40
 10553 0204 18       		.uleb128 0x18
 10554 0205 9742     		.uleb128 0x2117
 10555 0207 19       		.uleb128 0x19
 10556 0208 01       		.uleb128 0x1
 10557 0209 13       		.uleb128 0x13
 10558 020a 00       		.byte	0
 10559 020b 00       		.byte	0
 10560 020c 2A       		.uleb128 0x2a
 10561 020d 05       		.uleb128 0x5
 10562 020e 00       		.byte	0
 10563 020f 03       		.uleb128 0x3
 10564 0210 0E       		.uleb128 0xe
 10565 0211 3A       		.uleb128 0x3a
 10566 0212 0B       		.uleb128 0xb
 10567 0213 3B       		.uleb128 0x3b
 10568 0214 0B       		.uleb128 0xb
 10569 0215 49       		.uleb128 0x49
 10570 0216 13       		.uleb128 0x13
 10571 0217 02       		.uleb128 0x2
 10572 0218 17       		.uleb128 0x17
 10573 0219 00       		.byte	0
 10574 021a 00       		.byte	0
 10575 021b 2B       		.uleb128 0x2b
 10576 021c 34       		.uleb128 0x34
 10577 021d 00       		.byte	0
 10578 021e 03       		.uleb128 0x3
 10579 021f 0E       		.uleb128 0xe
 10580 0220 3A       		.uleb128 0x3a
 10581 0221 0B       		.uleb128 0xb
 10582 0222 3B       		.uleb128 0x3b
ARM GAS  C:\Users\seeho\AppData\Local\Temp\ccUkk7Dc.s 			page 239


 10583 0223 0B       		.uleb128 0xb
 10584 0224 49       		.uleb128 0x49
 10585 0225 13       		.uleb128 0x13
 10586 0226 1C       		.uleb128 0x1c
 10587 0227 0B       		.uleb128 0xb
 10588 0228 00       		.byte	0
 10589 0229 00       		.byte	0
 10590 022a 2C       		.uleb128 0x2c
 10591 022b 34       		.uleb128 0x34
 10592 022c 00       		.byte	0
 10593 022d 03       		.uleb128 0x3
 10594 022e 0E       		.uleb128 0xe
 10595 022f 3A       		.uleb128 0x3a
 10596 0230 0B       		.uleb128 0xb
 10597 0231 3B       		.uleb128 0x3b
 10598 0232 0B       		.uleb128 0xb
 10599 0233 49       		.uleb128 0x49
 10600 0234 13       		.uleb128 0x13
 10601 0235 02       		.uleb128 0x2
 10602 0236 17       		.uleb128 0x17
 10603 0237 00       		.byte	0
 10604 0238 00       		.byte	0
 10605 0239 2D       		.uleb128 0x2d
 10606 023a 0B       		.uleb128 0xb
 10607 023b 01       		.byte	0x1
 10608 023c 11       		.uleb128 0x11
 10609 023d 01       		.uleb128 0x1
 10610 023e 12       		.uleb128 0x12
 10611 023f 06       		.uleb128 0x6
 10612 0240 01       		.uleb128 0x1
 10613 0241 13       		.uleb128 0x13
 10614 0242 00       		.byte	0
 10615 0243 00       		.byte	0
 10616 0244 2E       		.uleb128 0x2e
 10617 0245 898201   		.uleb128 0x4109
 10618 0248 00       		.byte	0
 10619 0249 11       		.uleb128 0x11
 10620 024a 01       		.uleb128 0x1
 10621 024b 31       		.uleb128 0x31
 10622 024c 13       		.uleb128 0x13
 10623 024d 00       		.byte	0
 10624 024e 00       		.byte	0
 10625 024f 2F       		.uleb128 0x2f
 10626 0250 898201   		.uleb128 0x4109
 10627 0253 01       		.byte	0x1
 10628 0254 11       		.uleb128 0x11
 10629 0255 01       		.uleb128 0x1
 10630 0256 31       		.uleb128 0x31
 10631 0257 13       		.uleb128 0x13
 10632 0258 01       		.uleb128 0x1
 10633 0259 13       		.uleb128 0x13
 10634 025a 00       		.byte	0
 10635 025b 00       		.byte	0
 10636 025c 30       		.uleb128 0x30
 10637 025d 8A8201   		.uleb128 0x410a
 10638 0260 00       		.byte	0
 10639 0261 02       		.uleb128 0x2
ARM GAS  C:\Users\seeho\AppData\Local\Temp\ccUkk7Dc.s 			page 240


 10640 0262 18       		.uleb128 0x18
 10641 0263 9142     		.uleb128 0x2111
 10642 0265 18       		.uleb128 0x18
 10643 0266 00       		.byte	0
 10644 0267 00       		.byte	0
 10645 0268 31       		.uleb128 0x31
 10646 0269 898201   		.uleb128 0x4109
 10647 026c 01       		.byte	0x1
 10648 026d 11       		.uleb128 0x11
 10649 026e 01       		.uleb128 0x1
 10650 026f 31       		.uleb128 0x31
 10651 0270 13       		.uleb128 0x13
 10652 0271 00       		.byte	0
 10653 0272 00       		.byte	0
 10654 0273 32       		.uleb128 0x32
 10655 0274 2E       		.uleb128 0x2e
 10656 0275 01       		.byte	0x1
 10657 0276 3F       		.uleb128 0x3f
 10658 0277 19       		.uleb128 0x19
 10659 0278 03       		.uleb128 0x3
 10660 0279 0E       		.uleb128 0xe
 10661 027a 3A       		.uleb128 0x3a
 10662 027b 0B       		.uleb128 0xb
 10663 027c 3B       		.uleb128 0x3b
 10664 027d 05       		.uleb128 0x5
 10665 027e 11       		.uleb128 0x11
 10666 027f 01       		.uleb128 0x1
 10667 0280 12       		.uleb128 0x12
 10668 0281 06       		.uleb128 0x6
 10669 0282 40       		.uleb128 0x40
 10670 0283 18       		.uleb128 0x18
 10671 0284 9742     		.uleb128 0x2117
 10672 0286 19       		.uleb128 0x19
 10673 0287 01       		.uleb128 0x1
 10674 0288 13       		.uleb128 0x13
 10675 0289 00       		.byte	0
 10676 028a 00       		.byte	0
 10677 028b 33       		.uleb128 0x33
 10678 028c 34       		.uleb128 0x34
 10679 028d 00       		.byte	0
 10680 028e 03       		.uleb128 0x3
 10681 028f 0E       		.uleb128 0xe
 10682 0290 3A       		.uleb128 0x3a
 10683 0291 0B       		.uleb128 0xb
 10684 0292 3B       		.uleb128 0x3b
 10685 0293 05       		.uleb128 0x5
 10686 0294 49       		.uleb128 0x49
 10687 0295 13       		.uleb128 0x13
 10688 0296 02       		.uleb128 0x2
 10689 0297 18       		.uleb128 0x18
 10690 0298 00       		.byte	0
 10691 0299 00       		.byte	0
 10692 029a 34       		.uleb128 0x34
 10693 029b 2E       		.uleb128 0x2e
 10694 029c 01       		.byte	0x1
 10695 029d 3F       		.uleb128 0x3f
 10696 029e 19       		.uleb128 0x19
ARM GAS  C:\Users\seeho\AppData\Local\Temp\ccUkk7Dc.s 			page 241


 10697 029f 03       		.uleb128 0x3
 10698 02a0 0E       		.uleb128 0xe
 10699 02a1 3A       		.uleb128 0x3a
 10700 02a2 0B       		.uleb128 0xb
 10701 02a3 3B       		.uleb128 0x3b
 10702 02a4 05       		.uleb128 0x5
 10703 02a5 27       		.uleb128 0x27
 10704 02a6 19       		.uleb128 0x19
 10705 02a7 8701     		.uleb128 0x87
 10706 02a9 19       		.uleb128 0x19
 10707 02aa 11       		.uleb128 0x11
 10708 02ab 01       		.uleb128 0x1
 10709 02ac 12       		.uleb128 0x12
 10710 02ad 06       		.uleb128 0x6
 10711 02ae 40       		.uleb128 0x40
 10712 02af 18       		.uleb128 0x18
 10713 02b0 9742     		.uleb128 0x2117
 10714 02b2 19       		.uleb128 0x19
 10715 02b3 01       		.uleb128 0x1
 10716 02b4 13       		.uleb128 0x13
 10717 02b5 00       		.byte	0
 10718 02b6 00       		.byte	0
 10719 02b7 35       		.uleb128 0x35
 10720 02b8 05       		.uleb128 0x5
 10721 02b9 00       		.byte	0
 10722 02ba 03       		.uleb128 0x3
 10723 02bb 08       		.uleb128 0x8
 10724 02bc 3A       		.uleb128 0x3a
 10725 02bd 0B       		.uleb128 0xb
 10726 02be 3B       		.uleb128 0x3b
 10727 02bf 05       		.uleb128 0x5
 10728 02c0 49       		.uleb128 0x49
 10729 02c1 13       		.uleb128 0x13
 10730 02c2 02       		.uleb128 0x2
 10731 02c3 17       		.uleb128 0x17
 10732 02c4 00       		.byte	0
 10733 02c5 00       		.byte	0
 10734 02c6 36       		.uleb128 0x36
 10735 02c7 1D       		.uleb128 0x1d
 10736 02c8 01       		.byte	0x1
 10737 02c9 31       		.uleb128 0x31
 10738 02ca 13       		.uleb128 0x13
 10739 02cb 11       		.uleb128 0x11
 10740 02cc 01       		.uleb128 0x1
 10741 02cd 12       		.uleb128 0x12
 10742 02ce 06       		.uleb128 0x6
 10743 02cf 58       		.uleb128 0x58
 10744 02d0 0B       		.uleb128 0xb
 10745 02d1 59       		.uleb128 0x59
 10746 02d2 0B       		.uleb128 0xb
 10747 02d3 01       		.uleb128 0x1
 10748 02d4 13       		.uleb128 0x13
 10749 02d5 00       		.byte	0
 10750 02d6 00       		.byte	0
 10751 02d7 37       		.uleb128 0x37
 10752 02d8 05       		.uleb128 0x5
 10753 02d9 00       		.byte	0
ARM GAS  C:\Users\seeho\AppData\Local\Temp\ccUkk7Dc.s 			page 242


 10754 02da 31       		.uleb128 0x31
 10755 02db 13       		.uleb128 0x13
 10756 02dc 02       		.uleb128 0x2
 10757 02dd 17       		.uleb128 0x17
 10758 02de 00       		.byte	0
 10759 02df 00       		.byte	0
 10760 02e0 38       		.uleb128 0x38
 10761 02e1 1D       		.uleb128 0x1d
 10762 02e2 01       		.byte	0x1
 10763 02e3 31       		.uleb128 0x31
 10764 02e4 13       		.uleb128 0x13
 10765 02e5 11       		.uleb128 0x11
 10766 02e6 01       		.uleb128 0x1
 10767 02e7 12       		.uleb128 0x12
 10768 02e8 06       		.uleb128 0x6
 10769 02e9 58       		.uleb128 0x58
 10770 02ea 0B       		.uleb128 0xb
 10771 02eb 59       		.uleb128 0x59
 10772 02ec 05       		.uleb128 0x5
 10773 02ed 01       		.uleb128 0x1
 10774 02ee 13       		.uleb128 0x13
 10775 02ef 00       		.byte	0
 10776 02f0 00       		.byte	0
 10777 02f1 39       		.uleb128 0x39
 10778 02f2 05       		.uleb128 0x5
 10779 02f3 00       		.byte	0
 10780 02f4 31       		.uleb128 0x31
 10781 02f5 13       		.uleb128 0x13
 10782 02f6 1C       		.uleb128 0x1c
 10783 02f7 0B       		.uleb128 0xb
 10784 02f8 00       		.byte	0
 10785 02f9 00       		.byte	0
 10786 02fa 3A       		.uleb128 0x3a
 10787 02fb 05       		.uleb128 0x5
 10788 02fc 00       		.byte	0
 10789 02fd 31       		.uleb128 0x31
 10790 02fe 13       		.uleb128 0x13
 10791 02ff 1C       		.uleb128 0x1c
 10792 0300 06       		.uleb128 0x6
 10793 0301 00       		.byte	0
 10794 0302 00       		.byte	0
 10795 0303 3B       		.uleb128 0x3b
 10796 0304 2E       		.uleb128 0x2e
 10797 0305 01       		.byte	0x1
 10798 0306 3F       		.uleb128 0x3f
 10799 0307 19       		.uleb128 0x19
 10800 0308 03       		.uleb128 0x3
 10801 0309 0E       		.uleb128 0xe
 10802 030a 3A       		.uleb128 0x3a
 10803 030b 0B       		.uleb128 0xb
 10804 030c 3B       		.uleb128 0x3b
 10805 030d 05       		.uleb128 0x5
 10806 030e 27       		.uleb128 0x27
 10807 030f 19       		.uleb128 0x19
 10808 0310 11       		.uleb128 0x11
 10809 0311 01       		.uleb128 0x1
 10810 0312 12       		.uleb128 0x12
ARM GAS  C:\Users\seeho\AppData\Local\Temp\ccUkk7Dc.s 			page 243


 10811 0313 06       		.uleb128 0x6
 10812 0314 40       		.uleb128 0x40
 10813 0315 18       		.uleb128 0x18
 10814 0316 9742     		.uleb128 0x2117
 10815 0318 19       		.uleb128 0x19
 10816 0319 01       		.uleb128 0x1
 10817 031a 13       		.uleb128 0x13
 10818 031b 00       		.byte	0
 10819 031c 00       		.byte	0
 10820 031d 3C       		.uleb128 0x3c
 10821 031e 05       		.uleb128 0x5
 10822 031f 00       		.byte	0
 10823 0320 03       		.uleb128 0x3
 10824 0321 0E       		.uleb128 0xe
 10825 0322 3A       		.uleb128 0x3a
 10826 0323 0B       		.uleb128 0xb
 10827 0324 3B       		.uleb128 0x3b
 10828 0325 05       		.uleb128 0x5
 10829 0326 49       		.uleb128 0x49
 10830 0327 13       		.uleb128 0x13
 10831 0328 02       		.uleb128 0x2
 10832 0329 17       		.uleb128 0x17
 10833 032a 00       		.byte	0
 10834 032b 00       		.byte	0
 10835 032c 3D       		.uleb128 0x3d
 10836 032d 34       		.uleb128 0x34
 10837 032e 00       		.byte	0
 10838 032f 03       		.uleb128 0x3
 10839 0330 0E       		.uleb128 0xe
 10840 0331 3A       		.uleb128 0x3a
 10841 0332 0B       		.uleb128 0xb
 10842 0333 3B       		.uleb128 0x3b
 10843 0334 05       		.uleb128 0x5
 10844 0335 49       		.uleb128 0x49
 10845 0336 13       		.uleb128 0x13
 10846 0337 02       		.uleb128 0x2
 10847 0338 17       		.uleb128 0x17
 10848 0339 00       		.byte	0
 10849 033a 00       		.byte	0
 10850 033b 3E       		.uleb128 0x3e
 10851 033c 34       		.uleb128 0x34
 10852 033d 00       		.byte	0
 10853 033e 03       		.uleb128 0x3
 10854 033f 08       		.uleb128 0x8
 10855 0340 3A       		.uleb128 0x3a
 10856 0341 0B       		.uleb128 0xb
 10857 0342 3B       		.uleb128 0x3b
 10858 0343 05       		.uleb128 0x5
 10859 0344 49       		.uleb128 0x49
 10860 0345 13       		.uleb128 0x13
 10861 0346 02       		.uleb128 0x2
 10862 0347 17       		.uleb128 0x17
 10863 0348 00       		.byte	0
 10864 0349 00       		.byte	0
 10865 034a 3F       		.uleb128 0x3f
 10866 034b 2E       		.uleb128 0x2e
 10867 034c 01       		.byte	0x1
ARM GAS  C:\Users\seeho\AppData\Local\Temp\ccUkk7Dc.s 			page 244


 10868 034d 3F       		.uleb128 0x3f
 10869 034e 19       		.uleb128 0x19
 10870 034f 03       		.uleb128 0x3
 10871 0350 0E       		.uleb128 0xe
 10872 0351 3A       		.uleb128 0x3a
 10873 0352 0B       		.uleb128 0xb
 10874 0353 3B       		.uleb128 0x3b
 10875 0354 05       		.uleb128 0x5
 10876 0355 27       		.uleb128 0x27
 10877 0356 19       		.uleb128 0x19
 10878 0357 49       		.uleb128 0x49
 10879 0358 13       		.uleb128 0x13
 10880 0359 8701     		.uleb128 0x87
 10881 035b 19       		.uleb128 0x19
 10882 035c 11       		.uleb128 0x11
 10883 035d 01       		.uleb128 0x1
 10884 035e 12       		.uleb128 0x12
 10885 035f 06       		.uleb128 0x6
 10886 0360 40       		.uleb128 0x40
 10887 0361 18       		.uleb128 0x18
 10888 0362 9742     		.uleb128 0x2117
 10889 0364 19       		.uleb128 0x19
 10890 0365 01       		.uleb128 0x1
 10891 0366 13       		.uleb128 0x13
 10892 0367 00       		.byte	0
 10893 0368 00       		.byte	0
 10894 0369 40       		.uleb128 0x40
 10895 036a 1D       		.uleb128 0x1d
 10896 036b 00       		.byte	0
 10897 036c 31       		.uleb128 0x31
 10898 036d 13       		.uleb128 0x13
 10899 036e 11       		.uleb128 0x11
 10900 036f 01       		.uleb128 0x1
 10901 0370 12       		.uleb128 0x12
 10902 0371 06       		.uleb128 0x6
 10903 0372 58       		.uleb128 0x58
 10904 0373 0B       		.uleb128 0xb
 10905 0374 59       		.uleb128 0x59
 10906 0375 05       		.uleb128 0x5
 10907 0376 00       		.byte	0
 10908 0377 00       		.byte	0
 10909 0378 41       		.uleb128 0x41
 10910 0379 34       		.uleb128 0x34
 10911 037a 00       		.byte	0
 10912 037b 03       		.uleb128 0x3
 10913 037c 0E       		.uleb128 0xe
 10914 037d 3A       		.uleb128 0x3a
 10915 037e 0B       		.uleb128 0xb
 10916 037f 3B       		.uleb128 0x3b
 10917 0380 05       		.uleb128 0x5
 10918 0381 49       		.uleb128 0x49
 10919 0382 13       		.uleb128 0x13
 10920 0383 3F       		.uleb128 0x3f
 10921 0384 19       		.uleb128 0x19
 10922 0385 3C       		.uleb128 0x3c
 10923 0386 19       		.uleb128 0x19
 10924 0387 00       		.byte	0
ARM GAS  C:\Users\seeho\AppData\Local\Temp\ccUkk7Dc.s 			page 245


 10925 0388 00       		.byte	0
 10926 0389 42       		.uleb128 0x42
 10927 038a 34       		.uleb128 0x34
 10928 038b 00       		.byte	0
 10929 038c 03       		.uleb128 0x3
 10930 038d 0E       		.uleb128 0xe
 10931 038e 3A       		.uleb128 0x3a
 10932 038f 0B       		.uleb128 0xb
 10933 0390 3B       		.uleb128 0x3b
 10934 0391 0B       		.uleb128 0xb
 10935 0392 49       		.uleb128 0x49
 10936 0393 13       		.uleb128 0x13
 10937 0394 3F       		.uleb128 0x3f
 10938 0395 19       		.uleb128 0x19
 10939 0396 3C       		.uleb128 0x3c
 10940 0397 19       		.uleb128 0x19
 10941 0398 00       		.byte	0
 10942 0399 00       		.byte	0
 10943 039a 43       		.uleb128 0x43
 10944 039b 34       		.uleb128 0x34
 10945 039c 00       		.byte	0
 10946 039d 03       		.uleb128 0x3
 10947 039e 08       		.uleb128 0x8
 10948 039f 3A       		.uleb128 0x3a
 10949 03a0 0B       		.uleb128 0xb
 10950 03a1 3B       		.uleb128 0x3b
 10951 03a2 0B       		.uleb128 0xb
 10952 03a3 49       		.uleb128 0x49
 10953 03a4 13       		.uleb128 0x13
 10954 03a5 3F       		.uleb128 0x3f
 10955 03a6 19       		.uleb128 0x19
 10956 03a7 02       		.uleb128 0x2
 10957 03a8 18       		.uleb128 0x18
 10958 03a9 00       		.byte	0
 10959 03aa 00       		.byte	0
 10960 03ab 44       		.uleb128 0x44
 10961 03ac 34       		.uleb128 0x34
 10962 03ad 00       		.byte	0
 10963 03ae 03       		.uleb128 0x3
 10964 03af 0E       		.uleb128 0xe
 10965 03b0 3A       		.uleb128 0x3a
 10966 03b1 0B       		.uleb128 0xb
 10967 03b2 3B       		.uleb128 0x3b
 10968 03b3 0B       		.uleb128 0xb
 10969 03b4 49       		.uleb128 0x49
 10970 03b5 13       		.uleb128 0x13
 10971 03b6 3F       		.uleb128 0x3f
 10972 03b7 19       		.uleb128 0x19
 10973 03b8 02       		.uleb128 0x2
 10974 03b9 18       		.uleb128 0x18
 10975 03ba 00       		.byte	0
 10976 03bb 00       		.byte	0
 10977 03bc 45       		.uleb128 0x45
 10978 03bd 2E       		.uleb128 0x2e
 10979 03be 00       		.byte	0
 10980 03bf 3F       		.uleb128 0x3f
 10981 03c0 19       		.uleb128 0x19
ARM GAS  C:\Users\seeho\AppData\Local\Temp\ccUkk7Dc.s 			page 246


 10982 03c1 3C       		.uleb128 0x3c
 10983 03c2 19       		.uleb128 0x19
 10984 03c3 6E       		.uleb128 0x6e
 10985 03c4 0E       		.uleb128 0xe
 10986 03c5 03       		.uleb128 0x3
 10987 03c6 0E       		.uleb128 0xe
 10988 03c7 3A       		.uleb128 0x3a
 10989 03c8 0B       		.uleb128 0xb
 10990 03c9 3B       		.uleb128 0x3b
 10991 03ca 05       		.uleb128 0x5
 10992 03cb 00       		.byte	0
 10993 03cc 00       		.byte	0
 10994 03cd 46       		.uleb128 0x46
 10995 03ce 2E       		.uleb128 0x2e
 10996 03cf 00       		.byte	0
 10997 03d0 3F       		.uleb128 0x3f
 10998 03d1 19       		.uleb128 0x19
 10999 03d2 3C       		.uleb128 0x3c
 11000 03d3 19       		.uleb128 0x19
 11001 03d4 6E       		.uleb128 0x6e
 11002 03d5 0E       		.uleb128 0xe
 11003 03d6 03       		.uleb128 0x3
 11004 03d7 0E       		.uleb128 0xe
 11005 03d8 3A       		.uleb128 0x3a
 11006 03d9 0B       		.uleb128 0xb
 11007 03da 3B       		.uleb128 0x3b
 11008 03db 0B       		.uleb128 0xb
 11009 03dc 00       		.byte	0
 11010 03dd 00       		.byte	0
 11011 03de 47       		.uleb128 0x47
 11012 03df 2E       		.uleb128 0x2e
 11013 03e0 00       		.byte	0
 11014 03e1 3F       		.uleb128 0x3f
 11015 03e2 19       		.uleb128 0x19
 11016 03e3 3C       		.uleb128 0x3c
 11017 03e4 19       		.uleb128 0x19
 11018 03e5 6E       		.uleb128 0x6e
 11019 03e6 0E       		.uleb128 0xe
 11020 03e7 03       		.uleb128 0x3
 11021 03e8 0E       		.uleb128 0xe
 11022 03e9 3A       		.uleb128 0x3a
 11023 03ea 0B       		.uleb128 0xb
 11024 03eb 3B       		.uleb128 0x3b
 11025 03ec 0B       		.uleb128 0xb
 11026 03ed 6E       		.uleb128 0x6e
 11027 03ee 0E       		.uleb128 0xe
 11028 03ef 00       		.byte	0
 11029 03f0 00       		.byte	0
 11030 03f1 00       		.byte	0
 11031              		.section	.debug_loc,"",%progbits
 11032              	.Ldebug_loc0:
 11033              	.LLST0:
 11034 0000 00000000 		.4byte	.LVL0
 11035 0004 09000000 		.4byte	.LVL2-1
 11036 0008 0100     		.2byte	0x1
 11037 000a 50       		.byte	0x50
 11038 000b 09000000 		.4byte	.LVL2-1
ARM GAS  C:\Users\seeho\AppData\Local\Temp\ccUkk7Dc.s 			page 247


 11039 000f 7E000000 		.4byte	.LVL18
 11040 0013 0100     		.2byte	0x1
 11041 0015 55       		.byte	0x55
 11042 0016 7E000000 		.4byte	.LVL18
 11043 001a 98000000 		.4byte	.LFE639
 11044 001e 0400     		.2byte	0x4
 11045 0020 F3       		.byte	0xf3
 11046 0021 01       		.uleb128 0x1
 11047 0022 50       		.byte	0x50
 11048 0023 9F       		.byte	0x9f
 11049 0024 00000000 		.4byte	0
 11050 0028 00000000 		.4byte	0
 11051              	.LLST1:
 11052 002c 0C000000 		.4byte	.LVL3
 11053 0030 10000000 		.4byte	.LVL4
 11054 0034 0100     		.2byte	0x1
 11055 0036 50       		.byte	0x50
 11056 0037 10000000 		.4byte	.LVL4
 11057 003b 13000000 		.4byte	.LVL5-1
 11058 003f 0100     		.2byte	0x1
 11059 0041 51       		.byte	0x51
 11060 0042 13000000 		.4byte	.LVL5-1
 11061 0046 32000000 		.4byte	.LVL10
 11062 004a 0100     		.2byte	0x1
 11063 004c 54       		.byte	0x54
 11064 004d 60000000 		.4byte	.LVL15
 11065 0051 7A000000 		.4byte	.LVL17
 11066 0055 0100     		.2byte	0x1
 11067 0057 54       		.byte	0x54
 11068 0058 00000000 		.4byte	0
 11069 005c 00000000 		.4byte	0
 11070              	.LLST2:
 11071 0060 22000000 		.4byte	.LVL7
 11072 0064 28000000 		.4byte	.LVL8
 11073 0068 0100     		.2byte	0x1
 11074 006a 50       		.byte	0x50
 11075 006b 28000000 		.4byte	.LVL8
 11076 006f 2B000000 		.4byte	.LVL9-1
 11077 0073 0100     		.2byte	0x1
 11078 0075 51       		.byte	0x51
 11079 0076 00000000 		.4byte	0
 11080 007a 00000000 		.4byte	0
 11081              	.LLST3:
 11082 007e 00000000 		.4byte	.LVL20
 11083 0082 04000000 		.4byte	.LVL21
 11084 0086 0100     		.2byte	0x1
 11085 0088 50       		.byte	0x50
 11086 0089 04000000 		.4byte	.LVL21
 11087 008d 84000000 		.4byte	.LFE649
 11088 0091 0400     		.2byte	0x4
 11089 0093 F3       		.byte	0xf3
 11090 0094 01       		.uleb128 0x1
 11091 0095 50       		.byte	0x50
 11092 0096 9F       		.byte	0x9f
 11093 0097 00000000 		.4byte	0
 11094 009b 00000000 		.4byte	0
 11095              	.LLST4:
ARM GAS  C:\Users\seeho\AppData\Local\Temp\ccUkk7Dc.s 			page 248


 11096 009f 2C000000 		.4byte	.LVL58
 11097 00a3 32000000 		.4byte	.LVL59
 11098 00a7 0200     		.2byte	0x2
 11099 00a9 30       		.byte	0x30
 11100 00aa 9F       		.byte	0x9f
 11101 00ab 00000000 		.4byte	0
 11102 00af 00000000 		.4byte	0
 11103              	.LLST5:
 11104 00b3 2C000000 		.4byte	.LVL58
 11105 00b7 32000000 		.4byte	.LVL59
 11106 00bb 0200     		.2byte	0x2
 11107 00bd 33       		.byte	0x33
 11108 00be 9F       		.byte	0x9f
 11109 00bf 00000000 		.4byte	0
 11110 00c3 00000000 		.4byte	0
 11111              	.LLST6:
 11112 00c7 2C000000 		.4byte	.LVL58
 11113 00cb 32000000 		.4byte	.LVL59
 11114 00cf 0600     		.2byte	0x6
 11115 00d1 0C       		.byte	0xc
 11116 00d2 80043240 		.4byte	0x40320480
 11117 00d6 9F       		.byte	0x9f
 11118 00d7 00000000 		.4byte	0
 11119 00db 00000000 		.4byte	0
 11120              	.LLST7:
 11121 00df 32000000 		.4byte	.LVL59
 11122 00e3 36000000 		.4byte	.LVL60
 11123 00e7 0200     		.2byte	0x2
 11124 00e9 30       		.byte	0x30
 11125 00ea 9F       		.byte	0x9f
 11126 00eb 00000000 		.4byte	0
 11127 00ef 00000000 		.4byte	0
 11128              	.LLST8:
 11129 00f3 32000000 		.4byte	.LVL59
 11130 00f7 36000000 		.4byte	.LVL60
 11131 00fb 0200     		.2byte	0x2
 11132 00fd 32       		.byte	0x32
 11133 00fe 9F       		.byte	0x9f
 11134 00ff 00000000 		.4byte	0
 11135 0103 00000000 		.4byte	0
 11136              	.LLST9:
 11137 0107 32000000 		.4byte	.LVL59
 11138 010b 36000000 		.4byte	.LVL60
 11139 010f 0600     		.2byte	0x6
 11140 0111 0C       		.byte	0xc
 11141 0112 80043240 		.4byte	0x40320480
 11142 0116 9F       		.byte	0x9f
 11143 0117 00000000 		.4byte	0
 11144 011b 00000000 		.4byte	0
 11145              	.LLST10:
 11146 011f 36000000 		.4byte	.LVL60
 11147 0123 3A000000 		.4byte	.LVL61
 11148 0127 0200     		.2byte	0x2
 11149 0129 30       		.byte	0x30
 11150 012a 9F       		.byte	0x9f
 11151 012b 00000000 		.4byte	0
 11152 012f 00000000 		.4byte	0
ARM GAS  C:\Users\seeho\AppData\Local\Temp\ccUkk7Dc.s 			page 249


 11153              	.LLST11:
 11154 0133 36000000 		.4byte	.LVL60
 11155 0137 3A000000 		.4byte	.LVL61
 11156 013b 0200     		.2byte	0x2
 11157 013d 31       		.byte	0x31
 11158 013e 9F       		.byte	0x9f
 11159 013f 00000000 		.4byte	0
 11160 0143 00000000 		.4byte	0
 11161              	.LLST12:
 11162 0147 36000000 		.4byte	.LVL60
 11163 014b 3A000000 		.4byte	.LVL61
 11164 014f 0600     		.2byte	0x6
 11165 0151 0C       		.byte	0xc
 11166 0152 80043240 		.4byte	0x40320480
 11167 0156 9F       		.byte	0x9f
 11168 0157 00000000 		.4byte	0
 11169 015b 00000000 		.4byte	0
 11170              	.LLST13:
 11171 015f 3A000000 		.4byte	.LVL61
 11172 0163 40000000 		.4byte	.LVL62
 11173 0167 0200     		.2byte	0x2
 11174 0169 30       		.byte	0x30
 11175 016a 9F       		.byte	0x9f
 11176 016b 00000000 		.4byte	0
 11177 016f 00000000 		.4byte	0
 11178              	.LLST15:
 11179 0173 3A000000 		.4byte	.LVL61
 11180 0177 40000000 		.4byte	.LVL62
 11181 017b 0600     		.2byte	0x6
 11182 017d 0C       		.byte	0xc
 11183 017e 80043240 		.4byte	0x40320480
 11184 0182 9F       		.byte	0x9f
 11185 0183 00000000 		.4byte	0
 11186 0187 00000000 		.4byte	0
 11187              	.LLST16:
 11188 018b 46000000 		.4byte	.LVL63
 11189 018f 4C000000 		.4byte	.LVL64
 11190 0193 0200     		.2byte	0x2
 11191 0195 31       		.byte	0x31
 11192 0196 9F       		.byte	0x9f
 11193 0197 00000000 		.4byte	0
 11194 019b 00000000 		.4byte	0
 11195              	.LLST17:
 11196 019f 46000000 		.4byte	.LVL63
 11197 01a3 4C000000 		.4byte	.LVL64
 11198 01a7 0200     		.2byte	0x2
 11199 01a9 33       		.byte	0x33
 11200 01aa 9F       		.byte	0x9f
 11201 01ab 00000000 		.4byte	0
 11202 01af 00000000 		.4byte	0
 11203              	.LLST18:
 11204 01b3 46000000 		.4byte	.LVL63
 11205 01b7 4C000000 		.4byte	.LVL64
 11206 01bb 0600     		.2byte	0x6
 11207 01bd 0C       		.byte	0xc
 11208 01be 80043240 		.4byte	0x40320480
 11209 01c2 9F       		.byte	0x9f
ARM GAS  C:\Users\seeho\AppData\Local\Temp\ccUkk7Dc.s 			page 250


 11210 01c3 00000000 		.4byte	0
 11211 01c7 00000000 		.4byte	0
 11212              	.LLST19:
 11213 01cb 4C000000 		.4byte	.LVL64
 11214 01cf 50000000 		.4byte	.LVL65
 11215 01d3 0200     		.2byte	0x2
 11216 01d5 30       		.byte	0x30
 11217 01d6 9F       		.byte	0x9f
 11218 01d7 00000000 		.4byte	0
 11219 01db 00000000 		.4byte	0
 11220              	.LLST20:
 11221 01df 4C000000 		.4byte	.LVL64
 11222 01e3 50000000 		.4byte	.LVL65
 11223 01e7 0200     		.2byte	0x2
 11224 01e9 32       		.byte	0x32
 11225 01ea 9F       		.byte	0x9f
 11226 01eb 00000000 		.4byte	0
 11227 01ef 00000000 		.4byte	0
 11228              	.LLST21:
 11229 01f3 4C000000 		.4byte	.LVL64
 11230 01f7 50000000 		.4byte	.LVL65
 11231 01fb 0600     		.2byte	0x6
 11232 01fd 0C       		.byte	0xc
 11233 01fe 80043240 		.4byte	0x40320480
 11234 0202 9F       		.byte	0x9f
 11235 0203 00000000 		.4byte	0
 11236 0207 00000000 		.4byte	0
 11237              	.LLST22:
 11238 020b 50000000 		.4byte	.LVL65
 11239 020f 54000000 		.4byte	.LVL66
 11240 0213 0200     		.2byte	0x2
 11241 0215 30       		.byte	0x30
 11242 0216 9F       		.byte	0x9f
 11243 0217 00000000 		.4byte	0
 11244 021b 00000000 		.4byte	0
 11245              	.LLST23:
 11246 021f 50000000 		.4byte	.LVL65
 11247 0223 54000000 		.4byte	.LVL66
 11248 0227 0200     		.2byte	0x2
 11249 0229 31       		.byte	0x31
 11250 022a 9F       		.byte	0x9f
 11251 022b 00000000 		.4byte	0
 11252 022f 00000000 		.4byte	0
 11253              	.LLST24:
 11254 0233 50000000 		.4byte	.LVL65
 11255 0237 54000000 		.4byte	.LVL66
 11256 023b 0600     		.2byte	0x6
 11257 023d 0C       		.byte	0xc
 11258 023e 80043240 		.4byte	0x40320480
 11259 0242 9F       		.byte	0x9f
 11260 0243 00000000 		.4byte	0
 11261 0247 00000000 		.4byte	0
 11262              	.LLST25:
 11263 024b 54000000 		.4byte	.LVL66
 11264 024f 5A000000 		.4byte	.LVL67
 11265 0253 0200     		.2byte	0x2
 11266 0255 30       		.byte	0x30
ARM GAS  C:\Users\seeho\AppData\Local\Temp\ccUkk7Dc.s 			page 251


 11267 0256 9F       		.byte	0x9f
 11268 0257 00000000 		.4byte	0
 11269 025b 00000000 		.4byte	0
 11270              	.LLST27:
 11271 025f 54000000 		.4byte	.LVL66
 11272 0263 5A000000 		.4byte	.LVL67
 11273 0267 0600     		.2byte	0x6
 11274 0269 0C       		.byte	0xc
 11275 026a 80043240 		.4byte	0x40320480
 11276 026e 9F       		.byte	0x9f
 11277 026f 00000000 		.4byte	0
 11278 0273 00000000 		.4byte	0
 11279              	.LLST28:
 11280 0277 60000000 		.4byte	.LVL68
 11281 027b 66000000 		.4byte	.LVL69
 11282 027f 0200     		.2byte	0x2
 11283 0281 30       		.byte	0x30
 11284 0282 9F       		.byte	0x9f
 11285 0283 00000000 		.4byte	0
 11286 0287 00000000 		.4byte	0
 11287              	.LLST29:
 11288 028b 60000000 		.4byte	.LVL68
 11289 028f 66000000 		.4byte	.LVL69
 11290 0293 0200     		.2byte	0x2
 11291 0295 33       		.byte	0x33
 11292 0296 9F       		.byte	0x9f
 11293 0297 00000000 		.4byte	0
 11294 029b 00000000 		.4byte	0
 11295              	.LLST30:
 11296 029f 60000000 		.4byte	.LVL68
 11297 02a3 66000000 		.4byte	.LVL69
 11298 02a7 0600     		.2byte	0x6
 11299 02a9 0C       		.byte	0xc
 11300 02aa 80043240 		.4byte	0x40320480
 11301 02ae 9F       		.byte	0x9f
 11302 02af 00000000 		.4byte	0
 11303 02b3 00000000 		.4byte	0
 11304              	.LLST31:
 11305 02b7 66000000 		.4byte	.LVL69
 11306 02bb 6A000000 		.4byte	.LVL70
 11307 02bf 0200     		.2byte	0x2
 11308 02c1 31       		.byte	0x31
 11309 02c2 9F       		.byte	0x9f
 11310 02c3 00000000 		.4byte	0
 11311 02c7 00000000 		.4byte	0
 11312              	.LLST32:
 11313 02cb 66000000 		.4byte	.LVL69
 11314 02cf 6A000000 		.4byte	.LVL70
 11315 02d3 0200     		.2byte	0x2
 11316 02d5 32       		.byte	0x32
 11317 02d6 9F       		.byte	0x9f
 11318 02d7 00000000 		.4byte	0
 11319 02db 00000000 		.4byte	0
 11320              	.LLST33:
 11321 02df 66000000 		.4byte	.LVL69
 11322 02e3 6A000000 		.4byte	.LVL70
 11323 02e7 0600     		.2byte	0x6
ARM GAS  C:\Users\seeho\AppData\Local\Temp\ccUkk7Dc.s 			page 252


 11324 02e9 0C       		.byte	0xc
 11325 02ea 80043240 		.4byte	0x40320480
 11326 02ee 9F       		.byte	0x9f
 11327 02ef 00000000 		.4byte	0
 11328 02f3 00000000 		.4byte	0
 11329              	.LLST34:
 11330 02f7 6A000000 		.4byte	.LVL70
 11331 02fb 6E000000 		.4byte	.LVL71
 11332 02ff 0200     		.2byte	0x2
 11333 0301 30       		.byte	0x30
 11334 0302 9F       		.byte	0x9f
 11335 0303 00000000 		.4byte	0
 11336 0307 00000000 		.4byte	0
 11337              	.LLST35:
 11338 030b 6A000000 		.4byte	.LVL70
 11339 030f 6E000000 		.4byte	.LVL71
 11340 0313 0200     		.2byte	0x2
 11341 0315 31       		.byte	0x31
 11342 0316 9F       		.byte	0x9f
 11343 0317 00000000 		.4byte	0
 11344 031b 00000000 		.4byte	0
 11345              	.LLST36:
 11346 031f 6A000000 		.4byte	.LVL70
 11347 0323 6E000000 		.4byte	.LVL71
 11348 0327 0600     		.2byte	0x6
 11349 0329 0C       		.byte	0xc
 11350 032a 80043240 		.4byte	0x40320480
 11351 032e 9F       		.byte	0x9f
 11352 032f 00000000 		.4byte	0
 11353 0333 00000000 		.4byte	0
 11354              	.LLST37:
 11355 0337 6E000000 		.4byte	.LVL71
 11356 033b 74000000 		.4byte	.LVL72
 11357 033f 0200     		.2byte	0x2
 11358 0341 30       		.byte	0x30
 11359 0342 9F       		.byte	0x9f
 11360 0343 00000000 		.4byte	0
 11361 0347 00000000 		.4byte	0
 11362              	.LLST39:
 11363 034b 6E000000 		.4byte	.LVL71
 11364 034f 74000000 		.4byte	.LVL72
 11365 0353 0600     		.2byte	0x6
 11366 0355 0C       		.byte	0xc
 11367 0356 80043240 		.4byte	0x40320480
 11368 035a 9F       		.byte	0x9f
 11369 035b 00000000 		.4byte	0
 11370 035f 00000000 		.4byte	0
 11371              	.LLST40:
 11372 0363 7A000000 		.4byte	.LVL73
 11373 0367 80000000 		.4byte	.LVL74
 11374 036b 0200     		.2byte	0x2
 11375 036d 31       		.byte	0x31
 11376 036e 9F       		.byte	0x9f
 11377 036f 00000000 		.4byte	0
 11378 0373 00000000 		.4byte	0
 11379              	.LLST41:
 11380 0377 7A000000 		.4byte	.LVL73
ARM GAS  C:\Users\seeho\AppData\Local\Temp\ccUkk7Dc.s 			page 253


 11381 037b 80000000 		.4byte	.LVL74
 11382 037f 0200     		.2byte	0x2
 11383 0381 33       		.byte	0x33
 11384 0382 9F       		.byte	0x9f
 11385 0383 00000000 		.4byte	0
 11386 0387 00000000 		.4byte	0
 11387              	.LLST42:
 11388 038b 7A000000 		.4byte	.LVL73
 11389 038f 80000000 		.4byte	.LVL74
 11390 0393 0600     		.2byte	0x6
 11391 0395 0C       		.byte	0xc
 11392 0396 80043240 		.4byte	0x40320480
 11393 039a 9F       		.byte	0x9f
 11394 039b 00000000 		.4byte	0
 11395 039f 00000000 		.4byte	0
 11396              	.LLST43:
 11397 03a3 80000000 		.4byte	.LVL74
 11398 03a7 84000000 		.4byte	.LVL75
 11399 03ab 0200     		.2byte	0x2
 11400 03ad 31       		.byte	0x31
 11401 03ae 9F       		.byte	0x9f
 11402 03af 00000000 		.4byte	0
 11403 03b3 00000000 		.4byte	0
 11404              	.LLST44:
 11405 03b7 80000000 		.4byte	.LVL74
 11406 03bb 84000000 		.4byte	.LVL75
 11407 03bf 0200     		.2byte	0x2
 11408 03c1 32       		.byte	0x32
 11409 03c2 9F       		.byte	0x9f
 11410 03c3 00000000 		.4byte	0
 11411 03c7 00000000 		.4byte	0
 11412              	.LLST45:
 11413 03cb 80000000 		.4byte	.LVL74
 11414 03cf 84000000 		.4byte	.LVL75
 11415 03d3 0600     		.2byte	0x6
 11416 03d5 0C       		.byte	0xc
 11417 03d6 80043240 		.4byte	0x40320480
 11418 03da 9F       		.byte	0x9f
 11419 03db 00000000 		.4byte	0
 11420 03df 00000000 		.4byte	0
 11421              	.LLST46:
 11422 03e3 84000000 		.4byte	.LVL75
 11423 03e7 88000000 		.4byte	.LVL76
 11424 03eb 0200     		.2byte	0x2
 11425 03ed 30       		.byte	0x30
 11426 03ee 9F       		.byte	0x9f
 11427 03ef 00000000 		.4byte	0
 11428 03f3 00000000 		.4byte	0
 11429              	.LLST47:
 11430 03f7 84000000 		.4byte	.LVL75
 11431 03fb 88000000 		.4byte	.LVL76
 11432 03ff 0200     		.2byte	0x2
 11433 0401 31       		.byte	0x31
 11434 0402 9F       		.byte	0x9f
 11435 0403 00000000 		.4byte	0
 11436 0407 00000000 		.4byte	0
 11437              	.LLST48:
ARM GAS  C:\Users\seeho\AppData\Local\Temp\ccUkk7Dc.s 			page 254


 11438 040b 84000000 		.4byte	.LVL75
 11439 040f 88000000 		.4byte	.LVL76
 11440 0413 0600     		.2byte	0x6
 11441 0415 0C       		.byte	0xc
 11442 0416 80043240 		.4byte	0x40320480
 11443 041a 9F       		.byte	0x9f
 11444 041b 00000000 		.4byte	0
 11445 041f 00000000 		.4byte	0
 11446              	.LLST49:
 11447 0423 88000000 		.4byte	.LVL76
 11448 0427 8E000000 		.4byte	.LVL77
 11449 042b 0200     		.2byte	0x2
 11450 042d 30       		.byte	0x30
 11451 042e 9F       		.byte	0x9f
 11452 042f 00000000 		.4byte	0
 11453 0433 00000000 		.4byte	0
 11454              	.LLST51:
 11455 0437 88000000 		.4byte	.LVL76
 11456 043b 8E000000 		.4byte	.LVL77
 11457 043f 0600     		.2byte	0x6
 11458 0441 0C       		.byte	0xc
 11459 0442 80043240 		.4byte	0x40320480
 11460 0446 9F       		.byte	0x9f
 11461 0447 00000000 		.4byte	0
 11462 044b 00000000 		.4byte	0
 11463              	.LLST52:
 11464 044f 94000000 		.4byte	.LVL78
 11465 0453 9A000000 		.4byte	.LVL79
 11466 0457 0200     		.2byte	0x2
 11467 0459 30       		.byte	0x30
 11468 045a 9F       		.byte	0x9f
 11469 045b 00000000 		.4byte	0
 11470 045f 00000000 		.4byte	0
 11471              	.LLST53:
 11472 0463 94000000 		.4byte	.LVL78
 11473 0467 9A000000 		.4byte	.LVL79
 11474 046b 0200     		.2byte	0x2
 11475 046d 33       		.byte	0x33
 11476 046e 9F       		.byte	0x9f
 11477 046f 00000000 		.4byte	0
 11478 0473 00000000 		.4byte	0
 11479              	.LLST54:
 11480 0477 94000000 		.4byte	.LVL78
 11481 047b 9A000000 		.4byte	.LVL79
 11482 047f 0600     		.2byte	0x6
 11483 0481 0C       		.byte	0xc
 11484 0482 80043240 		.4byte	0x40320480
 11485 0486 9F       		.byte	0x9f
 11486 0487 00000000 		.4byte	0
 11487 048b 00000000 		.4byte	0
 11488              	.LLST55:
 11489 048f 9A000000 		.4byte	.LVL79
 11490 0493 9E000000 		.4byte	.LVL80
 11491 0497 0200     		.2byte	0x2
 11492 0499 30       		.byte	0x30
 11493 049a 9F       		.byte	0x9f
 11494 049b 00000000 		.4byte	0
ARM GAS  C:\Users\seeho\AppData\Local\Temp\ccUkk7Dc.s 			page 255


 11495 049f 00000000 		.4byte	0
 11496              	.LLST56:
 11497 04a3 9A000000 		.4byte	.LVL79
 11498 04a7 9E000000 		.4byte	.LVL80
 11499 04ab 0200     		.2byte	0x2
 11500 04ad 32       		.byte	0x32
 11501 04ae 9F       		.byte	0x9f
 11502 04af 00000000 		.4byte	0
 11503 04b3 00000000 		.4byte	0
 11504              	.LLST57:
 11505 04b7 9A000000 		.4byte	.LVL79
 11506 04bb 9E000000 		.4byte	.LVL80
 11507 04bf 0600     		.2byte	0x6
 11508 04c1 0C       		.byte	0xc
 11509 04c2 80043240 		.4byte	0x40320480
 11510 04c6 9F       		.byte	0x9f
 11511 04c7 00000000 		.4byte	0
 11512 04cb 00000000 		.4byte	0
 11513              	.LLST58:
 11514 04cf 9E000000 		.4byte	.LVL80
 11515 04d3 A2000000 		.4byte	.LVL81
 11516 04d7 0200     		.2byte	0x2
 11517 04d9 31       		.byte	0x31
 11518 04da 9F       		.byte	0x9f
 11519 04db 00000000 		.4byte	0
 11520 04df 00000000 		.4byte	0
 11521              	.LLST60:
 11522 04e3 9E000000 		.4byte	.LVL80
 11523 04e7 A2000000 		.4byte	.LVL81
 11524 04eb 0600     		.2byte	0x6
 11525 04ed 0C       		.byte	0xc
 11526 04ee 80043240 		.4byte	0x40320480
 11527 04f2 9F       		.byte	0x9f
 11528 04f3 00000000 		.4byte	0
 11529 04f7 00000000 		.4byte	0
 11530              	.LLST61:
 11531 04fb A2000000 		.4byte	.LVL81
 11532 04ff A8000000 		.4byte	.LVL82
 11533 0503 0200     		.2byte	0x2
 11534 0505 30       		.byte	0x30
 11535 0506 9F       		.byte	0x9f
 11536 0507 00000000 		.4byte	0
 11537 050b 00000000 		.4byte	0
 11538              	.LLST63:
 11539 050f A2000000 		.4byte	.LVL81
 11540 0513 A8000000 		.4byte	.LVL82
 11541 0517 0600     		.2byte	0x6
 11542 0519 0C       		.byte	0xc
 11543 051a 80043240 		.4byte	0x40320480
 11544 051e 9F       		.byte	0x9f
 11545 051f 00000000 		.4byte	0
 11546 0523 00000000 		.4byte	0
 11547              	.LLST64:
 11548 0527 AE000000 		.4byte	.LVL83
 11549 052b B4000000 		.4byte	.LVL84
 11550 052f 0200     		.2byte	0x2
 11551 0531 31       		.byte	0x31
ARM GAS  C:\Users\seeho\AppData\Local\Temp\ccUkk7Dc.s 			page 256


 11552 0532 9F       		.byte	0x9f
 11553 0533 00000000 		.4byte	0
 11554 0537 00000000 		.4byte	0
 11555              	.LLST65:
 11556 053b AE000000 		.4byte	.LVL83
 11557 053f B4000000 		.4byte	.LVL84
 11558 0543 0200     		.2byte	0x2
 11559 0545 33       		.byte	0x33
 11560 0546 9F       		.byte	0x9f
 11561 0547 00000000 		.4byte	0
 11562 054b 00000000 		.4byte	0
 11563              	.LLST66:
 11564 054f AE000000 		.4byte	.LVL83
 11565 0553 B4000000 		.4byte	.LVL84
 11566 0557 0600     		.2byte	0x6
 11567 0559 0C       		.byte	0xc
 11568 055a 80043240 		.4byte	0x40320480
 11569 055e 9F       		.byte	0x9f
 11570 055f 00000000 		.4byte	0
 11571 0563 00000000 		.4byte	0
 11572              	.LLST67:
 11573 0567 B4000000 		.4byte	.LVL84
 11574 056b B8000000 		.4byte	.LVL85
 11575 056f 0200     		.2byte	0x2
 11576 0571 30       		.byte	0x30
 11577 0572 9F       		.byte	0x9f
 11578 0573 00000000 		.4byte	0
 11579 0577 00000000 		.4byte	0
 11580              	.LLST68:
 11581 057b B4000000 		.4byte	.LVL84
 11582 057f B8000000 		.4byte	.LVL85
 11583 0583 0200     		.2byte	0x2
 11584 0585 32       		.byte	0x32
 11585 0586 9F       		.byte	0x9f
 11586 0587 00000000 		.4byte	0
 11587 058b 00000000 		.4byte	0
 11588              	.LLST69:
 11589 058f B4000000 		.4byte	.LVL84
 11590 0593 B8000000 		.4byte	.LVL85
 11591 0597 0600     		.2byte	0x6
 11592 0599 0C       		.byte	0xc
 11593 059a 80043240 		.4byte	0x40320480
 11594 059e 9F       		.byte	0x9f
 11595 059f 00000000 		.4byte	0
 11596 05a3 00000000 		.4byte	0
 11597              	.LLST70:
 11598 05a7 B8000000 		.4byte	.LVL85
 11599 05ab BC000000 		.4byte	.LVL86
 11600 05af 0200     		.2byte	0x2
 11601 05b1 31       		.byte	0x31
 11602 05b2 9F       		.byte	0x9f
 11603 05b3 00000000 		.4byte	0
 11604 05b7 00000000 		.4byte	0
 11605              	.LLST72:
 11606 05bb B8000000 		.4byte	.LVL85
 11607 05bf BC000000 		.4byte	.LVL86
 11608 05c3 0600     		.2byte	0x6
ARM GAS  C:\Users\seeho\AppData\Local\Temp\ccUkk7Dc.s 			page 257


 11609 05c5 0C       		.byte	0xc
 11610 05c6 80043240 		.4byte	0x40320480
 11611 05ca 9F       		.byte	0x9f
 11612 05cb 00000000 		.4byte	0
 11613 05cf 00000000 		.4byte	0
 11614              	.LLST73:
 11615 05d3 BC000000 		.4byte	.LVL86
 11616 05d7 C2000000 		.4byte	.LVL87
 11617 05db 0200     		.2byte	0x2
 11618 05dd 30       		.byte	0x30
 11619 05de 9F       		.byte	0x9f
 11620 05df 00000000 		.4byte	0
 11621 05e3 00000000 		.4byte	0
 11622              	.LLST75:
 11623 05e7 BC000000 		.4byte	.LVL86
 11624 05eb C2000000 		.4byte	.LVL87
 11625 05ef 0600     		.2byte	0x6
 11626 05f1 0C       		.byte	0xc
 11627 05f2 80043240 		.4byte	0x40320480
 11628 05f6 9F       		.byte	0x9f
 11629 05f7 00000000 		.4byte	0
 11630 05fb 00000000 		.4byte	0
 11631              	.LLST76:
 11632 05ff C8000000 		.4byte	.LVL88
 11633 0603 CE000000 		.4byte	.LVL89
 11634 0607 0200     		.2byte	0x2
 11635 0609 30       		.byte	0x30
 11636 060a 9F       		.byte	0x9f
 11637 060b 00000000 		.4byte	0
 11638 060f 00000000 		.4byte	0
 11639              	.LLST77:
 11640 0613 C8000000 		.4byte	.LVL88
 11641 0617 CE000000 		.4byte	.LVL89
 11642 061b 0200     		.2byte	0x2
 11643 061d 33       		.byte	0x33
 11644 061e 9F       		.byte	0x9f
 11645 061f 00000000 		.4byte	0
 11646 0623 00000000 		.4byte	0
 11647              	.LLST78:
 11648 0627 C8000000 		.4byte	.LVL88
 11649 062b CE000000 		.4byte	.LVL89
 11650 062f 0600     		.2byte	0x6
 11651 0631 0C       		.byte	0xc
 11652 0632 80043240 		.4byte	0x40320480
 11653 0636 9F       		.byte	0x9f
 11654 0637 00000000 		.4byte	0
 11655 063b 00000000 		.4byte	0
 11656              	.LLST79:
 11657 063f CE000000 		.4byte	.LVL89
 11658 0643 D2000000 		.4byte	.LVL90
 11659 0647 0200     		.2byte	0x2
 11660 0649 31       		.byte	0x31
 11661 064a 9F       		.byte	0x9f
 11662 064b 00000000 		.4byte	0
 11663 064f 00000000 		.4byte	0
 11664              	.LLST80:
 11665 0653 CE000000 		.4byte	.LVL89
ARM GAS  C:\Users\seeho\AppData\Local\Temp\ccUkk7Dc.s 			page 258


 11666 0657 D2000000 		.4byte	.LVL90
 11667 065b 0200     		.2byte	0x2
 11668 065d 32       		.byte	0x32
 11669 065e 9F       		.byte	0x9f
 11670 065f 00000000 		.4byte	0
 11671 0663 00000000 		.4byte	0
 11672              	.LLST81:
 11673 0667 CE000000 		.4byte	.LVL89
 11674 066b D2000000 		.4byte	.LVL90
 11675 066f 0600     		.2byte	0x6
 11676 0671 0C       		.byte	0xc
 11677 0672 80043240 		.4byte	0x40320480
 11678 0676 9F       		.byte	0x9f
 11679 0677 00000000 		.4byte	0
 11680 067b 00000000 		.4byte	0
 11681              	.LLST82:
 11682 067f D2000000 		.4byte	.LVL90
 11683 0683 D6000000 		.4byte	.LVL91
 11684 0687 0200     		.2byte	0x2
 11685 0689 31       		.byte	0x31
 11686 068a 9F       		.byte	0x9f
 11687 068b 00000000 		.4byte	0
 11688 068f 00000000 		.4byte	0
 11689              	.LLST84:
 11690 0693 D2000000 		.4byte	.LVL90
 11691 0697 D6000000 		.4byte	.LVL91
 11692 069b 0600     		.2byte	0x6
 11693 069d 0C       		.byte	0xc
 11694 069e 80043240 		.4byte	0x40320480
 11695 06a2 9F       		.byte	0x9f
 11696 06a3 00000000 		.4byte	0
 11697 06a7 00000000 		.4byte	0
 11698              	.LLST85:
 11699 06ab D6000000 		.4byte	.LVL91
 11700 06af DC000000 		.4byte	.LVL92
 11701 06b3 0200     		.2byte	0x2
 11702 06b5 30       		.byte	0x30
 11703 06b6 9F       		.byte	0x9f
 11704 06b7 00000000 		.4byte	0
 11705 06bb 00000000 		.4byte	0
 11706              	.LLST87:
 11707 06bf D6000000 		.4byte	.LVL91
 11708 06c3 DC000000 		.4byte	.LVL92
 11709 06c7 0600     		.2byte	0x6
 11710 06c9 0C       		.byte	0xc
 11711 06ca 80043240 		.4byte	0x40320480
 11712 06ce 9F       		.byte	0x9f
 11713 06cf 00000000 		.4byte	0
 11714 06d3 00000000 		.4byte	0
 11715              	.LLST88:
 11716 06d7 E2000000 		.4byte	.LVL93
 11717 06db E8000000 		.4byte	.LVL94
 11718 06df 0200     		.2byte	0x2
 11719 06e1 31       		.byte	0x31
 11720 06e2 9F       		.byte	0x9f
 11721 06e3 00000000 		.4byte	0
 11722 06e7 00000000 		.4byte	0
ARM GAS  C:\Users\seeho\AppData\Local\Temp\ccUkk7Dc.s 			page 259


 11723              	.LLST89:
 11724 06eb E2000000 		.4byte	.LVL93
 11725 06ef E8000000 		.4byte	.LVL94
 11726 06f3 0200     		.2byte	0x2
 11727 06f5 33       		.byte	0x33
 11728 06f6 9F       		.byte	0x9f
 11729 06f7 00000000 		.4byte	0
 11730 06fb 00000000 		.4byte	0
 11731              	.LLST90:
 11732 06ff E2000000 		.4byte	.LVL93
 11733 0703 E8000000 		.4byte	.LVL94
 11734 0707 0600     		.2byte	0x6
 11735 0709 0C       		.byte	0xc
 11736 070a 80043240 		.4byte	0x40320480
 11737 070e 9F       		.byte	0x9f
 11738 070f 00000000 		.4byte	0
 11739 0713 00000000 		.4byte	0
 11740              	.LLST91:
 11741 0717 E8000000 		.4byte	.LVL94
 11742 071b EC000000 		.4byte	.LVL95
 11743 071f 0200     		.2byte	0x2
 11744 0721 31       		.byte	0x31
 11745 0722 9F       		.byte	0x9f
 11746 0723 00000000 		.4byte	0
 11747 0727 00000000 		.4byte	0
 11748              	.LLST92:
 11749 072b E8000000 		.4byte	.LVL94
 11750 072f EC000000 		.4byte	.LVL95
 11751 0733 0200     		.2byte	0x2
 11752 0735 32       		.byte	0x32
 11753 0736 9F       		.byte	0x9f
 11754 0737 00000000 		.4byte	0
 11755 073b 00000000 		.4byte	0
 11756              	.LLST93:
 11757 073f E8000000 		.4byte	.LVL94
 11758 0743 EC000000 		.4byte	.LVL95
 11759 0747 0600     		.2byte	0x6
 11760 0749 0C       		.byte	0xc
 11761 074a 80043240 		.4byte	0x40320480
 11762 074e 9F       		.byte	0x9f
 11763 074f 00000000 		.4byte	0
 11764 0753 00000000 		.4byte	0
 11765              	.LLST94:
 11766 0757 EC000000 		.4byte	.LVL95
 11767 075b F0000000 		.4byte	.LVL96
 11768 075f 0200     		.2byte	0x2
 11769 0761 31       		.byte	0x31
 11770 0762 9F       		.byte	0x9f
 11771 0763 00000000 		.4byte	0
 11772 0767 00000000 		.4byte	0
 11773              	.LLST96:
 11774 076b EC000000 		.4byte	.LVL95
 11775 076f F0000000 		.4byte	.LVL96
 11776 0773 0600     		.2byte	0x6
 11777 0775 0C       		.byte	0xc
 11778 0776 80043240 		.4byte	0x40320480
 11779 077a 9F       		.byte	0x9f
ARM GAS  C:\Users\seeho\AppData\Local\Temp\ccUkk7Dc.s 			page 260


 11780 077b 00000000 		.4byte	0
 11781 077f 00000000 		.4byte	0
 11782              	.LLST97:
 11783 0783 F0000000 		.4byte	.LVL96
 11784 0787 F6000000 		.4byte	.LVL97
 11785 078b 0200     		.2byte	0x2
 11786 078d 30       		.byte	0x30
 11787 078e 9F       		.byte	0x9f
 11788 078f 00000000 		.4byte	0
 11789 0793 00000000 		.4byte	0
 11790              	.LLST99:
 11791 0797 F0000000 		.4byte	.LVL96
 11792 079b F6000000 		.4byte	.LVL97
 11793 079f 0600     		.2byte	0x6
 11794 07a1 0C       		.byte	0xc
 11795 07a2 80043240 		.4byte	0x40320480
 11796 07a6 9F       		.byte	0x9f
 11797 07a7 00000000 		.4byte	0
 11798 07ab 00000000 		.4byte	0
 11799              	.LLST100:
 11800 07af FC000000 		.4byte	.LVL98
 11801 07b3 02010000 		.4byte	.LVL99
 11802 07b7 0200     		.2byte	0x2
 11803 07b9 30       		.byte	0x30
 11804 07ba 9F       		.byte	0x9f
 11805 07bb 00000000 		.4byte	0
 11806 07bf 00000000 		.4byte	0
 11807              	.LLST101:
 11808 07c3 FC000000 		.4byte	.LVL98
 11809 07c7 02010000 		.4byte	.LVL99
 11810 07cb 0200     		.2byte	0x2
 11811 07cd 33       		.byte	0x33
 11812 07ce 9F       		.byte	0x9f
 11813 07cf 00000000 		.4byte	0
 11814 07d3 00000000 		.4byte	0
 11815              	.LLST102:
 11816 07d7 FC000000 		.4byte	.LVL98
 11817 07db 02010000 		.4byte	.LVL99
 11818 07df 0600     		.2byte	0x6
 11819 07e1 0C       		.byte	0xc
 11820 07e2 80043240 		.4byte	0x40320480
 11821 07e6 9F       		.byte	0x9f
 11822 07e7 00000000 		.4byte	0
 11823 07eb 00000000 		.4byte	0
 11824              	.LLST103:
 11825 07ef 02010000 		.4byte	.LVL99
 11826 07f3 06010000 		.4byte	.LVL100
 11827 07f7 0200     		.2byte	0x2
 11828 07f9 30       		.byte	0x30
 11829 07fa 9F       		.byte	0x9f
 11830 07fb 00000000 		.4byte	0
 11831 07ff 00000000 		.4byte	0
 11832              	.LLST104:
 11833 0803 02010000 		.4byte	.LVL99
 11834 0807 06010000 		.4byte	.LVL100
 11835 080b 0200     		.2byte	0x2
 11836 080d 32       		.byte	0x32
ARM GAS  C:\Users\seeho\AppData\Local\Temp\ccUkk7Dc.s 			page 261


 11837 080e 9F       		.byte	0x9f
 11838 080f 00000000 		.4byte	0
 11839 0813 00000000 		.4byte	0
 11840              	.LLST105:
 11841 0817 02010000 		.4byte	.LVL99
 11842 081b 06010000 		.4byte	.LVL100
 11843 081f 0600     		.2byte	0x6
 11844 0821 0C       		.byte	0xc
 11845 0822 80043240 		.4byte	0x40320480
 11846 0826 9F       		.byte	0x9f
 11847 0827 00000000 		.4byte	0
 11848 082b 00000000 		.4byte	0
 11849              	.LLST106:
 11850 082f 06010000 		.4byte	.LVL100
 11851 0833 0A010000 		.4byte	.LVL101
 11852 0837 0200     		.2byte	0x2
 11853 0839 30       		.byte	0x30
 11854 083a 9F       		.byte	0x9f
 11855 083b 00000000 		.4byte	0
 11856 083f 00000000 		.4byte	0
 11857              	.LLST107:
 11858 0843 06010000 		.4byte	.LVL100
 11859 0847 0A010000 		.4byte	.LVL101
 11860 084b 0200     		.2byte	0x2
 11861 084d 31       		.byte	0x31
 11862 084e 9F       		.byte	0x9f
 11863 084f 00000000 		.4byte	0
 11864 0853 00000000 		.4byte	0
 11865              	.LLST108:
 11866 0857 06010000 		.4byte	.LVL100
 11867 085b 0A010000 		.4byte	.LVL101
 11868 085f 0600     		.2byte	0x6
 11869 0861 0C       		.byte	0xc
 11870 0862 80043240 		.4byte	0x40320480
 11871 0866 9F       		.byte	0x9f
 11872 0867 00000000 		.4byte	0
 11873 086b 00000000 		.4byte	0
 11874              	.LLST109:
 11875 086f 0A010000 		.4byte	.LVL101
 11876 0873 10010000 		.4byte	.LVL102
 11877 0877 0200     		.2byte	0x2
 11878 0879 31       		.byte	0x31
 11879 087a 9F       		.byte	0x9f
 11880 087b 00000000 		.4byte	0
 11881 087f 00000000 		.4byte	0
 11882              	.LLST110:
 11883 0883 0A010000 		.4byte	.LVL101
 11884 0887 10010000 		.4byte	.LVL102
 11885 088b 0200     		.2byte	0x2
 11886 088d 30       		.byte	0x30
 11887 088e 9F       		.byte	0x9f
 11888 088f 00000000 		.4byte	0
 11889 0893 00000000 		.4byte	0
 11890              	.LLST111:
 11891 0897 0A010000 		.4byte	.LVL101
 11892 089b 10010000 		.4byte	.LVL102
 11893 089f 0600     		.2byte	0x6
ARM GAS  C:\Users\seeho\AppData\Local\Temp\ccUkk7Dc.s 			page 262


 11894 08a1 0C       		.byte	0xc
 11895 08a2 80043240 		.4byte	0x40320480
 11896 08a6 9F       		.byte	0x9f
 11897 08a7 00000000 		.4byte	0
 11898 08ab 00000000 		.4byte	0
 11899              	.LLST112:
 11900 08af 16010000 		.4byte	.LVL103
 11901 08b3 1C010000 		.4byte	.LVL104
 11902 08b7 0200     		.2byte	0x2
 11903 08b9 31       		.byte	0x31
 11904 08ba 9F       		.byte	0x9f
 11905 08bb 00000000 		.4byte	0
 11906 08bf 00000000 		.4byte	0
 11907              	.LLST113:
 11908 08c3 16010000 		.4byte	.LVL103
 11909 08c7 1C010000 		.4byte	.LVL104
 11910 08cb 0200     		.2byte	0x2
 11911 08cd 33       		.byte	0x33
 11912 08ce 9F       		.byte	0x9f
 11913 08cf 00000000 		.4byte	0
 11914 08d3 00000000 		.4byte	0
 11915              	.LLST114:
 11916 08d7 16010000 		.4byte	.LVL103
 11917 08db 1C010000 		.4byte	.LVL104
 11918 08df 0600     		.2byte	0x6
 11919 08e1 0C       		.byte	0xc
 11920 08e2 80043240 		.4byte	0x40320480
 11921 08e6 9F       		.byte	0x9f
 11922 08e7 00000000 		.4byte	0
 11923 08eb 00000000 		.4byte	0
 11924              	.LLST115:
 11925 08ef 1C010000 		.4byte	.LVL104
 11926 08f3 20010000 		.4byte	.LVL105
 11927 08f7 0200     		.2byte	0x2
 11928 08f9 30       		.byte	0x30
 11929 08fa 9F       		.byte	0x9f
 11930 08fb 00000000 		.4byte	0
 11931 08ff 00000000 		.4byte	0
 11932              	.LLST116:
 11933 0903 1C010000 		.4byte	.LVL104
 11934 0907 20010000 		.4byte	.LVL105
 11935 090b 0200     		.2byte	0x2
 11936 090d 32       		.byte	0x32
 11937 090e 9F       		.byte	0x9f
 11938 090f 00000000 		.4byte	0
 11939 0913 00000000 		.4byte	0
 11940              	.LLST117:
 11941 0917 1C010000 		.4byte	.LVL104
 11942 091b 20010000 		.4byte	.LVL105
 11943 091f 0600     		.2byte	0x6
 11944 0921 0C       		.byte	0xc
 11945 0922 80043240 		.4byte	0x40320480
 11946 0926 9F       		.byte	0x9f
 11947 0927 00000000 		.4byte	0
 11948 092b 00000000 		.4byte	0
 11949              	.LLST118:
 11950 092f 20010000 		.4byte	.LVL105
ARM GAS  C:\Users\seeho\AppData\Local\Temp\ccUkk7Dc.s 			page 263


 11951 0933 24010000 		.4byte	.LVL106
 11952 0937 0200     		.2byte	0x2
 11953 0939 30       		.byte	0x30
 11954 093a 9F       		.byte	0x9f
 11955 093b 00000000 		.4byte	0
 11956 093f 00000000 		.4byte	0
 11957              	.LLST119:
 11958 0943 20010000 		.4byte	.LVL105
 11959 0947 24010000 		.4byte	.LVL106
 11960 094b 0200     		.2byte	0x2
 11961 094d 31       		.byte	0x31
 11962 094e 9F       		.byte	0x9f
 11963 094f 00000000 		.4byte	0
 11964 0953 00000000 		.4byte	0
 11965              	.LLST120:
 11966 0957 20010000 		.4byte	.LVL105
 11967 095b 24010000 		.4byte	.LVL106
 11968 095f 0600     		.2byte	0x6
 11969 0961 0C       		.byte	0xc
 11970 0962 80043240 		.4byte	0x40320480
 11971 0966 9F       		.byte	0x9f
 11972 0967 00000000 		.4byte	0
 11973 096b 00000000 		.4byte	0
 11974              	.LLST121:
 11975 096f 24010000 		.4byte	.LVL106
 11976 0973 2A010000 		.4byte	.LVL107
 11977 0977 0200     		.2byte	0x2
 11978 0979 31       		.byte	0x31
 11979 097a 9F       		.byte	0x9f
 11980 097b 00000000 		.4byte	0
 11981 097f 00000000 		.4byte	0
 11982              	.LLST122:
 11983 0983 24010000 		.4byte	.LVL106
 11984 0987 2A010000 		.4byte	.LVL107
 11985 098b 0200     		.2byte	0x2
 11986 098d 30       		.byte	0x30
 11987 098e 9F       		.byte	0x9f
 11988 098f 00000000 		.4byte	0
 11989 0993 00000000 		.4byte	0
 11990              	.LLST123:
 11991 0997 24010000 		.4byte	.LVL106
 11992 099b 2A010000 		.4byte	.LVL107
 11993 099f 0600     		.2byte	0x6
 11994 09a1 0C       		.byte	0xc
 11995 09a2 80043240 		.4byte	0x40320480
 11996 09a6 9F       		.byte	0x9f
 11997 09a7 00000000 		.4byte	0
 11998 09ab 00000000 		.4byte	0
 11999              	.LLST124:
 12000 09af 30010000 		.4byte	.LVL108
 12001 09b3 36010000 		.4byte	.LVL109
 12002 09b7 0200     		.2byte	0x2
 12003 09b9 30       		.byte	0x30
 12004 09ba 9F       		.byte	0x9f
 12005 09bb 00000000 		.4byte	0
 12006 09bf 00000000 		.4byte	0
 12007              	.LLST125:
ARM GAS  C:\Users\seeho\AppData\Local\Temp\ccUkk7Dc.s 			page 264


 12008 09c3 30010000 		.4byte	.LVL108
 12009 09c7 36010000 		.4byte	.LVL109
 12010 09cb 0200     		.2byte	0x2
 12011 09cd 33       		.byte	0x33
 12012 09ce 9F       		.byte	0x9f
 12013 09cf 00000000 		.4byte	0
 12014 09d3 00000000 		.4byte	0
 12015              	.LLST126:
 12016 09d7 30010000 		.4byte	.LVL108
 12017 09db 36010000 		.4byte	.LVL109
 12018 09df 0600     		.2byte	0x6
 12019 09e1 0C       		.byte	0xc
 12020 09e2 80043240 		.4byte	0x40320480
 12021 09e6 9F       		.byte	0x9f
 12022 09e7 00000000 		.4byte	0
 12023 09eb 00000000 		.4byte	0
 12024              	.LLST127:
 12025 09ef 36010000 		.4byte	.LVL109
 12026 09f3 3A010000 		.4byte	.LVL110
 12027 09f7 0200     		.2byte	0x2
 12028 09f9 31       		.byte	0x31
 12029 09fa 9F       		.byte	0x9f
 12030 09fb 00000000 		.4byte	0
 12031 09ff 00000000 		.4byte	0
 12032              	.LLST128:
 12033 0a03 36010000 		.4byte	.LVL109
 12034 0a07 3A010000 		.4byte	.LVL110
 12035 0a0b 0200     		.2byte	0x2
 12036 0a0d 32       		.byte	0x32
 12037 0a0e 9F       		.byte	0x9f
 12038 0a0f 00000000 		.4byte	0
 12039 0a13 00000000 		.4byte	0
 12040              	.LLST129:
 12041 0a17 36010000 		.4byte	.LVL109
 12042 0a1b 3A010000 		.4byte	.LVL110
 12043 0a1f 0600     		.2byte	0x6
 12044 0a21 0C       		.byte	0xc
 12045 0a22 80043240 		.4byte	0x40320480
 12046 0a26 9F       		.byte	0x9f
 12047 0a27 00000000 		.4byte	0
 12048 0a2b 00000000 		.4byte	0
 12049              	.LLST130:
 12050 0a2f 3A010000 		.4byte	.LVL110
 12051 0a33 3E010000 		.4byte	.LVL111
 12052 0a37 0200     		.2byte	0x2
 12053 0a39 30       		.byte	0x30
 12054 0a3a 9F       		.byte	0x9f
 12055 0a3b 00000000 		.4byte	0
 12056 0a3f 00000000 		.4byte	0
 12057              	.LLST131:
 12058 0a43 3A010000 		.4byte	.LVL110
 12059 0a47 3E010000 		.4byte	.LVL111
 12060 0a4b 0200     		.2byte	0x2
 12061 0a4d 31       		.byte	0x31
 12062 0a4e 9F       		.byte	0x9f
 12063 0a4f 00000000 		.4byte	0
 12064 0a53 00000000 		.4byte	0
ARM GAS  C:\Users\seeho\AppData\Local\Temp\ccUkk7Dc.s 			page 265


 12065              	.LLST132:
 12066 0a57 3A010000 		.4byte	.LVL110
 12067 0a5b 3E010000 		.4byte	.LVL111
 12068 0a5f 0600     		.2byte	0x6
 12069 0a61 0C       		.byte	0xc
 12070 0a62 80043240 		.4byte	0x40320480
 12071 0a66 9F       		.byte	0x9f
 12072 0a67 00000000 		.4byte	0
 12073 0a6b 00000000 		.4byte	0
 12074              	.LLST133:
 12075 0a6f 3E010000 		.4byte	.LVL111
 12076 0a73 44010000 		.4byte	.LVL112
 12077 0a77 0200     		.2byte	0x2
 12078 0a79 31       		.byte	0x31
 12079 0a7a 9F       		.byte	0x9f
 12080 0a7b 00000000 		.4byte	0
 12081 0a7f 00000000 		.4byte	0
 12082              	.LLST134:
 12083 0a83 3E010000 		.4byte	.LVL111
 12084 0a87 44010000 		.4byte	.LVL112
 12085 0a8b 0200     		.2byte	0x2
 12086 0a8d 30       		.byte	0x30
 12087 0a8e 9F       		.byte	0x9f
 12088 0a8f 00000000 		.4byte	0
 12089 0a93 00000000 		.4byte	0
 12090              	.LLST135:
 12091 0a97 3E010000 		.4byte	.LVL111
 12092 0a9b 44010000 		.4byte	.LVL112
 12093 0a9f 0600     		.2byte	0x6
 12094 0aa1 0C       		.byte	0xc
 12095 0aa2 80043240 		.4byte	0x40320480
 12096 0aa6 9F       		.byte	0x9f
 12097 0aa7 00000000 		.4byte	0
 12098 0aab 00000000 		.4byte	0
 12099              	.LLST136:
 12100 0aaf 4A010000 		.4byte	.LVL113
 12101 0ab3 50010000 		.4byte	.LVL114
 12102 0ab7 0200     		.2byte	0x2
 12103 0ab9 31       		.byte	0x31
 12104 0aba 9F       		.byte	0x9f
 12105 0abb 00000000 		.4byte	0
 12106 0abf 00000000 		.4byte	0
 12107              	.LLST137:
 12108 0ac3 4A010000 		.4byte	.LVL113
 12109 0ac7 50010000 		.4byte	.LVL114
 12110 0acb 0200     		.2byte	0x2
 12111 0acd 33       		.byte	0x33
 12112 0ace 9F       		.byte	0x9f
 12113 0acf 00000000 		.4byte	0
 12114 0ad3 00000000 		.4byte	0
 12115              	.LLST138:
 12116 0ad7 4A010000 		.4byte	.LVL113
 12117 0adb 50010000 		.4byte	.LVL114
 12118 0adf 0600     		.2byte	0x6
 12119 0ae1 0C       		.byte	0xc
 12120 0ae2 80043240 		.4byte	0x40320480
 12121 0ae6 9F       		.byte	0x9f
ARM GAS  C:\Users\seeho\AppData\Local\Temp\ccUkk7Dc.s 			page 266


 12122 0ae7 00000000 		.4byte	0
 12123 0aeb 00000000 		.4byte	0
 12124              	.LLST139:
 12125 0aef 50010000 		.4byte	.LVL114
 12126 0af3 54010000 		.4byte	.LVL115
 12127 0af7 0200     		.2byte	0x2
 12128 0af9 31       		.byte	0x31
 12129 0afa 9F       		.byte	0x9f
 12130 0afb 00000000 		.4byte	0
 12131 0aff 00000000 		.4byte	0
 12132              	.LLST140:
 12133 0b03 50010000 		.4byte	.LVL114
 12134 0b07 54010000 		.4byte	.LVL115
 12135 0b0b 0200     		.2byte	0x2
 12136 0b0d 32       		.byte	0x32
 12137 0b0e 9F       		.byte	0x9f
 12138 0b0f 00000000 		.4byte	0
 12139 0b13 00000000 		.4byte	0
 12140              	.LLST141:
 12141 0b17 50010000 		.4byte	.LVL114
 12142 0b1b 54010000 		.4byte	.LVL115
 12143 0b1f 0600     		.2byte	0x6
 12144 0b21 0C       		.byte	0xc
 12145 0b22 80043240 		.4byte	0x40320480
 12146 0b26 9F       		.byte	0x9f
 12147 0b27 00000000 		.4byte	0
 12148 0b2b 00000000 		.4byte	0
 12149              	.LLST142:
 12150 0b2f 54010000 		.4byte	.LVL115
 12151 0b33 58010000 		.4byte	.LVL116
 12152 0b37 0200     		.2byte	0x2
 12153 0b39 30       		.byte	0x30
 12154 0b3a 9F       		.byte	0x9f
 12155 0b3b 00000000 		.4byte	0
 12156 0b3f 00000000 		.4byte	0
 12157              	.LLST143:
 12158 0b43 54010000 		.4byte	.LVL115
 12159 0b47 58010000 		.4byte	.LVL116
 12160 0b4b 0200     		.2byte	0x2
 12161 0b4d 31       		.byte	0x31
 12162 0b4e 9F       		.byte	0x9f
 12163 0b4f 00000000 		.4byte	0
 12164 0b53 00000000 		.4byte	0
 12165              	.LLST144:
 12166 0b57 54010000 		.4byte	.LVL115
 12167 0b5b 58010000 		.4byte	.LVL116
 12168 0b5f 0600     		.2byte	0x6
 12169 0b61 0C       		.byte	0xc
 12170 0b62 80043240 		.4byte	0x40320480
 12171 0b66 9F       		.byte	0x9f
 12172 0b67 00000000 		.4byte	0
 12173 0b6b 00000000 		.4byte	0
 12174              	.LLST145:
 12175 0b6f 58010000 		.4byte	.LVL116
 12176 0b73 5E010000 		.4byte	.LVL117
 12177 0b77 0200     		.2byte	0x2
 12178 0b79 31       		.byte	0x31
ARM GAS  C:\Users\seeho\AppData\Local\Temp\ccUkk7Dc.s 			page 267


 12179 0b7a 9F       		.byte	0x9f
 12180 0b7b 00000000 		.4byte	0
 12181 0b7f 00000000 		.4byte	0
 12182              	.LLST146:
 12183 0b83 58010000 		.4byte	.LVL116
 12184 0b87 5E010000 		.4byte	.LVL117
 12185 0b8b 0200     		.2byte	0x2
 12186 0b8d 30       		.byte	0x30
 12187 0b8e 9F       		.byte	0x9f
 12188 0b8f 00000000 		.4byte	0
 12189 0b93 00000000 		.4byte	0
 12190              	.LLST147:
 12191 0b97 58010000 		.4byte	.LVL116
 12192 0b9b 5E010000 		.4byte	.LVL117
 12193 0b9f 0600     		.2byte	0x6
 12194 0ba1 0C       		.byte	0xc
 12195 0ba2 80043240 		.4byte	0x40320480
 12196 0ba6 9F       		.byte	0x9f
 12197 0ba7 00000000 		.4byte	0
 12198 0bab 00000000 		.4byte	0
 12199              	.LLST148:
 12200 0baf 64010000 		.4byte	.LVL118
 12201 0bb3 6A010000 		.4byte	.LVL119
 12202 0bb7 0200     		.2byte	0x2
 12203 0bb9 30       		.byte	0x30
 12204 0bba 9F       		.byte	0x9f
 12205 0bbb 00000000 		.4byte	0
 12206 0bbf 00000000 		.4byte	0
 12207              	.LLST149:
 12208 0bc3 64010000 		.4byte	.LVL118
 12209 0bc7 6A010000 		.4byte	.LVL119
 12210 0bcb 0200     		.2byte	0x2
 12211 0bcd 33       		.byte	0x33
 12212 0bce 9F       		.byte	0x9f
 12213 0bcf 00000000 		.4byte	0
 12214 0bd3 00000000 		.4byte	0
 12215              	.LLST150:
 12216 0bd7 64010000 		.4byte	.LVL118
 12217 0bdb 6A010000 		.4byte	.LVL119
 12218 0bdf 0600     		.2byte	0x6
 12219 0be1 0C       		.byte	0xc
 12220 0be2 80043240 		.4byte	0x40320480
 12221 0be6 9F       		.byte	0x9f
 12222 0be7 00000000 		.4byte	0
 12223 0beb 00000000 		.4byte	0
 12224              	.LLST151:
 12225 0bef 6A010000 		.4byte	.LVL119
 12226 0bf3 6E010000 		.4byte	.LVL120
 12227 0bf7 0200     		.2byte	0x2
 12228 0bf9 30       		.byte	0x30
 12229 0bfa 9F       		.byte	0x9f
 12230 0bfb 00000000 		.4byte	0
 12231 0bff 00000000 		.4byte	0
 12232              	.LLST152:
 12233 0c03 6A010000 		.4byte	.LVL119
 12234 0c07 6E010000 		.4byte	.LVL120
 12235 0c0b 0200     		.2byte	0x2
ARM GAS  C:\Users\seeho\AppData\Local\Temp\ccUkk7Dc.s 			page 268


 12236 0c0d 32       		.byte	0x32
 12237 0c0e 9F       		.byte	0x9f
 12238 0c0f 00000000 		.4byte	0
 12239 0c13 00000000 		.4byte	0
 12240              	.LLST153:
 12241 0c17 6A010000 		.4byte	.LVL119
 12242 0c1b 6E010000 		.4byte	.LVL120
 12243 0c1f 0600     		.2byte	0x6
 12244 0c21 0C       		.byte	0xc
 12245 0c22 80043240 		.4byte	0x40320480
 12246 0c26 9F       		.byte	0x9f
 12247 0c27 00000000 		.4byte	0
 12248 0c2b 00000000 		.4byte	0
 12249              	.LLST154:
 12250 0c2f 6E010000 		.4byte	.LVL120
 12251 0c33 72010000 		.4byte	.LVL121
 12252 0c37 0200     		.2byte	0x2
 12253 0c39 31       		.byte	0x31
 12254 0c3a 9F       		.byte	0x9f
 12255 0c3b 00000000 		.4byte	0
 12256 0c3f 00000000 		.4byte	0
 12257              	.LLST156:
 12258 0c43 6E010000 		.4byte	.LVL120
 12259 0c47 72010000 		.4byte	.LVL121
 12260 0c4b 0600     		.2byte	0x6
 12261 0c4d 0C       		.byte	0xc
 12262 0c4e 80043240 		.4byte	0x40320480
 12263 0c52 9F       		.byte	0x9f
 12264 0c53 00000000 		.4byte	0
 12265 0c57 00000000 		.4byte	0
 12266              	.LLST157:
 12267 0c5b 72010000 		.4byte	.LVL121
 12268 0c5f 78010000 		.4byte	.LVL122
 12269 0c63 0200     		.2byte	0x2
 12270 0c65 31       		.byte	0x31
 12271 0c66 9F       		.byte	0x9f
 12272 0c67 00000000 		.4byte	0
 12273 0c6b 00000000 		.4byte	0
 12274              	.LLST158:
 12275 0c6f 72010000 		.4byte	.LVL121
 12276 0c73 78010000 		.4byte	.LVL122
 12277 0c77 0200     		.2byte	0x2
 12278 0c79 30       		.byte	0x30
 12279 0c7a 9F       		.byte	0x9f
 12280 0c7b 00000000 		.4byte	0
 12281 0c7f 00000000 		.4byte	0
 12282              	.LLST159:
 12283 0c83 72010000 		.4byte	.LVL121
 12284 0c87 78010000 		.4byte	.LVL122
 12285 0c8b 0600     		.2byte	0x6
 12286 0c8d 0C       		.byte	0xc
 12287 0c8e 80043240 		.4byte	0x40320480
 12288 0c92 9F       		.byte	0x9f
 12289 0c93 00000000 		.4byte	0
 12290 0c97 00000000 		.4byte	0
 12291              	.LLST160:
 12292 0c9b 7E010000 		.4byte	.LVL123
ARM GAS  C:\Users\seeho\AppData\Local\Temp\ccUkk7Dc.s 			page 269


 12293 0c9f 84010000 		.4byte	.LVL124
 12294 0ca3 0200     		.2byte	0x2
 12295 0ca5 31       		.byte	0x31
 12296 0ca6 9F       		.byte	0x9f
 12297 0ca7 00000000 		.4byte	0
 12298 0cab 00000000 		.4byte	0
 12299              	.LLST161:
 12300 0caf 7E010000 		.4byte	.LVL123
 12301 0cb3 84010000 		.4byte	.LVL124
 12302 0cb7 0200     		.2byte	0x2
 12303 0cb9 33       		.byte	0x33
 12304 0cba 9F       		.byte	0x9f
 12305 0cbb 00000000 		.4byte	0
 12306 0cbf 00000000 		.4byte	0
 12307              	.LLST162:
 12308 0cc3 7E010000 		.4byte	.LVL123
 12309 0cc7 84010000 		.4byte	.LVL124
 12310 0ccb 0600     		.2byte	0x6
 12311 0ccd 0C       		.byte	0xc
 12312 0cce 80043240 		.4byte	0x40320480
 12313 0cd2 9F       		.byte	0x9f
 12314 0cd3 00000000 		.4byte	0
 12315 0cd7 00000000 		.4byte	0
 12316              	.LLST163:
 12317 0cdb 84010000 		.4byte	.LVL124
 12318 0cdf 88010000 		.4byte	.LVL125
 12319 0ce3 0200     		.2byte	0x2
 12320 0ce5 31       		.byte	0x31
 12321 0ce6 9F       		.byte	0x9f
 12322 0ce7 00000000 		.4byte	0
 12323 0ceb 00000000 		.4byte	0
 12324              	.LLST164:
 12325 0cef 84010000 		.4byte	.LVL124
 12326 0cf3 88010000 		.4byte	.LVL125
 12327 0cf7 0200     		.2byte	0x2
 12328 0cf9 32       		.byte	0x32
 12329 0cfa 9F       		.byte	0x9f
 12330 0cfb 00000000 		.4byte	0
 12331 0cff 00000000 		.4byte	0
 12332              	.LLST165:
 12333 0d03 84010000 		.4byte	.LVL124
 12334 0d07 88010000 		.4byte	.LVL125
 12335 0d0b 0600     		.2byte	0x6
 12336 0d0d 0C       		.byte	0xc
 12337 0d0e 80043240 		.4byte	0x40320480
 12338 0d12 9F       		.byte	0x9f
 12339 0d13 00000000 		.4byte	0
 12340 0d17 00000000 		.4byte	0
 12341              	.LLST166:
 12342 0d1b 88010000 		.4byte	.LVL125
 12343 0d1f 8C010000 		.4byte	.LVL126
 12344 0d23 0200     		.2byte	0x2
 12345 0d25 31       		.byte	0x31
 12346 0d26 9F       		.byte	0x9f
 12347 0d27 00000000 		.4byte	0
 12348 0d2b 00000000 		.4byte	0
 12349              	.LLST168:
ARM GAS  C:\Users\seeho\AppData\Local\Temp\ccUkk7Dc.s 			page 270


 12350 0d2f 88010000 		.4byte	.LVL125
 12351 0d33 8C010000 		.4byte	.LVL126
 12352 0d37 0600     		.2byte	0x6
 12353 0d39 0C       		.byte	0xc
 12354 0d3a 80043240 		.4byte	0x40320480
 12355 0d3e 9F       		.byte	0x9f
 12356 0d3f 00000000 		.4byte	0
 12357 0d43 00000000 		.4byte	0
 12358              	.LLST169:
 12359 0d47 3C000000 		.4byte	.LVL128
 12360 0d4b 42000000 		.4byte	.LVL129
 12361 0d4f 0200     		.2byte	0x2
 12362 0d51 30       		.byte	0x30
 12363 0d52 9F       		.byte	0x9f
 12364 0d53 00000000 		.4byte	0
 12365 0d57 00000000 		.4byte	0
 12366              	.LLST170:
 12367 0d5b 3C000000 		.4byte	.LVL128
 12368 0d5f 42000000 		.4byte	.LVL129
 12369 0d63 0200     		.2byte	0x2
 12370 0d65 32       		.byte	0x32
 12371 0d66 9F       		.byte	0x9f
 12372 0d67 00000000 		.4byte	0
 12373 0d6b 00000000 		.4byte	0
 12374              	.LLST171:
 12375 0d6f 3C000000 		.4byte	.LVL128
 12376 0d73 42000000 		.4byte	.LVL129
 12377 0d77 0600     		.2byte	0x6
 12378 0d79 0C       		.byte	0xc
 12379 0d7a 80023240 		.4byte	0x40320280
 12380 0d7e 9F       		.byte	0x9f
 12381 0d7f 00000000 		.4byte	0
 12382 0d83 00000000 		.4byte	0
 12383              	.LLST172:
 12384 0d87 42000000 		.4byte	.LVL129
 12385 0d8b 46000000 		.4byte	.LVL130
 12386 0d8f 0200     		.2byte	0x2
 12387 0d91 30       		.byte	0x30
 12388 0d92 9F       		.byte	0x9f
 12389 0d93 00000000 		.4byte	0
 12390 0d97 00000000 		.4byte	0
 12391              	.LLST173:
 12392 0d9b 42000000 		.4byte	.LVL129
 12393 0d9f 46000000 		.4byte	.LVL130
 12394 0da3 0200     		.2byte	0x2
 12395 0da5 33       		.byte	0x33
 12396 0da6 9F       		.byte	0x9f
 12397 0da7 00000000 		.4byte	0
 12398 0dab 00000000 		.4byte	0
 12399              	.LLST174:
 12400 0daf 42000000 		.4byte	.LVL129
 12401 0db3 46000000 		.4byte	.LVL130
 12402 0db7 0600     		.2byte	0x6
 12403 0db9 0C       		.byte	0xc
 12404 0dba 80023240 		.4byte	0x40320280
 12405 0dbe 9F       		.byte	0x9f
 12406 0dbf 00000000 		.4byte	0
ARM GAS  C:\Users\seeho\AppData\Local\Temp\ccUkk7Dc.s 			page 271


 12407 0dc3 00000000 		.4byte	0
 12408              	.LLST175:
 12409 0dc7 46000000 		.4byte	.LVL130
 12410 0dcb 4A000000 		.4byte	.LVL131
 12411 0dcf 0200     		.2byte	0x2
 12412 0dd1 30       		.byte	0x30
 12413 0dd2 9F       		.byte	0x9f
 12414 0dd3 00000000 		.4byte	0
 12415 0dd7 00000000 		.4byte	0
 12416              	.LLST176:
 12417 0ddb 46000000 		.4byte	.LVL130
 12418 0ddf 4A000000 		.4byte	.LVL131
 12419 0de3 0200     		.2byte	0x2
 12420 0de5 34       		.byte	0x34
 12421 0de6 9F       		.byte	0x9f
 12422 0de7 00000000 		.4byte	0
 12423 0deb 00000000 		.4byte	0
 12424              	.LLST177:
 12425 0def 46000000 		.4byte	.LVL130
 12426 0df3 4A000000 		.4byte	.LVL131
 12427 0df7 0600     		.2byte	0x6
 12428 0df9 0C       		.byte	0xc
 12429 0dfa 80023240 		.4byte	0x40320280
 12430 0dfe 9F       		.byte	0x9f
 12431 0dff 00000000 		.4byte	0
 12432 0e03 00000000 		.4byte	0
 12433              	.LLST178:
 12434 0e07 4A000000 		.4byte	.LVL131
 12435 0e0b 50000000 		.4byte	.LVL132
 12436 0e0f 0200     		.2byte	0x2
 12437 0e11 30       		.byte	0x30
 12438 0e12 9F       		.byte	0x9f
 12439 0e13 00000000 		.4byte	0
 12440 0e17 00000000 		.4byte	0
 12441              	.LLST179:
 12442 0e1b 4A000000 		.4byte	.LVL131
 12443 0e1f 50000000 		.4byte	.LVL132
 12444 0e23 0200     		.2byte	0x2
 12445 0e25 35       		.byte	0x35
 12446 0e26 9F       		.byte	0x9f
 12447 0e27 00000000 		.4byte	0
 12448 0e2b 00000000 		.4byte	0
 12449              	.LLST180:
 12450 0e2f 4A000000 		.4byte	.LVL131
 12451 0e33 50000000 		.4byte	.LVL132
 12452 0e37 0600     		.2byte	0x6
 12453 0e39 0C       		.byte	0xc
 12454 0e3a 80023240 		.4byte	0x40320280
 12455 0e3e 9F       		.byte	0x9f
 12456 0e3f 00000000 		.4byte	0
 12457 0e43 00000000 		.4byte	0
 12458              	.LLST181:
 12459 0e47 56000000 		.4byte	.LVL133
 12460 0e4b 5C000000 		.4byte	.LVL134
 12461 0e4f 0200     		.2byte	0x2
 12462 0e51 31       		.byte	0x31
 12463 0e52 9F       		.byte	0x9f
ARM GAS  C:\Users\seeho\AppData\Local\Temp\ccUkk7Dc.s 			page 272


 12464 0e53 00000000 		.4byte	0
 12465 0e57 00000000 		.4byte	0
 12466              	.LLST182:
 12467 0e5b 56000000 		.4byte	.LVL133
 12468 0e5f 5C000000 		.4byte	.LVL134
 12469 0e63 0200     		.2byte	0x2
 12470 0e65 32       		.byte	0x32
 12471 0e66 9F       		.byte	0x9f
 12472 0e67 00000000 		.4byte	0
 12473 0e6b 00000000 		.4byte	0
 12474              	.LLST183:
 12475 0e6f 56000000 		.4byte	.LVL133
 12476 0e73 5C000000 		.4byte	.LVL134
 12477 0e77 0600     		.2byte	0x6
 12478 0e79 0C       		.byte	0xc
 12479 0e7a 80023240 		.4byte	0x40320280
 12480 0e7e 9F       		.byte	0x9f
 12481 0e7f 00000000 		.4byte	0
 12482 0e83 00000000 		.4byte	0
 12483              	.LLST184:
 12484 0e87 5C000000 		.4byte	.LVL134
 12485 0e8b 60000000 		.4byte	.LVL135
 12486 0e8f 0200     		.2byte	0x2
 12487 0e91 30       		.byte	0x30
 12488 0e92 9F       		.byte	0x9f
 12489 0e93 00000000 		.4byte	0
 12490 0e97 00000000 		.4byte	0
 12491              	.LLST185:
 12492 0e9b 5C000000 		.4byte	.LVL134
 12493 0e9f 60000000 		.4byte	.LVL135
 12494 0ea3 0200     		.2byte	0x2
 12495 0ea5 33       		.byte	0x33
 12496 0ea6 9F       		.byte	0x9f
 12497 0ea7 00000000 		.4byte	0
 12498 0eab 00000000 		.4byte	0
 12499              	.LLST186:
 12500 0eaf 5C000000 		.4byte	.LVL134
 12501 0eb3 60000000 		.4byte	.LVL135
 12502 0eb7 0600     		.2byte	0x6
 12503 0eb9 0C       		.byte	0xc
 12504 0eba 80023240 		.4byte	0x40320280
 12505 0ebe 9F       		.byte	0x9f
 12506 0ebf 00000000 		.4byte	0
 12507 0ec3 00000000 		.4byte	0
 12508              	.LLST187:
 12509 0ec7 60000000 		.4byte	.LVL135
 12510 0ecb 64000000 		.4byte	.LVL136
 12511 0ecf 0200     		.2byte	0x2
 12512 0ed1 30       		.byte	0x30
 12513 0ed2 9F       		.byte	0x9f
 12514 0ed3 00000000 		.4byte	0
 12515 0ed7 00000000 		.4byte	0
 12516              	.LLST188:
 12517 0edb 60000000 		.4byte	.LVL135
 12518 0edf 64000000 		.4byte	.LVL136
 12519 0ee3 0200     		.2byte	0x2
 12520 0ee5 34       		.byte	0x34
ARM GAS  C:\Users\seeho\AppData\Local\Temp\ccUkk7Dc.s 			page 273


 12521 0ee6 9F       		.byte	0x9f
 12522 0ee7 00000000 		.4byte	0
 12523 0eeb 00000000 		.4byte	0
 12524              	.LLST189:
 12525 0eef 60000000 		.4byte	.LVL135
 12526 0ef3 64000000 		.4byte	.LVL136
 12527 0ef7 0600     		.2byte	0x6
 12528 0ef9 0C       		.byte	0xc
 12529 0efa 80023240 		.4byte	0x40320280
 12530 0efe 9F       		.byte	0x9f
 12531 0eff 00000000 		.4byte	0
 12532 0f03 00000000 		.4byte	0
 12533              	.LLST190:
 12534 0f07 64000000 		.4byte	.LVL136
 12535 0f0b 6A000000 		.4byte	.LVL137
 12536 0f0f 0200     		.2byte	0x2
 12537 0f11 30       		.byte	0x30
 12538 0f12 9F       		.byte	0x9f
 12539 0f13 00000000 		.4byte	0
 12540 0f17 00000000 		.4byte	0
 12541              	.LLST191:
 12542 0f1b 64000000 		.4byte	.LVL136
 12543 0f1f 6A000000 		.4byte	.LVL137
 12544 0f23 0200     		.2byte	0x2
 12545 0f25 35       		.byte	0x35
 12546 0f26 9F       		.byte	0x9f
 12547 0f27 00000000 		.4byte	0
 12548 0f2b 00000000 		.4byte	0
 12549              	.LLST192:
 12550 0f2f 64000000 		.4byte	.LVL136
 12551 0f33 6A000000 		.4byte	.LVL137
 12552 0f37 0600     		.2byte	0x6
 12553 0f39 0C       		.byte	0xc
 12554 0f3a 80023240 		.4byte	0x40320280
 12555 0f3e 9F       		.byte	0x9f
 12556 0f3f 00000000 		.4byte	0
 12557 0f43 00000000 		.4byte	0
 12558              	.LLST193:
 12559 0f47 70000000 		.4byte	.LVL138
 12560 0f4b 76000000 		.4byte	.LVL139
 12561 0f4f 0200     		.2byte	0x2
 12562 0f51 30       		.byte	0x30
 12563 0f52 9F       		.byte	0x9f
 12564 0f53 00000000 		.4byte	0
 12565 0f57 00000000 		.4byte	0
 12566              	.LLST194:
 12567 0f5b 70000000 		.4byte	.LVL138
 12568 0f5f 76000000 		.4byte	.LVL139
 12569 0f63 0200     		.2byte	0x2
 12570 0f65 32       		.byte	0x32
 12571 0f66 9F       		.byte	0x9f
 12572 0f67 00000000 		.4byte	0
 12573 0f6b 00000000 		.4byte	0
 12574              	.LLST195:
 12575 0f6f 70000000 		.4byte	.LVL138
 12576 0f73 76000000 		.4byte	.LVL139
 12577 0f77 0600     		.2byte	0x6
ARM GAS  C:\Users\seeho\AppData\Local\Temp\ccUkk7Dc.s 			page 274


 12578 0f79 0C       		.byte	0xc
 12579 0f7a 80023240 		.4byte	0x40320280
 12580 0f7e 9F       		.byte	0x9f
 12581 0f7f 00000000 		.4byte	0
 12582 0f83 00000000 		.4byte	0
 12583              	.LLST196:
 12584 0f87 76000000 		.4byte	.LVL139
 12585 0f8b 7A000000 		.4byte	.LVL140
 12586 0f8f 0200     		.2byte	0x2
 12587 0f91 31       		.byte	0x31
 12588 0f92 9F       		.byte	0x9f
 12589 0f93 00000000 		.4byte	0
 12590 0f97 00000000 		.4byte	0
 12591              	.LLST197:
 12592 0f9b 76000000 		.4byte	.LVL139
 12593 0f9f 7A000000 		.4byte	.LVL140
 12594 0fa3 0200     		.2byte	0x2
 12595 0fa5 33       		.byte	0x33
 12596 0fa6 9F       		.byte	0x9f
 12597 0fa7 00000000 		.4byte	0
 12598 0fab 00000000 		.4byte	0
 12599              	.LLST198:
 12600 0faf 76000000 		.4byte	.LVL139
 12601 0fb3 7A000000 		.4byte	.LVL140
 12602 0fb7 0600     		.2byte	0x6
 12603 0fb9 0C       		.byte	0xc
 12604 0fba 80023240 		.4byte	0x40320280
 12605 0fbe 9F       		.byte	0x9f
 12606 0fbf 00000000 		.4byte	0
 12607 0fc3 00000000 		.4byte	0
 12608              	.LLST199:
 12609 0fc7 7A000000 		.4byte	.LVL140
 12610 0fcb 7E000000 		.4byte	.LVL141
 12611 0fcf 0200     		.2byte	0x2
 12612 0fd1 30       		.byte	0x30
 12613 0fd2 9F       		.byte	0x9f
 12614 0fd3 00000000 		.4byte	0
 12615 0fd7 00000000 		.4byte	0
 12616              	.LLST200:
 12617 0fdb 7A000000 		.4byte	.LVL140
 12618 0fdf 7E000000 		.4byte	.LVL141
 12619 0fe3 0200     		.2byte	0x2
 12620 0fe5 34       		.byte	0x34
 12621 0fe6 9F       		.byte	0x9f
 12622 0fe7 00000000 		.4byte	0
 12623 0feb 00000000 		.4byte	0
 12624              	.LLST201:
 12625 0fef 7A000000 		.4byte	.LVL140
 12626 0ff3 7E000000 		.4byte	.LVL141
 12627 0ff7 0600     		.2byte	0x6
 12628 0ff9 0C       		.byte	0xc
 12629 0ffa 80023240 		.4byte	0x40320280
 12630 0ffe 9F       		.byte	0x9f
 12631 0fff 00000000 		.4byte	0
 12632 1003 00000000 		.4byte	0
 12633              	.LLST202:
 12634 1007 7E000000 		.4byte	.LVL141
ARM GAS  C:\Users\seeho\AppData\Local\Temp\ccUkk7Dc.s 			page 275


 12635 100b 84000000 		.4byte	.LVL142
 12636 100f 0200     		.2byte	0x2
 12637 1011 30       		.byte	0x30
 12638 1012 9F       		.byte	0x9f
 12639 1013 00000000 		.4byte	0
 12640 1017 00000000 		.4byte	0
 12641              	.LLST203:
 12642 101b 7E000000 		.4byte	.LVL141
 12643 101f 84000000 		.4byte	.LVL142
 12644 1023 0200     		.2byte	0x2
 12645 1025 35       		.byte	0x35
 12646 1026 9F       		.byte	0x9f
 12647 1027 00000000 		.4byte	0
 12648 102b 00000000 		.4byte	0
 12649              	.LLST204:
 12650 102f 7E000000 		.4byte	.LVL141
 12651 1033 84000000 		.4byte	.LVL142
 12652 1037 0600     		.2byte	0x6
 12653 1039 0C       		.byte	0xc
 12654 103a 80023240 		.4byte	0x40320280
 12655 103e 9F       		.byte	0x9f
 12656 103f 00000000 		.4byte	0
 12657 1043 00000000 		.4byte	0
 12658              	.LLST205:
 12659 1047 8A000000 		.4byte	.LVL143
 12660 104b 90000000 		.4byte	.LVL144
 12661 104f 0200     		.2byte	0x2
 12662 1051 31       		.byte	0x31
 12663 1052 9F       		.byte	0x9f
 12664 1053 00000000 		.4byte	0
 12665 1057 00000000 		.4byte	0
 12666              	.LLST206:
 12667 105b 8A000000 		.4byte	.LVL143
 12668 105f 90000000 		.4byte	.LVL144
 12669 1063 0200     		.2byte	0x2
 12670 1065 32       		.byte	0x32
 12671 1066 9F       		.byte	0x9f
 12672 1067 00000000 		.4byte	0
 12673 106b 00000000 		.4byte	0
 12674              	.LLST207:
 12675 106f 8A000000 		.4byte	.LVL143
 12676 1073 90000000 		.4byte	.LVL144
 12677 1077 0600     		.2byte	0x6
 12678 1079 0C       		.byte	0xc
 12679 107a 80023240 		.4byte	0x40320280
 12680 107e 9F       		.byte	0x9f
 12681 107f 00000000 		.4byte	0
 12682 1083 00000000 		.4byte	0
 12683              	.LLST208:
 12684 1087 90000000 		.4byte	.LVL144
 12685 108b 94000000 		.4byte	.LVL145
 12686 108f 0200     		.2byte	0x2
 12687 1091 31       		.byte	0x31
 12688 1092 9F       		.byte	0x9f
 12689 1093 00000000 		.4byte	0
 12690 1097 00000000 		.4byte	0
 12691              	.LLST209:
ARM GAS  C:\Users\seeho\AppData\Local\Temp\ccUkk7Dc.s 			page 276


 12692 109b 90000000 		.4byte	.LVL144
 12693 109f 94000000 		.4byte	.LVL145
 12694 10a3 0200     		.2byte	0x2
 12695 10a5 33       		.byte	0x33
 12696 10a6 9F       		.byte	0x9f
 12697 10a7 00000000 		.4byte	0
 12698 10ab 00000000 		.4byte	0
 12699              	.LLST210:
 12700 10af 90000000 		.4byte	.LVL144
 12701 10b3 94000000 		.4byte	.LVL145
 12702 10b7 0600     		.2byte	0x6
 12703 10b9 0C       		.byte	0xc
 12704 10ba 80023240 		.4byte	0x40320280
 12705 10be 9F       		.byte	0x9f
 12706 10bf 00000000 		.4byte	0
 12707 10c3 00000000 		.4byte	0
 12708              	.LLST211:
 12709 10c7 94000000 		.4byte	.LVL145
 12710 10cb 98000000 		.4byte	.LVL146
 12711 10cf 0200     		.2byte	0x2
 12712 10d1 30       		.byte	0x30
 12713 10d2 9F       		.byte	0x9f
 12714 10d3 00000000 		.4byte	0
 12715 10d7 00000000 		.4byte	0
 12716              	.LLST212:
 12717 10db 94000000 		.4byte	.LVL145
 12718 10df 98000000 		.4byte	.LVL146
 12719 10e3 0200     		.2byte	0x2
 12720 10e5 34       		.byte	0x34
 12721 10e6 9F       		.byte	0x9f
 12722 10e7 00000000 		.4byte	0
 12723 10eb 00000000 		.4byte	0
 12724              	.LLST213:
 12725 10ef 94000000 		.4byte	.LVL145
 12726 10f3 98000000 		.4byte	.LVL146
 12727 10f7 0600     		.2byte	0x6
 12728 10f9 0C       		.byte	0xc
 12729 10fa 80023240 		.4byte	0x40320280
 12730 10fe 9F       		.byte	0x9f
 12731 10ff 00000000 		.4byte	0
 12732 1103 00000000 		.4byte	0
 12733              	.LLST214:
 12734 1107 98000000 		.4byte	.LVL146
 12735 110b 9E000000 		.4byte	.LVL147
 12736 110f 0200     		.2byte	0x2
 12737 1111 30       		.byte	0x30
 12738 1112 9F       		.byte	0x9f
 12739 1113 00000000 		.4byte	0
 12740 1117 00000000 		.4byte	0
 12741              	.LLST215:
 12742 111b 98000000 		.4byte	.LVL146
 12743 111f 9E000000 		.4byte	.LVL147
 12744 1123 0200     		.2byte	0x2
 12745 1125 35       		.byte	0x35
 12746 1126 9F       		.byte	0x9f
 12747 1127 00000000 		.4byte	0
 12748 112b 00000000 		.4byte	0
ARM GAS  C:\Users\seeho\AppData\Local\Temp\ccUkk7Dc.s 			page 277


 12749              	.LLST216:
 12750 112f 98000000 		.4byte	.LVL146
 12751 1133 9E000000 		.4byte	.LVL147
 12752 1137 0600     		.2byte	0x6
 12753 1139 0C       		.byte	0xc
 12754 113a 80023240 		.4byte	0x40320280
 12755 113e 9F       		.byte	0x9f
 12756 113f 00000000 		.4byte	0
 12757 1143 00000000 		.4byte	0
 12758              	.LLST217:
 12759 1147 A4000000 		.4byte	.LVL148
 12760 114b AA000000 		.4byte	.LVL149
 12761 114f 0200     		.2byte	0x2
 12762 1151 30       		.byte	0x30
 12763 1152 9F       		.byte	0x9f
 12764 1153 00000000 		.4byte	0
 12765 1157 00000000 		.4byte	0
 12766              	.LLST218:
 12767 115b A4000000 		.4byte	.LVL148
 12768 115f AA000000 		.4byte	.LVL149
 12769 1163 0200     		.2byte	0x2
 12770 1165 32       		.byte	0x32
 12771 1166 9F       		.byte	0x9f
 12772 1167 00000000 		.4byte	0
 12773 116b 00000000 		.4byte	0
 12774              	.LLST219:
 12775 116f A4000000 		.4byte	.LVL148
 12776 1173 AA000000 		.4byte	.LVL149
 12777 1177 0600     		.2byte	0x6
 12778 1179 0C       		.byte	0xc
 12779 117a 80023240 		.4byte	0x40320280
 12780 117e 9F       		.byte	0x9f
 12781 117f 00000000 		.4byte	0
 12782 1183 00000000 		.4byte	0
 12783              	.LLST220:
 12784 1187 AA000000 		.4byte	.LVL149
 12785 118b AE000000 		.4byte	.LVL150
 12786 118f 0200     		.2byte	0x2
 12787 1191 30       		.byte	0x30
 12788 1192 9F       		.byte	0x9f
 12789 1193 00000000 		.4byte	0
 12790 1197 00000000 		.4byte	0
 12791              	.LLST221:
 12792 119b AA000000 		.4byte	.LVL149
 12793 119f AE000000 		.4byte	.LVL150
 12794 11a3 0200     		.2byte	0x2
 12795 11a5 33       		.byte	0x33
 12796 11a6 9F       		.byte	0x9f
 12797 11a7 00000000 		.4byte	0
 12798 11ab 00000000 		.4byte	0
 12799              	.LLST222:
 12800 11af AA000000 		.4byte	.LVL149
 12801 11b3 AE000000 		.4byte	.LVL150
 12802 11b7 0600     		.2byte	0x6
 12803 11b9 0C       		.byte	0xc
 12804 11ba 80023240 		.4byte	0x40320280
 12805 11be 9F       		.byte	0x9f
ARM GAS  C:\Users\seeho\AppData\Local\Temp\ccUkk7Dc.s 			page 278


 12806 11bf 00000000 		.4byte	0
 12807 11c3 00000000 		.4byte	0
 12808              	.LLST223:
 12809 11c7 AE000000 		.4byte	.LVL150
 12810 11cb B2000000 		.4byte	.LVL151
 12811 11cf 0200     		.2byte	0x2
 12812 11d1 31       		.byte	0x31
 12813 11d2 9F       		.byte	0x9f
 12814 11d3 00000000 		.4byte	0
 12815 11d7 00000000 		.4byte	0
 12816              	.LLST224:
 12817 11db AE000000 		.4byte	.LVL150
 12818 11df B2000000 		.4byte	.LVL151
 12819 11e3 0200     		.2byte	0x2
 12820 11e5 34       		.byte	0x34
 12821 11e6 9F       		.byte	0x9f
 12822 11e7 00000000 		.4byte	0
 12823 11eb 00000000 		.4byte	0
 12824              	.LLST225:
 12825 11ef AE000000 		.4byte	.LVL150
 12826 11f3 B2000000 		.4byte	.LVL151
 12827 11f7 0600     		.2byte	0x6
 12828 11f9 0C       		.byte	0xc
 12829 11fa 80023240 		.4byte	0x40320280
 12830 11fe 9F       		.byte	0x9f
 12831 11ff 00000000 		.4byte	0
 12832 1203 00000000 		.4byte	0
 12833              	.LLST226:
 12834 1207 B2000000 		.4byte	.LVL151
 12835 120b B8000000 		.4byte	.LVL152
 12836 120f 0200     		.2byte	0x2
 12837 1211 30       		.byte	0x30
 12838 1212 9F       		.byte	0x9f
 12839 1213 00000000 		.4byte	0
 12840 1217 00000000 		.4byte	0
 12841              	.LLST227:
 12842 121b B2000000 		.4byte	.LVL151
 12843 121f B8000000 		.4byte	.LVL152
 12844 1223 0200     		.2byte	0x2
 12845 1225 35       		.byte	0x35
 12846 1226 9F       		.byte	0x9f
 12847 1227 00000000 		.4byte	0
 12848 122b 00000000 		.4byte	0
 12849              	.LLST228:
 12850 122f B2000000 		.4byte	.LVL151
 12851 1233 B8000000 		.4byte	.LVL152
 12852 1237 0600     		.2byte	0x6
 12853 1239 0C       		.byte	0xc
 12854 123a 80023240 		.4byte	0x40320280
 12855 123e 9F       		.byte	0x9f
 12856 123f 00000000 		.4byte	0
 12857 1243 00000000 		.4byte	0
 12858              	.LLST229:
 12859 1247 BE000000 		.4byte	.LVL153
 12860 124b C4000000 		.4byte	.LVL154
 12861 124f 0200     		.2byte	0x2
 12862 1251 31       		.byte	0x31
ARM GAS  C:\Users\seeho\AppData\Local\Temp\ccUkk7Dc.s 			page 279


 12863 1252 9F       		.byte	0x9f
 12864 1253 00000000 		.4byte	0
 12865 1257 00000000 		.4byte	0
 12866              	.LLST230:
 12867 125b BE000000 		.4byte	.LVL153
 12868 125f C4000000 		.4byte	.LVL154
 12869 1263 0200     		.2byte	0x2
 12870 1265 32       		.byte	0x32
 12871 1266 9F       		.byte	0x9f
 12872 1267 00000000 		.4byte	0
 12873 126b 00000000 		.4byte	0
 12874              	.LLST231:
 12875 126f BE000000 		.4byte	.LVL153
 12876 1273 C4000000 		.4byte	.LVL154
 12877 1277 0600     		.2byte	0x6
 12878 1279 0C       		.byte	0xc
 12879 127a 80023240 		.4byte	0x40320280
 12880 127e 9F       		.byte	0x9f
 12881 127f 00000000 		.4byte	0
 12882 1283 00000000 		.4byte	0
 12883              	.LLST232:
 12884 1287 C4000000 		.4byte	.LVL154
 12885 128b C8000000 		.4byte	.LVL155
 12886 128f 0200     		.2byte	0x2
 12887 1291 30       		.byte	0x30
 12888 1292 9F       		.byte	0x9f
 12889 1293 00000000 		.4byte	0
 12890 1297 00000000 		.4byte	0
 12891              	.LLST233:
 12892 129b C4000000 		.4byte	.LVL154
 12893 129f C8000000 		.4byte	.LVL155
 12894 12a3 0200     		.2byte	0x2
 12895 12a5 33       		.byte	0x33
 12896 12a6 9F       		.byte	0x9f
 12897 12a7 00000000 		.4byte	0
 12898 12ab 00000000 		.4byte	0
 12899              	.LLST234:
 12900 12af C4000000 		.4byte	.LVL154
 12901 12b3 C8000000 		.4byte	.LVL155
 12902 12b7 0600     		.2byte	0x6
 12903 12b9 0C       		.byte	0xc
 12904 12ba 80023240 		.4byte	0x40320280
 12905 12be 9F       		.byte	0x9f
 12906 12bf 00000000 		.4byte	0
 12907 12c3 00000000 		.4byte	0
 12908              	.LLST235:
 12909 12c7 C8000000 		.4byte	.LVL155
 12910 12cb CC000000 		.4byte	.LVL156
 12911 12cf 0200     		.2byte	0x2
 12912 12d1 31       		.byte	0x31
 12913 12d2 9F       		.byte	0x9f
 12914 12d3 00000000 		.4byte	0
 12915 12d7 00000000 		.4byte	0
 12916              	.LLST236:
 12917 12db C8000000 		.4byte	.LVL155
 12918 12df CC000000 		.4byte	.LVL156
 12919 12e3 0200     		.2byte	0x2
ARM GAS  C:\Users\seeho\AppData\Local\Temp\ccUkk7Dc.s 			page 280


 12920 12e5 34       		.byte	0x34
 12921 12e6 9F       		.byte	0x9f
 12922 12e7 00000000 		.4byte	0
 12923 12eb 00000000 		.4byte	0
 12924              	.LLST237:
 12925 12ef C8000000 		.4byte	.LVL155
 12926 12f3 CC000000 		.4byte	.LVL156
 12927 12f7 0600     		.2byte	0x6
 12928 12f9 0C       		.byte	0xc
 12929 12fa 80023240 		.4byte	0x40320280
 12930 12fe 9F       		.byte	0x9f
 12931 12ff 00000000 		.4byte	0
 12932 1303 00000000 		.4byte	0
 12933              	.LLST238:
 12934 1307 CC000000 		.4byte	.LVL156
 12935 130b D2000000 		.4byte	.LVL157
 12936 130f 0200     		.2byte	0x2
 12937 1311 30       		.byte	0x30
 12938 1312 9F       		.byte	0x9f
 12939 1313 00000000 		.4byte	0
 12940 1317 00000000 		.4byte	0
 12941              	.LLST239:
 12942 131b CC000000 		.4byte	.LVL156
 12943 131f D2000000 		.4byte	.LVL157
 12944 1323 0200     		.2byte	0x2
 12945 1325 35       		.byte	0x35
 12946 1326 9F       		.byte	0x9f
 12947 1327 00000000 		.4byte	0
 12948 132b 00000000 		.4byte	0
 12949              	.LLST240:
 12950 132f CC000000 		.4byte	.LVL156
 12951 1333 D2000000 		.4byte	.LVL157
 12952 1337 0600     		.2byte	0x6
 12953 1339 0C       		.byte	0xc
 12954 133a 80023240 		.4byte	0x40320280
 12955 133e 9F       		.byte	0x9f
 12956 133f 00000000 		.4byte	0
 12957 1343 00000000 		.4byte	0
 12958              	.LLST241:
 12959 1347 D8000000 		.4byte	.LVL158
 12960 134b DE000000 		.4byte	.LVL159
 12961 134f 0200     		.2byte	0x2
 12962 1351 30       		.byte	0x30
 12963 1352 9F       		.byte	0x9f
 12964 1353 00000000 		.4byte	0
 12965 1357 00000000 		.4byte	0
 12966              	.LLST242:
 12967 135b D8000000 		.4byte	.LVL158
 12968 135f DE000000 		.4byte	.LVL159
 12969 1363 0200     		.2byte	0x2
 12970 1365 32       		.byte	0x32
 12971 1366 9F       		.byte	0x9f
 12972 1367 00000000 		.4byte	0
 12973 136b 00000000 		.4byte	0
 12974              	.LLST243:
 12975 136f D8000000 		.4byte	.LVL158
 12976 1373 DE000000 		.4byte	.LVL159
ARM GAS  C:\Users\seeho\AppData\Local\Temp\ccUkk7Dc.s 			page 281


 12977 1377 0600     		.2byte	0x6
 12978 1379 0C       		.byte	0xc
 12979 137a 80023240 		.4byte	0x40320280
 12980 137e 9F       		.byte	0x9f
 12981 137f 00000000 		.4byte	0
 12982 1383 00000000 		.4byte	0
 12983              	.LLST244:
 12984 1387 DE000000 		.4byte	.LVL159
 12985 138b E2000000 		.4byte	.LVL160
 12986 138f 0200     		.2byte	0x2
 12987 1391 31       		.byte	0x31
 12988 1392 9F       		.byte	0x9f
 12989 1393 00000000 		.4byte	0
 12990 1397 00000000 		.4byte	0
 12991              	.LLST245:
 12992 139b DE000000 		.4byte	.LVL159
 12993 139f E2000000 		.4byte	.LVL160
 12994 13a3 0200     		.2byte	0x2
 12995 13a5 33       		.byte	0x33
 12996 13a6 9F       		.byte	0x9f
 12997 13a7 00000000 		.4byte	0
 12998 13ab 00000000 		.4byte	0
 12999              	.LLST246:
 13000 13af DE000000 		.4byte	.LVL159
 13001 13b3 E2000000 		.4byte	.LVL160
 13002 13b7 0600     		.2byte	0x6
 13003 13b9 0C       		.byte	0xc
 13004 13ba 80023240 		.4byte	0x40320280
 13005 13be 9F       		.byte	0x9f
 13006 13bf 00000000 		.4byte	0
 13007 13c3 00000000 		.4byte	0
 13008              	.LLST247:
 13009 13c7 E2000000 		.4byte	.LVL160
 13010 13cb E6000000 		.4byte	.LVL161
 13011 13cf 0200     		.2byte	0x2
 13012 13d1 31       		.byte	0x31
 13013 13d2 9F       		.byte	0x9f
 13014 13d3 00000000 		.4byte	0
 13015 13d7 00000000 		.4byte	0
 13016              	.LLST248:
 13017 13db E2000000 		.4byte	.LVL160
 13018 13df E6000000 		.4byte	.LVL161
 13019 13e3 0200     		.2byte	0x2
 13020 13e5 34       		.byte	0x34
 13021 13e6 9F       		.byte	0x9f
 13022 13e7 00000000 		.4byte	0
 13023 13eb 00000000 		.4byte	0
 13024              	.LLST249:
 13025 13ef E2000000 		.4byte	.LVL160
 13026 13f3 E6000000 		.4byte	.LVL161
 13027 13f7 0600     		.2byte	0x6
 13028 13f9 0C       		.byte	0xc
 13029 13fa 80023240 		.4byte	0x40320280
 13030 13fe 9F       		.byte	0x9f
 13031 13ff 00000000 		.4byte	0
 13032 1403 00000000 		.4byte	0
 13033              	.LLST250:
ARM GAS  C:\Users\seeho\AppData\Local\Temp\ccUkk7Dc.s 			page 282


 13034 1407 E6000000 		.4byte	.LVL161
 13035 140b EC000000 		.4byte	.LVL162
 13036 140f 0200     		.2byte	0x2
 13037 1411 30       		.byte	0x30
 13038 1412 9F       		.byte	0x9f
 13039 1413 00000000 		.4byte	0
 13040 1417 00000000 		.4byte	0
 13041              	.LLST251:
 13042 141b E6000000 		.4byte	.LVL161
 13043 141f EC000000 		.4byte	.LVL162
 13044 1423 0200     		.2byte	0x2
 13045 1425 35       		.byte	0x35
 13046 1426 9F       		.byte	0x9f
 13047 1427 00000000 		.4byte	0
 13048 142b 00000000 		.4byte	0
 13049              	.LLST252:
 13050 142f E6000000 		.4byte	.LVL161
 13051 1433 EC000000 		.4byte	.LVL162
 13052 1437 0600     		.2byte	0x6
 13053 1439 0C       		.byte	0xc
 13054 143a 80023240 		.4byte	0x40320280
 13055 143e 9F       		.byte	0x9f
 13056 143f 00000000 		.4byte	0
 13057 1443 00000000 		.4byte	0
 13058              	.LLST253:
 13059 1447 F2000000 		.4byte	.LVL163
 13060 144b F8000000 		.4byte	.LVL164
 13061 144f 0200     		.2byte	0x2
 13062 1451 31       		.byte	0x31
 13063 1452 9F       		.byte	0x9f
 13064 1453 00000000 		.4byte	0
 13065 1457 00000000 		.4byte	0
 13066              	.LLST254:
 13067 145b F2000000 		.4byte	.LVL163
 13068 145f F8000000 		.4byte	.LVL164
 13069 1463 0200     		.2byte	0x2
 13070 1465 32       		.byte	0x32
 13071 1466 9F       		.byte	0x9f
 13072 1467 00000000 		.4byte	0
 13073 146b 00000000 		.4byte	0
 13074              	.LLST255:
 13075 146f F2000000 		.4byte	.LVL163
 13076 1473 F8000000 		.4byte	.LVL164
 13077 1477 0600     		.2byte	0x6
 13078 1479 0C       		.byte	0xc
 13079 147a 80023240 		.4byte	0x40320280
 13080 147e 9F       		.byte	0x9f
 13081 147f 00000000 		.4byte	0
 13082 1483 00000000 		.4byte	0
 13083              	.LLST256:
 13084 1487 F8000000 		.4byte	.LVL164
 13085 148b FC000000 		.4byte	.LVL165
 13086 148f 0200     		.2byte	0x2
 13087 1491 31       		.byte	0x31
 13088 1492 9F       		.byte	0x9f
 13089 1493 00000000 		.4byte	0
 13090 1497 00000000 		.4byte	0
ARM GAS  C:\Users\seeho\AppData\Local\Temp\ccUkk7Dc.s 			page 283


 13091              	.LLST257:
 13092 149b F8000000 		.4byte	.LVL164
 13093 149f FC000000 		.4byte	.LVL165
 13094 14a3 0200     		.2byte	0x2
 13095 14a5 33       		.byte	0x33
 13096 14a6 9F       		.byte	0x9f
 13097 14a7 00000000 		.4byte	0
 13098 14ab 00000000 		.4byte	0
 13099              	.LLST258:
 13100 14af F8000000 		.4byte	.LVL164
 13101 14b3 FC000000 		.4byte	.LVL165
 13102 14b7 0600     		.2byte	0x6
 13103 14b9 0C       		.byte	0xc
 13104 14ba 80023240 		.4byte	0x40320280
 13105 14be 9F       		.byte	0x9f
 13106 14bf 00000000 		.4byte	0
 13107 14c3 00000000 		.4byte	0
 13108              	.LLST259:
 13109 14c7 FC000000 		.4byte	.LVL165
 13110 14cb 00010000 		.4byte	.LVL166
 13111 14cf 0200     		.2byte	0x2
 13112 14d1 31       		.byte	0x31
 13113 14d2 9F       		.byte	0x9f
 13114 14d3 00000000 		.4byte	0
 13115 14d7 00000000 		.4byte	0
 13116              	.LLST260:
 13117 14db FC000000 		.4byte	.LVL165
 13118 14df 00010000 		.4byte	.LVL166
 13119 14e3 0200     		.2byte	0x2
 13120 14e5 34       		.byte	0x34
 13121 14e6 9F       		.byte	0x9f
 13122 14e7 00000000 		.4byte	0
 13123 14eb 00000000 		.4byte	0
 13124              	.LLST261:
 13125 14ef FC000000 		.4byte	.LVL165
 13126 14f3 00010000 		.4byte	.LVL166
 13127 14f7 0600     		.2byte	0x6
 13128 14f9 0C       		.byte	0xc
 13129 14fa 80023240 		.4byte	0x40320280
 13130 14fe 9F       		.byte	0x9f
 13131 14ff 00000000 		.4byte	0
 13132 1503 00000000 		.4byte	0
 13133              	.LLST262:
 13134 1507 00010000 		.4byte	.LVL166
 13135 150b 06010000 		.4byte	.LVL167
 13136 150f 0200     		.2byte	0x2
 13137 1511 30       		.byte	0x30
 13138 1512 9F       		.byte	0x9f
 13139 1513 00000000 		.4byte	0
 13140 1517 00000000 		.4byte	0
 13141              	.LLST263:
 13142 151b 00010000 		.4byte	.LVL166
 13143 151f 06010000 		.4byte	.LVL167
 13144 1523 0200     		.2byte	0x2
 13145 1525 35       		.byte	0x35
 13146 1526 9F       		.byte	0x9f
 13147 1527 00000000 		.4byte	0
ARM GAS  C:\Users\seeho\AppData\Local\Temp\ccUkk7Dc.s 			page 284


 13148 152b 00000000 		.4byte	0
 13149              	.LLST264:
 13150 152f 00010000 		.4byte	.LVL166
 13151 1533 06010000 		.4byte	.LVL167
 13152 1537 0600     		.2byte	0x6
 13153 1539 0C       		.byte	0xc
 13154 153a 80023240 		.4byte	0x40320280
 13155 153e 9F       		.byte	0x9f
 13156 153f 00000000 		.4byte	0
 13157 1543 00000000 		.4byte	0
 13158              	.LLST265:
 13159 1547 0C010000 		.4byte	.LVL168
 13160 154b 12010000 		.4byte	.LVL169
 13161 154f 0200     		.2byte	0x2
 13162 1551 30       		.byte	0x30
 13163 1552 9F       		.byte	0x9f
 13164 1553 00000000 		.4byte	0
 13165 1557 00000000 		.4byte	0
 13166              	.LLST266:
 13167 155b 0C010000 		.4byte	.LVL168
 13168 155f 12010000 		.4byte	.LVL169
 13169 1563 0200     		.2byte	0x2
 13170 1565 32       		.byte	0x32
 13171 1566 9F       		.byte	0x9f
 13172 1567 00000000 		.4byte	0
 13173 156b 00000000 		.4byte	0
 13174              	.LLST267:
 13175 156f 0C010000 		.4byte	.LVL168
 13176 1573 12010000 		.4byte	.LVL169
 13177 1577 0600     		.2byte	0x6
 13178 1579 0C       		.byte	0xc
 13179 157a 80023240 		.4byte	0x40320280
 13180 157e 9F       		.byte	0x9f
 13181 157f 00000000 		.4byte	0
 13182 1583 00000000 		.4byte	0
 13183              	.LLST268:
 13184 1587 12010000 		.4byte	.LVL169
 13185 158b 16010000 		.4byte	.LVL170
 13186 158f 0200     		.2byte	0x2
 13187 1591 30       		.byte	0x30
 13188 1592 9F       		.byte	0x9f
 13189 1593 00000000 		.4byte	0
 13190 1597 00000000 		.4byte	0
 13191              	.LLST269:
 13192 159b 12010000 		.4byte	.LVL169
 13193 159f 16010000 		.4byte	.LVL170
 13194 15a3 0200     		.2byte	0x2
 13195 15a5 33       		.byte	0x33
 13196 15a6 9F       		.byte	0x9f
 13197 15a7 00000000 		.4byte	0
 13198 15ab 00000000 		.4byte	0
 13199              	.LLST270:
 13200 15af 12010000 		.4byte	.LVL169
 13201 15b3 16010000 		.4byte	.LVL170
 13202 15b7 0600     		.2byte	0x6
 13203 15b9 0C       		.byte	0xc
 13204 15ba 80023240 		.4byte	0x40320280
ARM GAS  C:\Users\seeho\AppData\Local\Temp\ccUkk7Dc.s 			page 285


 13205 15be 9F       		.byte	0x9f
 13206 15bf 00000000 		.4byte	0
 13207 15c3 00000000 		.4byte	0
 13208              	.LLST271:
 13209 15c7 16010000 		.4byte	.LVL170
 13210 15cb 1A010000 		.4byte	.LVL171
 13211 15cf 0200     		.2byte	0x2
 13212 15d1 30       		.byte	0x30
 13213 15d2 9F       		.byte	0x9f
 13214 15d3 00000000 		.4byte	0
 13215 15d7 00000000 		.4byte	0
 13216              	.LLST272:
 13217 15db 16010000 		.4byte	.LVL170
 13218 15df 1A010000 		.4byte	.LVL171
 13219 15e3 0200     		.2byte	0x2
 13220 15e5 34       		.byte	0x34
 13221 15e6 9F       		.byte	0x9f
 13222 15e7 00000000 		.4byte	0
 13223 15eb 00000000 		.4byte	0
 13224              	.LLST273:
 13225 15ef 16010000 		.4byte	.LVL170
 13226 15f3 1A010000 		.4byte	.LVL171
 13227 15f7 0600     		.2byte	0x6
 13228 15f9 0C       		.byte	0xc
 13229 15fa 80023240 		.4byte	0x40320280
 13230 15fe 9F       		.byte	0x9f
 13231 15ff 00000000 		.4byte	0
 13232 1603 00000000 		.4byte	0
 13233              	.LLST274:
 13234 1607 1A010000 		.4byte	.LVL171
 13235 160b 20010000 		.4byte	.LVL172
 13236 160f 0200     		.2byte	0x2
 13237 1611 31       		.byte	0x31
 13238 1612 9F       		.byte	0x9f
 13239 1613 00000000 		.4byte	0
 13240 1617 00000000 		.4byte	0
 13241              	.LLST275:
 13242 161b 1A010000 		.4byte	.LVL171
 13243 161f 20010000 		.4byte	.LVL172
 13244 1623 0200     		.2byte	0x2
 13245 1625 35       		.byte	0x35
 13246 1626 9F       		.byte	0x9f
 13247 1627 00000000 		.4byte	0
 13248 162b 00000000 		.4byte	0
 13249              	.LLST276:
 13250 162f 1A010000 		.4byte	.LVL171
 13251 1633 20010000 		.4byte	.LVL172
 13252 1637 0600     		.2byte	0x6
 13253 1639 0C       		.byte	0xc
 13254 163a 80023240 		.4byte	0x40320280
 13255 163e 9F       		.byte	0x9f
 13256 163f 00000000 		.4byte	0
 13257 1643 00000000 		.4byte	0
 13258              	.LLST277:
 13259 1647 26010000 		.4byte	.LVL173
 13260 164b 2C010000 		.4byte	.LVL174
 13261 164f 0200     		.2byte	0x2
ARM GAS  C:\Users\seeho\AppData\Local\Temp\ccUkk7Dc.s 			page 286


 13262 1651 31       		.byte	0x31
 13263 1652 9F       		.byte	0x9f
 13264 1653 00000000 		.4byte	0
 13265 1657 00000000 		.4byte	0
 13266              	.LLST278:
 13267 165b 26010000 		.4byte	.LVL173
 13268 165f 2C010000 		.4byte	.LVL174
 13269 1663 0200     		.2byte	0x2
 13270 1665 32       		.byte	0x32
 13271 1666 9F       		.byte	0x9f
 13272 1667 00000000 		.4byte	0
 13273 166b 00000000 		.4byte	0
 13274              	.LLST279:
 13275 166f 26010000 		.4byte	.LVL173
 13276 1673 2C010000 		.4byte	.LVL174
 13277 1677 0600     		.2byte	0x6
 13278 1679 0C       		.byte	0xc
 13279 167a 80023240 		.4byte	0x40320280
 13280 167e 9F       		.byte	0x9f
 13281 167f 00000000 		.4byte	0
 13282 1683 00000000 		.4byte	0
 13283              	.LLST280:
 13284 1687 2C010000 		.4byte	.LVL174
 13285 168b 30010000 		.4byte	.LVL175
 13286 168f 0200     		.2byte	0x2
 13287 1691 30       		.byte	0x30
 13288 1692 9F       		.byte	0x9f
 13289 1693 00000000 		.4byte	0
 13290 1697 00000000 		.4byte	0
 13291              	.LLST281:
 13292 169b 2C010000 		.4byte	.LVL174
 13293 169f 30010000 		.4byte	.LVL175
 13294 16a3 0200     		.2byte	0x2
 13295 16a5 33       		.byte	0x33
 13296 16a6 9F       		.byte	0x9f
 13297 16a7 00000000 		.4byte	0
 13298 16ab 00000000 		.4byte	0
 13299              	.LLST282:
 13300 16af 2C010000 		.4byte	.LVL174
 13301 16b3 30010000 		.4byte	.LVL175
 13302 16b7 0600     		.2byte	0x6
 13303 16b9 0C       		.byte	0xc
 13304 16ba 80023240 		.4byte	0x40320280
 13305 16be 9F       		.byte	0x9f
 13306 16bf 00000000 		.4byte	0
 13307 16c3 00000000 		.4byte	0
 13308              	.LLST283:
 13309 16c7 30010000 		.4byte	.LVL175
 13310 16cb 34010000 		.4byte	.LVL176
 13311 16cf 0200     		.2byte	0x2
 13312 16d1 30       		.byte	0x30
 13313 16d2 9F       		.byte	0x9f
 13314 16d3 00000000 		.4byte	0
 13315 16d7 00000000 		.4byte	0
 13316              	.LLST284:
 13317 16db 30010000 		.4byte	.LVL175
 13318 16df 34010000 		.4byte	.LVL176
ARM GAS  C:\Users\seeho\AppData\Local\Temp\ccUkk7Dc.s 			page 287


 13319 16e3 0200     		.2byte	0x2
 13320 16e5 34       		.byte	0x34
 13321 16e6 9F       		.byte	0x9f
 13322 16e7 00000000 		.4byte	0
 13323 16eb 00000000 		.4byte	0
 13324              	.LLST285:
 13325 16ef 30010000 		.4byte	.LVL175
 13326 16f3 34010000 		.4byte	.LVL176
 13327 16f7 0600     		.2byte	0x6
 13328 16f9 0C       		.byte	0xc
 13329 16fa 80023240 		.4byte	0x40320280
 13330 16fe 9F       		.byte	0x9f
 13331 16ff 00000000 		.4byte	0
 13332 1703 00000000 		.4byte	0
 13333              	.LLST286:
 13334 1707 34010000 		.4byte	.LVL176
 13335 170b 3A010000 		.4byte	.LVL177
 13336 170f 0200     		.2byte	0x2
 13337 1711 31       		.byte	0x31
 13338 1712 9F       		.byte	0x9f
 13339 1713 00000000 		.4byte	0
 13340 1717 00000000 		.4byte	0
 13341              	.LLST287:
 13342 171b 34010000 		.4byte	.LVL176
 13343 171f 3A010000 		.4byte	.LVL177
 13344 1723 0200     		.2byte	0x2
 13345 1725 35       		.byte	0x35
 13346 1726 9F       		.byte	0x9f
 13347 1727 00000000 		.4byte	0
 13348 172b 00000000 		.4byte	0
 13349              	.LLST288:
 13350 172f 34010000 		.4byte	.LVL176
 13351 1733 3A010000 		.4byte	.LVL177
 13352 1737 0600     		.2byte	0x6
 13353 1739 0C       		.byte	0xc
 13354 173a 80023240 		.4byte	0x40320280
 13355 173e 9F       		.byte	0x9f
 13356 173f 00000000 		.4byte	0
 13357 1743 00000000 		.4byte	0
 13358              	.LLST289:
 13359 1747 40010000 		.4byte	.LVL178
 13360 174b 46010000 		.4byte	.LVL179
 13361 174f 0200     		.2byte	0x2
 13362 1751 30       		.byte	0x30
 13363 1752 9F       		.byte	0x9f
 13364 1753 00000000 		.4byte	0
 13365 1757 00000000 		.4byte	0
 13366              	.LLST290:
 13367 175b 40010000 		.4byte	.LVL178
 13368 175f 46010000 		.4byte	.LVL179
 13369 1763 0200     		.2byte	0x2
 13370 1765 32       		.byte	0x32
 13371 1766 9F       		.byte	0x9f
 13372 1767 00000000 		.4byte	0
 13373 176b 00000000 		.4byte	0
 13374              	.LLST291:
 13375 176f 40010000 		.4byte	.LVL178
ARM GAS  C:\Users\seeho\AppData\Local\Temp\ccUkk7Dc.s 			page 288


 13376 1773 46010000 		.4byte	.LVL179
 13377 1777 0600     		.2byte	0x6
 13378 1779 0C       		.byte	0xc
 13379 177a 80023240 		.4byte	0x40320280
 13380 177e 9F       		.byte	0x9f
 13381 177f 00000000 		.4byte	0
 13382 1783 00000000 		.4byte	0
 13383              	.LLST292:
 13384 1787 46010000 		.4byte	.LVL179
 13385 178b 4A010000 		.4byte	.LVL180
 13386 178f 0200     		.2byte	0x2
 13387 1791 31       		.byte	0x31
 13388 1792 9F       		.byte	0x9f
 13389 1793 00000000 		.4byte	0
 13390 1797 00000000 		.4byte	0
 13391              	.LLST293:
 13392 179b 46010000 		.4byte	.LVL179
 13393 179f 4A010000 		.4byte	.LVL180
 13394 17a3 0200     		.2byte	0x2
 13395 17a5 33       		.byte	0x33
 13396 17a6 9F       		.byte	0x9f
 13397 17a7 00000000 		.4byte	0
 13398 17ab 00000000 		.4byte	0
 13399              	.LLST294:
 13400 17af 46010000 		.4byte	.LVL179
 13401 17b3 4A010000 		.4byte	.LVL180
 13402 17b7 0600     		.2byte	0x6
 13403 17b9 0C       		.byte	0xc
 13404 17ba 80023240 		.4byte	0x40320280
 13405 17be 9F       		.byte	0x9f
 13406 17bf 00000000 		.4byte	0
 13407 17c3 00000000 		.4byte	0
 13408              	.LLST295:
 13409 17c7 4A010000 		.4byte	.LVL180
 13410 17cb 4E010000 		.4byte	.LVL181
 13411 17cf 0200     		.2byte	0x2
 13412 17d1 30       		.byte	0x30
 13413 17d2 9F       		.byte	0x9f
 13414 17d3 00000000 		.4byte	0
 13415 17d7 00000000 		.4byte	0
 13416              	.LLST296:
 13417 17db 4A010000 		.4byte	.LVL180
 13418 17df 4E010000 		.4byte	.LVL181
 13419 17e3 0200     		.2byte	0x2
 13420 17e5 34       		.byte	0x34
 13421 17e6 9F       		.byte	0x9f
 13422 17e7 00000000 		.4byte	0
 13423 17eb 00000000 		.4byte	0
 13424              	.LLST297:
 13425 17ef 4A010000 		.4byte	.LVL180
 13426 17f3 4E010000 		.4byte	.LVL181
 13427 17f7 0600     		.2byte	0x6
 13428 17f9 0C       		.byte	0xc
 13429 17fa 80023240 		.4byte	0x40320280
 13430 17fe 9F       		.byte	0x9f
 13431 17ff 00000000 		.4byte	0
 13432 1803 00000000 		.4byte	0
ARM GAS  C:\Users\seeho\AppData\Local\Temp\ccUkk7Dc.s 			page 289


 13433              	.LLST298:
 13434 1807 4E010000 		.4byte	.LVL181
 13435 180b 54010000 		.4byte	.LVL182
 13436 180f 0200     		.2byte	0x2
 13437 1811 31       		.byte	0x31
 13438 1812 9F       		.byte	0x9f
 13439 1813 00000000 		.4byte	0
 13440 1817 00000000 		.4byte	0
 13441              	.LLST299:
 13442 181b 4E010000 		.4byte	.LVL181
 13443 181f 54010000 		.4byte	.LVL182
 13444 1823 0200     		.2byte	0x2
 13445 1825 35       		.byte	0x35
 13446 1826 9F       		.byte	0x9f
 13447 1827 00000000 		.4byte	0
 13448 182b 00000000 		.4byte	0
 13449              	.LLST300:
 13450 182f 4E010000 		.4byte	.LVL181
 13451 1833 54010000 		.4byte	.LVL182
 13452 1837 0600     		.2byte	0x6
 13453 1839 0C       		.byte	0xc
 13454 183a 80023240 		.4byte	0x40320280
 13455 183e 9F       		.byte	0x9f
 13456 183f 00000000 		.4byte	0
 13457 1843 00000000 		.4byte	0
 13458              	.LLST301:
 13459 1847 5A010000 		.4byte	.LVL183
 13460 184b 60010000 		.4byte	.LVL184
 13461 184f 0200     		.2byte	0x2
 13462 1851 31       		.byte	0x31
 13463 1852 9F       		.byte	0x9f
 13464 1853 00000000 		.4byte	0
 13465 1857 00000000 		.4byte	0
 13466              	.LLST302:
 13467 185b 5A010000 		.4byte	.LVL183
 13468 185f 60010000 		.4byte	.LVL184
 13469 1863 0200     		.2byte	0x2
 13470 1865 32       		.byte	0x32
 13471 1866 9F       		.byte	0x9f
 13472 1867 00000000 		.4byte	0
 13473 186b 00000000 		.4byte	0
 13474              	.LLST303:
 13475 186f 5A010000 		.4byte	.LVL183
 13476 1873 60010000 		.4byte	.LVL184
 13477 1877 0600     		.2byte	0x6
 13478 1879 0C       		.byte	0xc
 13479 187a 80023240 		.4byte	0x40320280
 13480 187e 9F       		.byte	0x9f
 13481 187f 00000000 		.4byte	0
 13482 1883 00000000 		.4byte	0
 13483              	.LLST304:
 13484 1887 60010000 		.4byte	.LVL184
 13485 188b 64010000 		.4byte	.LVL185
 13486 188f 0200     		.2byte	0x2
 13487 1891 31       		.byte	0x31
 13488 1892 9F       		.byte	0x9f
 13489 1893 00000000 		.4byte	0
ARM GAS  C:\Users\seeho\AppData\Local\Temp\ccUkk7Dc.s 			page 290


 13490 1897 00000000 		.4byte	0
 13491              	.LLST305:
 13492 189b 60010000 		.4byte	.LVL184
 13493 189f 64010000 		.4byte	.LVL185
 13494 18a3 0200     		.2byte	0x2
 13495 18a5 33       		.byte	0x33
 13496 18a6 9F       		.byte	0x9f
 13497 18a7 00000000 		.4byte	0
 13498 18ab 00000000 		.4byte	0
 13499              	.LLST306:
 13500 18af 60010000 		.4byte	.LVL184
 13501 18b3 64010000 		.4byte	.LVL185
 13502 18b7 0600     		.2byte	0x6
 13503 18b9 0C       		.byte	0xc
 13504 18ba 80023240 		.4byte	0x40320280
 13505 18be 9F       		.byte	0x9f
 13506 18bf 00000000 		.4byte	0
 13507 18c3 00000000 		.4byte	0
 13508              	.LLST307:
 13509 18c7 64010000 		.4byte	.LVL185
 13510 18cb 68010000 		.4byte	.LVL186
 13511 18cf 0200     		.2byte	0x2
 13512 18d1 30       		.byte	0x30
 13513 18d2 9F       		.byte	0x9f
 13514 18d3 00000000 		.4byte	0
 13515 18d7 00000000 		.4byte	0
 13516              	.LLST308:
 13517 18db 64010000 		.4byte	.LVL185
 13518 18df 68010000 		.4byte	.LVL186
 13519 18e3 0200     		.2byte	0x2
 13520 18e5 34       		.byte	0x34
 13521 18e6 9F       		.byte	0x9f
 13522 18e7 00000000 		.4byte	0
 13523 18eb 00000000 		.4byte	0
 13524              	.LLST309:
 13525 18ef 64010000 		.4byte	.LVL185
 13526 18f3 68010000 		.4byte	.LVL186
 13527 18f7 0600     		.2byte	0x6
 13528 18f9 0C       		.byte	0xc
 13529 18fa 80023240 		.4byte	0x40320280
 13530 18fe 9F       		.byte	0x9f
 13531 18ff 00000000 		.4byte	0
 13532 1903 00000000 		.4byte	0
 13533              	.LLST310:
 13534 1907 68010000 		.4byte	.LVL186
 13535 190b 6E010000 		.4byte	.LVL187
 13536 190f 0200     		.2byte	0x2
 13537 1911 31       		.byte	0x31
 13538 1912 9F       		.byte	0x9f
 13539 1913 00000000 		.4byte	0
 13540 1917 00000000 		.4byte	0
 13541              	.LLST311:
 13542 191b 68010000 		.4byte	.LVL186
 13543 191f 6E010000 		.4byte	.LVL187
 13544 1923 0200     		.2byte	0x2
 13545 1925 35       		.byte	0x35
 13546 1926 9F       		.byte	0x9f
ARM GAS  C:\Users\seeho\AppData\Local\Temp\ccUkk7Dc.s 			page 291


 13547 1927 00000000 		.4byte	0
 13548 192b 00000000 		.4byte	0
 13549              	.LLST312:
 13550 192f 68010000 		.4byte	.LVL186
 13551 1933 6E010000 		.4byte	.LVL187
 13552 1937 0600     		.2byte	0x6
 13553 1939 0C       		.byte	0xc
 13554 193a 80023240 		.4byte	0x40320280
 13555 193e 9F       		.byte	0x9f
 13556 193f 00000000 		.4byte	0
 13557 1943 00000000 		.4byte	0
 13558              	.LLST313:
 13559 1947 74010000 		.4byte	.LVL188
 13560 194b 7A010000 		.4byte	.LVL189
 13561 194f 0200     		.2byte	0x2
 13562 1951 30       		.byte	0x30
 13563 1952 9F       		.byte	0x9f
 13564 1953 00000000 		.4byte	0
 13565 1957 00000000 		.4byte	0
 13566              	.LLST314:
 13567 195b 74010000 		.4byte	.LVL188
 13568 195f 7A010000 		.4byte	.LVL189
 13569 1963 0200     		.2byte	0x2
 13570 1965 32       		.byte	0x32
 13571 1966 9F       		.byte	0x9f
 13572 1967 00000000 		.4byte	0
 13573 196b 00000000 		.4byte	0
 13574              	.LLST315:
 13575 196f 74010000 		.4byte	.LVL188
 13576 1973 7A010000 		.4byte	.LVL189
 13577 1977 0600     		.2byte	0x6
 13578 1979 0C       		.byte	0xc
 13579 197a 80023240 		.4byte	0x40320280
 13580 197e 9F       		.byte	0x9f
 13581 197f 00000000 		.4byte	0
 13582 1983 00000000 		.4byte	0
 13583              	.LLST316:
 13584 1987 7A010000 		.4byte	.LVL189
 13585 198b 7E010000 		.4byte	.LVL190
 13586 198f 0200     		.2byte	0x2
 13587 1991 30       		.byte	0x30
 13588 1992 9F       		.byte	0x9f
 13589 1993 00000000 		.4byte	0
 13590 1997 00000000 		.4byte	0
 13591              	.LLST317:
 13592 199b 7A010000 		.4byte	.LVL189
 13593 199f 7E010000 		.4byte	.LVL190
 13594 19a3 0200     		.2byte	0x2
 13595 19a5 33       		.byte	0x33
 13596 19a6 9F       		.byte	0x9f
 13597 19a7 00000000 		.4byte	0
 13598 19ab 00000000 		.4byte	0
 13599              	.LLST318:
 13600 19af 7A010000 		.4byte	.LVL189
 13601 19b3 7E010000 		.4byte	.LVL190
 13602 19b7 0600     		.2byte	0x6
 13603 19b9 0C       		.byte	0xc
ARM GAS  C:\Users\seeho\AppData\Local\Temp\ccUkk7Dc.s 			page 292


 13604 19ba 80023240 		.4byte	0x40320280
 13605 19be 9F       		.byte	0x9f
 13606 19bf 00000000 		.4byte	0
 13607 19c3 00000000 		.4byte	0
 13608              	.LLST319:
 13609 19c7 7E010000 		.4byte	.LVL190
 13610 19cb 82010000 		.4byte	.LVL191
 13611 19cf 0200     		.2byte	0x2
 13612 19d1 31       		.byte	0x31
 13613 19d2 9F       		.byte	0x9f
 13614 19d3 00000000 		.4byte	0
 13615 19d7 00000000 		.4byte	0
 13616              	.LLST320:
 13617 19db 7E010000 		.4byte	.LVL190
 13618 19df 82010000 		.4byte	.LVL191
 13619 19e3 0200     		.2byte	0x2
 13620 19e5 34       		.byte	0x34
 13621 19e6 9F       		.byte	0x9f
 13622 19e7 00000000 		.4byte	0
 13623 19eb 00000000 		.4byte	0
 13624              	.LLST321:
 13625 19ef 7E010000 		.4byte	.LVL190
 13626 19f3 82010000 		.4byte	.LVL191
 13627 19f7 0600     		.2byte	0x6
 13628 19f9 0C       		.byte	0xc
 13629 19fa 80023240 		.4byte	0x40320280
 13630 19fe 9F       		.byte	0x9f
 13631 19ff 00000000 		.4byte	0
 13632 1a03 00000000 		.4byte	0
 13633              	.LLST322:
 13634 1a07 82010000 		.4byte	.LVL191
 13635 1a0b 88010000 		.4byte	.LVL192
 13636 1a0f 0200     		.2byte	0x2
 13637 1a11 31       		.byte	0x31
 13638 1a12 9F       		.byte	0x9f
 13639 1a13 00000000 		.4byte	0
 13640 1a17 00000000 		.4byte	0
 13641              	.LLST323:
 13642 1a1b 82010000 		.4byte	.LVL191
 13643 1a1f 88010000 		.4byte	.LVL192
 13644 1a23 0200     		.2byte	0x2
 13645 1a25 35       		.byte	0x35
 13646 1a26 9F       		.byte	0x9f
 13647 1a27 00000000 		.4byte	0
 13648 1a2b 00000000 		.4byte	0
 13649              	.LLST324:
 13650 1a2f 82010000 		.4byte	.LVL191
 13651 1a33 88010000 		.4byte	.LVL192
 13652 1a37 0600     		.2byte	0x6
 13653 1a39 0C       		.byte	0xc
 13654 1a3a 80023240 		.4byte	0x40320280
 13655 1a3e 9F       		.byte	0x9f
 13656 1a3f 00000000 		.4byte	0
 13657 1a43 00000000 		.4byte	0
 13658              	.LLST325:
 13659 1a47 8E010000 		.4byte	.LVL193
 13660 1a4b 94010000 		.4byte	.LVL194
ARM GAS  C:\Users\seeho\AppData\Local\Temp\ccUkk7Dc.s 			page 293


 13661 1a4f 0200     		.2byte	0x2
 13662 1a51 31       		.byte	0x31
 13663 1a52 9F       		.byte	0x9f
 13664 1a53 00000000 		.4byte	0
 13665 1a57 00000000 		.4byte	0
 13666              	.LLST326:
 13667 1a5b 8E010000 		.4byte	.LVL193
 13668 1a5f 94010000 		.4byte	.LVL194
 13669 1a63 0200     		.2byte	0x2
 13670 1a65 32       		.byte	0x32
 13671 1a66 9F       		.byte	0x9f
 13672 1a67 00000000 		.4byte	0
 13673 1a6b 00000000 		.4byte	0
 13674              	.LLST327:
 13675 1a6f 8E010000 		.4byte	.LVL193
 13676 1a73 94010000 		.4byte	.LVL194
 13677 1a77 0600     		.2byte	0x6
 13678 1a79 0C       		.byte	0xc
 13679 1a7a 80023240 		.4byte	0x40320280
 13680 1a7e 9F       		.byte	0x9f
 13681 1a7f 00000000 		.4byte	0
 13682 1a83 00000000 		.4byte	0
 13683              	.LLST328:
 13684 1a87 94010000 		.4byte	.LVL194
 13685 1a8b 98010000 		.4byte	.LVL195
 13686 1a8f 0200     		.2byte	0x2
 13687 1a91 30       		.byte	0x30
 13688 1a92 9F       		.byte	0x9f
 13689 1a93 00000000 		.4byte	0
 13690 1a97 00000000 		.4byte	0
 13691              	.LLST329:
 13692 1a9b 94010000 		.4byte	.LVL194
 13693 1a9f 98010000 		.4byte	.LVL195
 13694 1aa3 0200     		.2byte	0x2
 13695 1aa5 33       		.byte	0x33
 13696 1aa6 9F       		.byte	0x9f
 13697 1aa7 00000000 		.4byte	0
 13698 1aab 00000000 		.4byte	0
 13699              	.LLST330:
 13700 1aaf 94010000 		.4byte	.LVL194
 13701 1ab3 98010000 		.4byte	.LVL195
 13702 1ab7 0600     		.2byte	0x6
 13703 1ab9 0C       		.byte	0xc
 13704 1aba 80023240 		.4byte	0x40320280
 13705 1abe 9F       		.byte	0x9f
 13706 1abf 00000000 		.4byte	0
 13707 1ac3 00000000 		.4byte	0
 13708              	.LLST331:
 13709 1ac7 98010000 		.4byte	.LVL195
 13710 1acb 9C010000 		.4byte	.LVL196
 13711 1acf 0200     		.2byte	0x2
 13712 1ad1 31       		.byte	0x31
 13713 1ad2 9F       		.byte	0x9f
 13714 1ad3 00000000 		.4byte	0
 13715 1ad7 00000000 		.4byte	0
 13716              	.LLST332:
 13717 1adb 98010000 		.4byte	.LVL195
ARM GAS  C:\Users\seeho\AppData\Local\Temp\ccUkk7Dc.s 			page 294


 13718 1adf 9C010000 		.4byte	.LVL196
 13719 1ae3 0200     		.2byte	0x2
 13720 1ae5 34       		.byte	0x34
 13721 1ae6 9F       		.byte	0x9f
 13722 1ae7 00000000 		.4byte	0
 13723 1aeb 00000000 		.4byte	0
 13724              	.LLST333:
 13725 1aef 98010000 		.4byte	.LVL195
 13726 1af3 9C010000 		.4byte	.LVL196
 13727 1af7 0600     		.2byte	0x6
 13728 1af9 0C       		.byte	0xc
 13729 1afa 80023240 		.4byte	0x40320280
 13730 1afe 9F       		.byte	0x9f
 13731 1aff 00000000 		.4byte	0
 13732 1b03 00000000 		.4byte	0
 13733              	.LLST334:
 13734 1b07 9C010000 		.4byte	.LVL196
 13735 1b0b A2010000 		.4byte	.LVL197
 13736 1b0f 0200     		.2byte	0x2
 13737 1b11 31       		.byte	0x31
 13738 1b12 9F       		.byte	0x9f
 13739 1b13 00000000 		.4byte	0
 13740 1b17 00000000 		.4byte	0
 13741              	.LLST335:
 13742 1b1b 9C010000 		.4byte	.LVL196
 13743 1b1f A2010000 		.4byte	.LVL197
 13744 1b23 0200     		.2byte	0x2
 13745 1b25 35       		.byte	0x35
 13746 1b26 9F       		.byte	0x9f
 13747 1b27 00000000 		.4byte	0
 13748 1b2b 00000000 		.4byte	0
 13749              	.LLST336:
 13750 1b2f 9C010000 		.4byte	.LVL196
 13751 1b33 A2010000 		.4byte	.LVL197
 13752 1b37 0600     		.2byte	0x6
 13753 1b39 0C       		.byte	0xc
 13754 1b3a 80023240 		.4byte	0x40320280
 13755 1b3e 9F       		.byte	0x9f
 13756 1b3f 00000000 		.4byte	0
 13757 1b43 00000000 		.4byte	0
 13758              	.LLST337:
 13759 1b47 A8010000 		.4byte	.LVL198
 13760 1b4b AE010000 		.4byte	.LVL199
 13761 1b4f 0200     		.2byte	0x2
 13762 1b51 30       		.byte	0x30
 13763 1b52 9F       		.byte	0x9f
 13764 1b53 00000000 		.4byte	0
 13765 1b57 00000000 		.4byte	0
 13766              	.LLST338:
 13767 1b5b A8010000 		.4byte	.LVL198
 13768 1b5f AE010000 		.4byte	.LVL199
 13769 1b63 0200     		.2byte	0x2
 13770 1b65 32       		.byte	0x32
 13771 1b66 9F       		.byte	0x9f
 13772 1b67 00000000 		.4byte	0
 13773 1b6b 00000000 		.4byte	0
 13774              	.LLST339:
ARM GAS  C:\Users\seeho\AppData\Local\Temp\ccUkk7Dc.s 			page 295


 13775 1b6f A8010000 		.4byte	.LVL198
 13776 1b73 AE010000 		.4byte	.LVL199
 13777 1b77 0600     		.2byte	0x6
 13778 1b79 0C       		.byte	0xc
 13779 1b7a 80023240 		.4byte	0x40320280
 13780 1b7e 9F       		.byte	0x9f
 13781 1b7f 00000000 		.4byte	0
 13782 1b83 00000000 		.4byte	0
 13783              	.LLST340:
 13784 1b87 AE010000 		.4byte	.LVL199
 13785 1b8b B2010000 		.4byte	.LVL200
 13786 1b8f 0200     		.2byte	0x2
 13787 1b91 31       		.byte	0x31
 13788 1b92 9F       		.byte	0x9f
 13789 1b93 00000000 		.4byte	0
 13790 1b97 00000000 		.4byte	0
 13791              	.LLST341:
 13792 1b9b AE010000 		.4byte	.LVL199
 13793 1b9f B2010000 		.4byte	.LVL200
 13794 1ba3 0200     		.2byte	0x2
 13795 1ba5 33       		.byte	0x33
 13796 1ba6 9F       		.byte	0x9f
 13797 1ba7 00000000 		.4byte	0
 13798 1bab 00000000 		.4byte	0
 13799              	.LLST342:
 13800 1baf AE010000 		.4byte	.LVL199
 13801 1bb3 B2010000 		.4byte	.LVL200
 13802 1bb7 0600     		.2byte	0x6
 13803 1bb9 0C       		.byte	0xc
 13804 1bba 80023240 		.4byte	0x40320280
 13805 1bbe 9F       		.byte	0x9f
 13806 1bbf 00000000 		.4byte	0
 13807 1bc3 00000000 		.4byte	0
 13808              	.LLST343:
 13809 1bc7 B2010000 		.4byte	.LVL200
 13810 1bcb B6010000 		.4byte	.LVL201
 13811 1bcf 0200     		.2byte	0x2
 13812 1bd1 31       		.byte	0x31
 13813 1bd2 9F       		.byte	0x9f
 13814 1bd3 00000000 		.4byte	0
 13815 1bd7 00000000 		.4byte	0
 13816              	.LLST344:
 13817 1bdb B2010000 		.4byte	.LVL200
 13818 1bdf B6010000 		.4byte	.LVL201
 13819 1be3 0200     		.2byte	0x2
 13820 1be5 34       		.byte	0x34
 13821 1be6 9F       		.byte	0x9f
 13822 1be7 00000000 		.4byte	0
 13823 1beb 00000000 		.4byte	0
 13824              	.LLST345:
 13825 1bef B2010000 		.4byte	.LVL200
 13826 1bf3 B6010000 		.4byte	.LVL201
 13827 1bf7 0600     		.2byte	0x6
 13828 1bf9 0C       		.byte	0xc
 13829 1bfa 80023240 		.4byte	0x40320280
 13830 1bfe 9F       		.byte	0x9f
 13831 1bff 00000000 		.4byte	0
ARM GAS  C:\Users\seeho\AppData\Local\Temp\ccUkk7Dc.s 			page 296


 13832 1c03 00000000 		.4byte	0
 13833              	.LLST346:
 13834 1c07 B6010000 		.4byte	.LVL201
 13835 1c0b BC010000 		.4byte	.LVL202
 13836 1c0f 0200     		.2byte	0x2
 13837 1c11 31       		.byte	0x31
 13838 1c12 9F       		.byte	0x9f
 13839 1c13 00000000 		.4byte	0
 13840 1c17 00000000 		.4byte	0
 13841              	.LLST347:
 13842 1c1b B6010000 		.4byte	.LVL201
 13843 1c1f BC010000 		.4byte	.LVL202
 13844 1c23 0200     		.2byte	0x2
 13845 1c25 35       		.byte	0x35
 13846 1c26 9F       		.byte	0x9f
 13847 1c27 00000000 		.4byte	0
 13848 1c2b 00000000 		.4byte	0
 13849              	.LLST348:
 13850 1c2f B6010000 		.4byte	.LVL201
 13851 1c33 BC010000 		.4byte	.LVL202
 13852 1c37 0600     		.2byte	0x6
 13853 1c39 0C       		.byte	0xc
 13854 1c3a 80023240 		.4byte	0x40320280
 13855 1c3e 9F       		.byte	0x9f
 13856 1c3f 00000000 		.4byte	0
 13857 1c43 00000000 		.4byte	0
 13858              	.LLST349:
 13859 1c47 C2010000 		.4byte	.LVL203
 13860 1c4b C8010000 		.4byte	.LVL204
 13861 1c4f 0200     		.2byte	0x2
 13862 1c51 31       		.byte	0x31
 13863 1c52 9F       		.byte	0x9f
 13864 1c53 00000000 		.4byte	0
 13865 1c57 00000000 		.4byte	0
 13866              	.LLST350:
 13867 1c5b C2010000 		.4byte	.LVL203
 13868 1c5f C8010000 		.4byte	.LVL204
 13869 1c63 0200     		.2byte	0x2
 13870 1c65 32       		.byte	0x32
 13871 1c66 9F       		.byte	0x9f
 13872 1c67 00000000 		.4byte	0
 13873 1c6b 00000000 		.4byte	0
 13874              	.LLST351:
 13875 1c6f C2010000 		.4byte	.LVL203
 13876 1c73 C8010000 		.4byte	.LVL204
 13877 1c77 0600     		.2byte	0x6
 13878 1c79 0C       		.byte	0xc
 13879 1c7a 80023240 		.4byte	0x40320280
 13880 1c7e 9F       		.byte	0x9f
 13881 1c7f 00000000 		.4byte	0
 13882 1c83 00000000 		.4byte	0
 13883              	.LLST352:
 13884 1c87 C8010000 		.4byte	.LVL204
 13885 1c8b CC010000 		.4byte	.LVL205
 13886 1c8f 0200     		.2byte	0x2
 13887 1c91 31       		.byte	0x31
 13888 1c92 9F       		.byte	0x9f
ARM GAS  C:\Users\seeho\AppData\Local\Temp\ccUkk7Dc.s 			page 297


 13889 1c93 00000000 		.4byte	0
 13890 1c97 00000000 		.4byte	0
 13891              	.LLST353:
 13892 1c9b C8010000 		.4byte	.LVL204
 13893 1c9f CC010000 		.4byte	.LVL205
 13894 1ca3 0200     		.2byte	0x2
 13895 1ca5 33       		.byte	0x33
 13896 1ca6 9F       		.byte	0x9f
 13897 1ca7 00000000 		.4byte	0
 13898 1cab 00000000 		.4byte	0
 13899              	.LLST354:
 13900 1caf C8010000 		.4byte	.LVL204
 13901 1cb3 CC010000 		.4byte	.LVL205
 13902 1cb7 0600     		.2byte	0x6
 13903 1cb9 0C       		.byte	0xc
 13904 1cba 80023240 		.4byte	0x40320280
 13905 1cbe 9F       		.byte	0x9f
 13906 1cbf 00000000 		.4byte	0
 13907 1cc3 00000000 		.4byte	0
 13908              	.LLST355:
 13909 1cc7 CC010000 		.4byte	.LVL205
 13910 1ccb D0010000 		.4byte	.LVL206
 13911 1ccf 0200     		.2byte	0x2
 13912 1cd1 31       		.byte	0x31
 13913 1cd2 9F       		.byte	0x9f
 13914 1cd3 00000000 		.4byte	0
 13915 1cd7 00000000 		.4byte	0
 13916              	.LLST356:
 13917 1cdb CC010000 		.4byte	.LVL205
 13918 1cdf D0010000 		.4byte	.LVL206
 13919 1ce3 0200     		.2byte	0x2
 13920 1ce5 34       		.byte	0x34
 13921 1ce6 9F       		.byte	0x9f
 13922 1ce7 00000000 		.4byte	0
 13923 1ceb 00000000 		.4byte	0
 13924              	.LLST357:
 13925 1cef CC010000 		.4byte	.LVL205
 13926 1cf3 D0010000 		.4byte	.LVL206
 13927 1cf7 0600     		.2byte	0x6
 13928 1cf9 0C       		.byte	0xc
 13929 1cfa 80023240 		.4byte	0x40320280
 13930 1cfe 9F       		.byte	0x9f
 13931 1cff 00000000 		.4byte	0
 13932 1d03 00000000 		.4byte	0
 13933              	.LLST358:
 13934 1d07 00000000 		.4byte	.LVL209
 13935 1d0b 8E000000 		.4byte	.LVL210
 13936 1d0f 0100     		.2byte	0x1
 13937 1d11 50       		.byte	0x50
 13938 1d12 8E000000 		.4byte	.LVL210
 13939 1d16 B6000000 		.4byte	.LVL218
 13940 1d1a 0400     		.2byte	0x4
 13941 1d1c F3       		.byte	0xf3
 13942 1d1d 01       		.uleb128 0x1
 13943 1d1e 50       		.byte	0x50
 13944 1d1f 9F       		.byte	0x9f
 13945 1d20 B6000000 		.4byte	.LVL218
ARM GAS  C:\Users\seeho\AppData\Local\Temp\ccUkk7Dc.s 			page 298


 13946 1d24 B8000000 		.4byte	.LVL219
 13947 1d28 0100     		.2byte	0x1
 13948 1d2a 50       		.byte	0x50
 13949 1d2b B8000000 		.4byte	.LVL219
 13950 1d2f BE000000 		.4byte	.LVL221
 13951 1d33 0400     		.2byte	0x4
 13952 1d35 F3       		.byte	0xf3
 13953 1d36 01       		.uleb128 0x1
 13954 1d37 50       		.byte	0x50
 13955 1d38 9F       		.byte	0x9f
 13956 1d39 BE000000 		.4byte	.LVL221
 13957 1d3d C0000000 		.4byte	.LVL222
 13958 1d41 0100     		.2byte	0x1
 13959 1d43 50       		.byte	0x50
 13960 1d44 C0000000 		.4byte	.LVL222
 13961 1d48 C6000000 		.4byte	.LVL224
 13962 1d4c 0400     		.2byte	0x4
 13963 1d4e F3       		.byte	0xf3
 13964 1d4f 01       		.uleb128 0x1
 13965 1d50 50       		.byte	0x50
 13966 1d51 9F       		.byte	0x9f
 13967 1d52 C6000000 		.4byte	.LVL224
 13968 1d56 CA000000 		.4byte	.LVL226
 13969 1d5a 0100     		.2byte	0x1
 13970 1d5c 50       		.byte	0x50
 13971 1d5d CA000000 		.4byte	.LVL226
 13972 1d61 D0000000 		.4byte	.LVL228
 13973 1d65 0400     		.2byte	0x4
 13974 1d67 F3       		.byte	0xf3
 13975 1d68 01       		.uleb128 0x1
 13976 1d69 50       		.byte	0x50
 13977 1d6a 9F       		.byte	0x9f
 13978 1d6b D0000000 		.4byte	.LVL228
 13979 1d6f D2000000 		.4byte	.LVL229
 13980 1d73 0100     		.2byte	0x1
 13981 1d75 50       		.byte	0x50
 13982 1d76 D2000000 		.4byte	.LVL229
 13983 1d7a D8000000 		.4byte	.LVL231
 13984 1d7e 0400     		.2byte	0x4
 13985 1d80 F3       		.byte	0xf3
 13986 1d81 01       		.uleb128 0x1
 13987 1d82 50       		.byte	0x50
 13988 1d83 9F       		.byte	0x9f
 13989 1d84 D8000000 		.4byte	.LVL231
 13990 1d88 DA000000 		.4byte	.LVL232
 13991 1d8c 0100     		.2byte	0x1
 13992 1d8e 50       		.byte	0x50
 13993 1d8f DA000000 		.4byte	.LVL232
 13994 1d93 0C010000 		.4byte	.LVL240
 13995 1d97 0400     		.2byte	0x4
 13996 1d99 F3       		.byte	0xf3
 13997 1d9a 01       		.uleb128 0x1
 13998 1d9b 50       		.byte	0x50
 13999 1d9c 9F       		.byte	0x9f
 14000 1d9d 0C010000 		.4byte	.LVL240
 14001 1da1 0E010000 		.4byte	.LVL241
 14002 1da5 0100     		.2byte	0x1
ARM GAS  C:\Users\seeho\AppData\Local\Temp\ccUkk7Dc.s 			page 299


 14003 1da7 50       		.byte	0x50
 14004 1da8 0E010000 		.4byte	.LVL241
 14005 1dac 14010000 		.4byte	.LVL243
 14006 1db0 0400     		.2byte	0x4
 14007 1db2 F3       		.byte	0xf3
 14008 1db3 01       		.uleb128 0x1
 14009 1db4 50       		.byte	0x50
 14010 1db5 9F       		.byte	0x9f
 14011 1db6 14010000 		.4byte	.LVL243
 14012 1dba 16010000 		.4byte	.LVL244
 14013 1dbe 0100     		.2byte	0x1
 14014 1dc0 50       		.byte	0x50
 14015 1dc1 16010000 		.4byte	.LVL244
 14016 1dc5 1C010000 		.4byte	.LVL246
 14017 1dc9 0400     		.2byte	0x4
 14018 1dcb F3       		.byte	0xf3
 14019 1dcc 01       		.uleb128 0x1
 14020 1dcd 50       		.byte	0x50
 14021 1dce 9F       		.byte	0x9f
 14022 1dcf 1C010000 		.4byte	.LVL246
 14023 1dd3 1E010000 		.4byte	.LVL247
 14024 1dd7 0100     		.2byte	0x1
 14025 1dd9 50       		.byte	0x50
 14026 1dda 1E010000 		.4byte	.LVL247
 14027 1dde 24010000 		.4byte	.LVL249
 14028 1de2 0400     		.2byte	0x4
 14029 1de4 F3       		.byte	0xf3
 14030 1de5 01       		.uleb128 0x1
 14031 1de6 50       		.byte	0x50
 14032 1de7 9F       		.byte	0x9f
 14033 1de8 24010000 		.4byte	.LVL249
 14034 1dec 26010000 		.4byte	.LVL250
 14035 1df0 0100     		.2byte	0x1
 14036 1df2 50       		.byte	0x50
 14037 1df3 26010000 		.4byte	.LVL250
 14038 1df7 2C010000 		.4byte	.LVL252
 14039 1dfb 0400     		.2byte	0x4
 14040 1dfd F3       		.byte	0xf3
 14041 1dfe 01       		.uleb128 0x1
 14042 1dff 50       		.byte	0x50
 14043 1e00 9F       		.byte	0x9f
 14044 1e01 2C010000 		.4byte	.LVL252
 14045 1e05 32010000 		.4byte	.LVL254
 14046 1e09 0100     		.2byte	0x1
 14047 1e0b 50       		.byte	0x50
 14048 1e0c 32010000 		.4byte	.LVL254
 14049 1e10 4E010000 		.4byte	.LVL260
 14050 1e14 0400     		.2byte	0x4
 14051 1e16 F3       		.byte	0xf3
 14052 1e17 01       		.uleb128 0x1
 14053 1e18 50       		.byte	0x50
 14054 1e19 9F       		.byte	0x9f
 14055 1e1a 4E010000 		.4byte	.LVL260
 14056 1e1e 50010000 		.4byte	.LVL261
 14057 1e22 0100     		.2byte	0x1
 14058 1e24 50       		.byte	0x50
 14059 1e25 50010000 		.4byte	.LVL261
ARM GAS  C:\Users\seeho\AppData\Local\Temp\ccUkk7Dc.s 			page 300


 14060 1e29 56010000 		.4byte	.LVL263
 14061 1e2d 0400     		.2byte	0x4
 14062 1e2f F3       		.byte	0xf3
 14063 1e30 01       		.uleb128 0x1
 14064 1e31 50       		.byte	0x50
 14065 1e32 9F       		.byte	0x9f
 14066 1e33 56010000 		.4byte	.LVL263
 14067 1e37 58010000 		.4byte	.LVL264
 14068 1e3b 0100     		.2byte	0x1
 14069 1e3d 50       		.byte	0x50
 14070 1e3e 58010000 		.4byte	.LVL264
 14071 1e42 00020000 		.4byte	.LVL278
 14072 1e46 0400     		.2byte	0x4
 14073 1e48 F3       		.byte	0xf3
 14074 1e49 01       		.uleb128 0x1
 14075 1e4a 50       		.byte	0x50
 14076 1e4b 9F       		.byte	0x9f
 14077 1e4c 00020000 		.4byte	.LVL278
 14078 1e50 02020000 		.4byte	.LVL279
 14079 1e54 0100     		.2byte	0x1
 14080 1e56 50       		.byte	0x50
 14081 1e57 02020000 		.4byte	.LVL279
 14082 1e5b 08020000 		.4byte	.LVL281
 14083 1e5f 0400     		.2byte	0x4
 14084 1e61 F3       		.byte	0xf3
 14085 1e62 01       		.uleb128 0x1
 14086 1e63 50       		.byte	0x50
 14087 1e64 9F       		.byte	0x9f
 14088 1e65 08020000 		.4byte	.LVL281
 14089 1e69 0A020000 		.4byte	.LVL282
 14090 1e6d 0100     		.2byte	0x1
 14091 1e6f 50       		.byte	0x50
 14092 1e70 0A020000 		.4byte	.LVL282
 14093 1e74 10020000 		.4byte	.LVL284
 14094 1e78 0400     		.2byte	0x4
 14095 1e7a F3       		.byte	0xf3
 14096 1e7b 01       		.uleb128 0x1
 14097 1e7c 50       		.byte	0x50
 14098 1e7d 9F       		.byte	0x9f
 14099 1e7e 10020000 		.4byte	.LVL284
 14100 1e82 14020000 		.4byte	.LVL286
 14101 1e86 0100     		.2byte	0x1
 14102 1e88 50       		.byte	0x50
 14103 1e89 14020000 		.4byte	.LVL286
 14104 1e8d 17020000 		.4byte	.LVL287-1
 14105 1e91 0100     		.2byte	0x1
 14106 1e93 51       		.byte	0x51
 14107 1e94 17020000 		.4byte	.LVL287-1
 14108 1e98 84020000 		.4byte	.LFE647
 14109 1e9c 0400     		.2byte	0x4
 14110 1e9e F3       		.byte	0xf3
 14111 1e9f 01       		.uleb128 0x1
 14112 1ea0 50       		.byte	0x50
 14113 1ea1 9F       		.byte	0x9f
 14114 1ea2 00000000 		.4byte	0
 14115 1ea6 00000000 		.4byte	0
 14116              	.LLST359:
ARM GAS  C:\Users\seeho\AppData\Local\Temp\ccUkk7Dc.s 			page 301


 14117 1eaa 00000000 		.4byte	.LVL209
 14118 1eae 91000000 		.4byte	.LVL211-1
 14119 1eb2 0100     		.2byte	0x1
 14120 1eb4 51       		.byte	0x51
 14121 1eb5 91000000 		.4byte	.LVL211-1
 14122 1eb9 B6000000 		.4byte	.LVL218
 14123 1ebd 0100     		.2byte	0x1
 14124 1ebf 55       		.byte	0x55
 14125 1ec0 B6000000 		.4byte	.LVL218
 14126 1ec4 BB000000 		.4byte	.LVL220-1
 14127 1ec8 0100     		.2byte	0x1
 14128 1eca 51       		.byte	0x51
 14129 1ecb BB000000 		.4byte	.LVL220-1
 14130 1ecf BE000000 		.4byte	.LVL221
 14131 1ed3 0100     		.2byte	0x1
 14132 1ed5 55       		.byte	0x55
 14133 1ed6 BE000000 		.4byte	.LVL221
 14134 1eda C3000000 		.4byte	.LVL223-1
 14135 1ede 0100     		.2byte	0x1
 14136 1ee0 51       		.byte	0x51
 14137 1ee1 C3000000 		.4byte	.LVL223-1
 14138 1ee5 C6000000 		.4byte	.LVL224
 14139 1ee9 0100     		.2byte	0x1
 14140 1eeb 55       		.byte	0x55
 14141 1eec C6000000 		.4byte	.LVL224
 14142 1ef0 C8000000 		.4byte	.LVL225
 14143 1ef4 0100     		.2byte	0x1
 14144 1ef6 51       		.byte	0x51
 14145 1ef7 C8000000 		.4byte	.LVL225
 14146 1efb D0000000 		.4byte	.LVL228
 14147 1eff 0100     		.2byte	0x1
 14148 1f01 55       		.byte	0x55
 14149 1f02 D0000000 		.4byte	.LVL228
 14150 1f06 D5000000 		.4byte	.LVL230-1
 14151 1f0a 0100     		.2byte	0x1
 14152 1f0c 51       		.byte	0x51
 14153 1f0d D5000000 		.4byte	.LVL230-1
 14154 1f11 D8000000 		.4byte	.LVL231
 14155 1f15 0100     		.2byte	0x1
 14156 1f17 55       		.byte	0x55
 14157 1f18 D8000000 		.4byte	.LVL231
 14158 1f1c DD000000 		.4byte	.LVL233-1
 14159 1f20 0100     		.2byte	0x1
 14160 1f22 51       		.byte	0x51
 14161 1f23 DD000000 		.4byte	.LVL233-1
 14162 1f27 0C010000 		.4byte	.LVL240
 14163 1f2b 0100     		.2byte	0x1
 14164 1f2d 55       		.byte	0x55
 14165 1f2e 0C010000 		.4byte	.LVL240
 14166 1f32 11010000 		.4byte	.LVL242-1
 14167 1f36 0100     		.2byte	0x1
 14168 1f38 51       		.byte	0x51
 14169 1f39 11010000 		.4byte	.LVL242-1
 14170 1f3d 14010000 		.4byte	.LVL243
 14171 1f41 0100     		.2byte	0x1
 14172 1f43 55       		.byte	0x55
 14173 1f44 14010000 		.4byte	.LVL243
ARM GAS  C:\Users\seeho\AppData\Local\Temp\ccUkk7Dc.s 			page 302


 14174 1f48 19010000 		.4byte	.LVL245-1
 14175 1f4c 0100     		.2byte	0x1
 14176 1f4e 51       		.byte	0x51
 14177 1f4f 19010000 		.4byte	.LVL245-1
 14178 1f53 1C010000 		.4byte	.LVL246
 14179 1f57 0400     		.2byte	0x4
 14180 1f59 F3       		.byte	0xf3
 14181 1f5a 01       		.uleb128 0x1
 14182 1f5b 51       		.byte	0x51
 14183 1f5c 9F       		.byte	0x9f
 14184 1f5d 1C010000 		.4byte	.LVL246
 14185 1f61 21010000 		.4byte	.LVL248-1
 14186 1f65 0100     		.2byte	0x1
 14187 1f67 51       		.byte	0x51
 14188 1f68 21010000 		.4byte	.LVL248-1
 14189 1f6c 24010000 		.4byte	.LVL249
 14190 1f70 0100     		.2byte	0x1
 14191 1f72 55       		.byte	0x55
 14192 1f73 24010000 		.4byte	.LVL249
 14193 1f77 29010000 		.4byte	.LVL251-1
 14194 1f7b 0100     		.2byte	0x1
 14195 1f7d 51       		.byte	0x51
 14196 1f7e 29010000 		.4byte	.LVL251-1
 14197 1f82 2C010000 		.4byte	.LVL252
 14198 1f86 0100     		.2byte	0x1
 14199 1f88 55       		.byte	0x55
 14200 1f89 2C010000 		.4byte	.LVL252
 14201 1f8d 30010000 		.4byte	.LVL253
 14202 1f91 0100     		.2byte	0x1
 14203 1f93 51       		.byte	0x51
 14204 1f94 30010000 		.4byte	.LVL253
 14205 1f98 4E010000 		.4byte	.LVL260
 14206 1f9c 0100     		.2byte	0x1
 14207 1f9e 55       		.byte	0x55
 14208 1f9f 4E010000 		.4byte	.LVL260
 14209 1fa3 53010000 		.4byte	.LVL262-1
 14210 1fa7 0100     		.2byte	0x1
 14211 1fa9 51       		.byte	0x51
 14212 1faa 53010000 		.4byte	.LVL262-1
 14213 1fae 56010000 		.4byte	.LVL263
 14214 1fb2 0100     		.2byte	0x1
 14215 1fb4 55       		.byte	0x55
 14216 1fb5 56010000 		.4byte	.LVL263
 14217 1fb9 5B010000 		.4byte	.LVL265-1
 14218 1fbd 0100     		.2byte	0x1
 14219 1fbf 51       		.byte	0x51
 14220 1fc0 5B010000 		.4byte	.LVL265-1
 14221 1fc4 00020000 		.4byte	.LVL278
 14222 1fc8 0100     		.2byte	0x1
 14223 1fca 55       		.byte	0x55
 14224 1fcb 00020000 		.4byte	.LVL278
 14225 1fcf 05020000 		.4byte	.LVL280-1
 14226 1fd3 0100     		.2byte	0x1
 14227 1fd5 51       		.byte	0x51
 14228 1fd6 05020000 		.4byte	.LVL280-1
 14229 1fda 08020000 		.4byte	.LVL281
 14230 1fde 0100     		.2byte	0x1
ARM GAS  C:\Users\seeho\AppData\Local\Temp\ccUkk7Dc.s 			page 303


 14231 1fe0 55       		.byte	0x55
 14232 1fe1 08020000 		.4byte	.LVL281
 14233 1fe5 0D020000 		.4byte	.LVL283-1
 14234 1fe9 0100     		.2byte	0x1
 14235 1feb 51       		.byte	0x51
 14236 1fec 0D020000 		.4byte	.LVL283-1
 14237 1ff0 10020000 		.4byte	.LVL284
 14238 1ff4 0100     		.2byte	0x1
 14239 1ff6 55       		.byte	0x55
 14240 1ff7 10020000 		.4byte	.LVL284
 14241 1ffb 12020000 		.4byte	.LVL285
 14242 1fff 0100     		.2byte	0x1
 14243 2001 51       		.byte	0x51
 14244 2002 12020000 		.4byte	.LVL285
 14245 2006 1A020000 		.4byte	.LVL288
 14246 200a 0100     		.2byte	0x1
 14247 200c 55       		.byte	0x55
 14248 200d 1A020000 		.4byte	.LVL288
 14249 2011 84020000 		.4byte	.LFE647
 14250 2015 0400     		.2byte	0x4
 14251 2017 F3       		.byte	0xf3
 14252 2018 01       		.uleb128 0x1
 14253 2019 51       		.byte	0x51
 14254 201a 9F       		.byte	0x9f
 14255 201b 00000000 		.4byte	0
 14256 201f 00000000 		.4byte	0
 14257              	.LLST360:
 14258 2023 5C010000 		.4byte	.LVL265
 14259 2027 00020000 		.4byte	.LVL278
 14260 202b 0100     		.2byte	0x1
 14261 202d 55       		.byte	0x55
 14262 202e 00000000 		.4byte	0
 14263 2032 00000000 		.4byte	0
 14264              	.LLST361:
 14265 2036 DE000000 		.4byte	.LVL233
 14266 203a E2000000 		.4byte	.LVL234
 14267 203e 0200     		.2byte	0x2
 14268 2040 36       		.byte	0x36
 14269 2041 9F       		.byte	0x9f
 14270 2042 E2000000 		.4byte	.LVL234
 14271 2046 E8000000 		.4byte	.LVL235
 14272 204a 0100     		.2byte	0x1
 14273 204c 54       		.byte	0x54
 14274 204d 00010000 		.4byte	.LVL238
 14275 2051 0C010000 		.4byte	.LVL240
 14276 2055 0100     		.2byte	0x1
 14277 2057 54       		.byte	0x54
 14278 2058 00000000 		.4byte	0
 14279 205c 00000000 		.4byte	0
 14280              	.LLST362:
 14281 2060 9E000000 		.4byte	.LVL213
 14282 2064 A4000000 		.4byte	.LVL214
 14283 2068 0200     		.2byte	0x2
 14284 206a 31       		.byte	0x31
 14285 206b 9F       		.byte	0x9f
 14286 206c 00000000 		.4byte	0
 14287 2070 00000000 		.4byte	0
ARM GAS  C:\Users\seeho\AppData\Local\Temp\ccUkk7Dc.s 			page 304


 14288              	.LLST363:
 14289 2074 9E000000 		.4byte	.LVL213
 14290 2078 A4000000 		.4byte	.LVL214
 14291 207c 0600     		.2byte	0x6
 14292 207e 0C       		.byte	0xc
 14293 207f 00003840 		.4byte	0x40380000
 14294 2083 9F       		.byte	0x9f
 14295 2084 00000000 		.4byte	0
 14296 2088 00000000 		.4byte	0
 14297              	.LLST364:
 14298 208c A4000000 		.4byte	.LVL214
 14299 2090 A8000000 		.4byte	.LVL215
 14300 2094 0200     		.2byte	0x2
 14301 2096 31       		.byte	0x31
 14302 2097 9F       		.byte	0x9f
 14303 2098 00000000 		.4byte	0
 14304 209c 00000000 		.4byte	0
 14305              	.LLST365:
 14306 20a0 A4000000 		.4byte	.LVL214
 14307 20a4 A8000000 		.4byte	.LVL215
 14308 20a8 0600     		.2byte	0x6
 14309 20aa 0C       		.byte	0xc
 14310 20ab 00003840 		.4byte	0x40380000
 14311 20af 9F       		.byte	0x9f
 14312 20b0 00000000 		.4byte	0
 14313 20b4 00000000 		.4byte	0
 14314              	.LLST366:
 14315 20b8 3E010000 		.4byte	.LVL256
 14316 20bc 44010000 		.4byte	.LVL257
 14317 20c0 0200     		.2byte	0x2
 14318 20c2 30       		.byte	0x30
 14319 20c3 9F       		.byte	0x9f
 14320 20c4 00000000 		.4byte	0
 14321 20c8 00000000 		.4byte	0
 14322              	.LLST367:
 14323 20cc 3E010000 		.4byte	.LVL256
 14324 20d0 44010000 		.4byte	.LVL257
 14325 20d4 0600     		.2byte	0x6
 14326 20d6 0C       		.byte	0xc
 14327 20d7 00003840 		.4byte	0x40380000
 14328 20db 9F       		.byte	0x9f
 14329 20dc 00000000 		.4byte	0
 14330 20e0 00000000 		.4byte	0
 14331              	.LLST368:
 14332 20e4 44010000 		.4byte	.LVL257
 14333 20e8 48010000 		.4byte	.LVL258
 14334 20ec 0200     		.2byte	0x2
 14335 20ee 30       		.byte	0x30
 14336 20ef 9F       		.byte	0x9f
 14337 20f0 00000000 		.4byte	0
 14338 20f4 00000000 		.4byte	0
 14339              	.LLST369:
 14340 20f8 44010000 		.4byte	.LVL257
 14341 20fc 48010000 		.4byte	.LVL258
 14342 2100 0600     		.2byte	0x6
 14343 2102 0C       		.byte	0xc
 14344 2103 00003840 		.4byte	0x40380000
ARM GAS  C:\Users\seeho\AppData\Local\Temp\ccUkk7Dc.s 			page 305


 14345 2107 9F       		.byte	0x9f
 14346 2108 00000000 		.4byte	0
 14347 210c 00000000 		.4byte	0
 14348              	.LLST370:
 14349 2110 9C010000 		.4byte	.LVL269
 14350 2114 A2010000 		.4byte	.LVL270
 14351 2118 0100     		.2byte	0x1
 14352 211a 52       		.byte	0x52
 14353 211b 00000000 		.4byte	0
 14354 211f 00000000 		.4byte	0
 14355              	.LLST371:
 14356 2123 9C010000 		.4byte	.LVL269
 14357 2127 A2010000 		.4byte	.LVL270
 14358 212b 0200     		.2byte	0x2
 14359 212d 31       		.byte	0x31
 14360 212e 9F       		.byte	0x9f
 14361 212f 00000000 		.4byte	0
 14362 2133 00000000 		.4byte	0
 14363              	.LLST372:
 14364 2137 9C010000 		.4byte	.LVL269
 14365 213b A2010000 		.4byte	.LVL270
 14366 213f 0600     		.2byte	0x6
 14367 2141 0C       		.byte	0xc
 14368 2142 00003840 		.4byte	0x40380000
 14369 2146 9F       		.byte	0x9f
 14370 2147 00000000 		.4byte	0
 14371 214b 00000000 		.4byte	0
 14372              		.section	.debug_aranges,"",%progbits
 14373 0000 74000000 		.4byte	0x74
 14374 0004 0200     		.2byte	0x2
 14375 0006 00000000 		.4byte	.Ldebug_info0
 14376 000a 04       		.byte	0x4
 14377 000b 00       		.byte	0
 14378 000c 0000     		.2byte	0
 14379 000e 0000     		.2byte	0
 14380 0010 00000000 		.4byte	.LFB639
 14381 0014 98000000 		.4byte	.LFE639-.LFB639
 14382 0018 00000000 		.4byte	.LFB648
 14383 001c 38000000 		.4byte	.LFE648-.LFB648
 14384 0020 00000000 		.4byte	.LFB649
 14385 0024 84000000 		.4byte	.LFE649-.LFB649
 14386 0028 00000000 		.4byte	.LFB640
 14387 002c 64000000 		.4byte	.LFE640-.LFB640
 14388 0030 00000000 		.4byte	.LFB641
 14389 0034 28000000 		.4byte	.LFE641-.LFB641
 14390 0038 00000000 		.4byte	.LFB642
 14391 003c C0000000 		.4byte	.LFE642-.LFB642
 14392 0040 00000000 		.4byte	.LFB643
 14393 0044 D8010000 		.4byte	.LFE643-.LFB643
 14394 0048 00000000 		.4byte	.LFB644
 14395 004c 24020000 		.4byte	.LFE644-.LFB644
 14396 0050 00000000 		.4byte	.LFB645
 14397 0054 18000000 		.4byte	.LFE645-.LFB645
 14398 0058 00000000 		.4byte	.LFB646
 14399 005c 18000000 		.4byte	.LFE646-.LFB646
 14400 0060 00000000 		.4byte	.LFB647
 14401 0064 84020000 		.4byte	.LFE647-.LFB647
ARM GAS  C:\Users\seeho\AppData\Local\Temp\ccUkk7Dc.s 			page 306


 14402 0068 00000000 		.4byte	.LFB650
 14403 006c 68000000 		.4byte	.LFE650-.LFB650
 14404 0070 00000000 		.4byte	0
 14405 0074 00000000 		.4byte	0
 14406              		.section	.debug_ranges,"",%progbits
 14407              	.Ldebug_ranges0:
 14408 0000 00000000 		.4byte	.LFB639
 14409 0004 98000000 		.4byte	.LFE639
 14410 0008 00000000 		.4byte	.LFB648
 14411 000c 38000000 		.4byte	.LFE648
 14412 0010 00000000 		.4byte	.LFB649
 14413 0014 84000000 		.4byte	.LFE649
 14414 0018 00000000 		.4byte	.LFB640
 14415 001c 64000000 		.4byte	.LFE640
 14416 0020 00000000 		.4byte	.LFB641
 14417 0024 28000000 		.4byte	.LFE641
 14418 0028 00000000 		.4byte	.LFB642
 14419 002c C0000000 		.4byte	.LFE642
 14420 0030 00000000 		.4byte	.LFB643
 14421 0034 D8010000 		.4byte	.LFE643
 14422 0038 00000000 		.4byte	.LFB644
 14423 003c 24020000 		.4byte	.LFE644
 14424 0040 00000000 		.4byte	.LFB645
 14425 0044 18000000 		.4byte	.LFE645
 14426 0048 00000000 		.4byte	.LFB646
 14427 004c 18000000 		.4byte	.LFE646
 14428 0050 00000000 		.4byte	.LFB647
 14429 0054 84020000 		.4byte	.LFE647
 14430 0058 00000000 		.4byte	.LFB650
 14431 005c 68000000 		.4byte	.LFE650
 14432 0060 00000000 		.4byte	0
 14433 0064 00000000 		.4byte	0
 14434              		.section	.debug_line,"",%progbits
 14435              	.Ldebug_line0:
 14436 0000 9A090000 		.section	.debug_str,"MS",%progbits,1
 14436      02004E06 
 14436      00000201 
 14436      FB0E0D00 
 14436      01010101 
 14437              	.LASF342:
 14438 0000 43595F42 		.ascii	"CY_BLE_EVT_PENDING_FLASH_WRITE\000"
 14438      4C455F45 
 14438      56545F50 
 14438      454E4449 
 14438      4E475F46 
 14439              	.LASF518:
 14440 001f 6576656E 		.ascii	"eventParameter\000"
 14440      74506172 
 14440      616D6574 
 14440      657200
 14441              	.LASF422:
 14442 002e 43595F42 		.ascii	"CY_BLE_EVT_GATTC_READ_BY_TYPE_RSP\000"
 14442      4C455F45 
 14442      56545F47 
 14442      41545443 
 14442      5F524541 
 14443              	.LASF76:
ARM GAS  C:\Users\seeho\AppData\Local\Temp\ccUkk7Dc.s 			page 307


 14444 0050 63727970 		.ascii	"cryptoBase\000"
 14444      746F4261 
 14444      736500
 14445              	.LASF19:
 14446 005b 73697A65 		.ascii	"sizetype\000"
 14446      74797065 
 14446      00
 14447              	.LASF238:
 14448 0064 5F5F7661 		.ascii	"__value\000"
 14448      6C756500 
 14449              	.LASF370:
 14450 006c 43595F42 		.ascii	"CY_BLE_EVT_SET_DEVICE_ADDR_COMPLETE\000"
 14450      4C455F45 
 14450      56545F53 
 14450      45545F44 
 14450      45564943 
 14451              	.LASF306:
 14452 0090 5F5F7366 		.ascii	"__sf\000"
 14452      00
 14453              	.LASF51:
 14454 0095 54525F43 		.ascii	"TR_CTRL0\000"
 14454      54524C30 
 14454      00
 14455              	.LASF52:
 14456 009e 54525F43 		.ascii	"TR_CTRL1\000"
 14456      54524C31 
 14456      00
 14457              	.LASF53:
 14458 00a7 54525F43 		.ascii	"TR_CTRL2\000"
 14458      54524C32 
 14458      00
 14459              	.LASF273:
 14460 00b0 5F726561 		.ascii	"_read\000"
 14460      6400
 14461              	.LASF189:
 14462 00b6 63795F73 		.ascii	"cy_stc_scb_uart_context\000"
 14462      74635F73 
 14462      63625F75 
 14462      6172745F 
 14462      636F6E74 
 14463              	.LASF558:
 14464 00ce 43795F42 		.ascii	"Cy_BLE_GATTS_WriteRsp\000"
 14464      4C455F47 
 14464      41545453 
 14464      5F577269 
 14464      74655273 
 14465              	.LASF532:
 14466 00e4 76616C50 		.ascii	"valPA\000"
 14466      4100
 14467              	.LASF295:
 14468 00ea 5F5F636C 		.ascii	"__cleanup\000"
 14468      65616E75 
 14468      7000
 14469              	.LASF61:
 14470 00f4 494E5452 		.ascii	"INTR_CAUSE\000"
 14470      5F434155 
 14470      534500
ARM GAS  C:\Users\seeho\AppData\Local\Temp\ccUkk7Dc.s 			page 308


 14471              	.LASF274:
 14472 00ff 5F777269 		.ascii	"_write\000"
 14472      746500
 14473              	.LASF196:
 14474 0106 72784275 		.ascii	"rxBuf\000"
 14474      6600
 14475              	.LASF369:
 14476 010c 43595F42 		.ascii	"CY_BLE_EVT_SOFT_RESET_COMPLETE\000"
 14476      4C455F45 
 14476      56545F53 
 14476      4F46545F 
 14476      52455345 
 14477              	.LASF103:
 14478 012b 63727970 		.ascii	"cryptoMemSize\000"
 14478      746F4D65 
 14478      6D53697A 
 14478      6500
 14479              	.LASF56:
 14480 0139 4354524C 		.ascii	"CTRL_SET\000"
 14480      5F534554 
 14480      00
 14481              	.LASF509:
 14482 0142 43726561 		.ascii	"CreateTimer_1\000"
 14482      74655469 
 14482      6D65725F 
 14482      3100
 14483              	.LASF332:
 14484 0150 5F776373 		.ascii	"_wcsrtombs_state\000"
 14484      72746F6D 
 14484      62735F73 
 14484      74617465 
 14484      00
 14485              	.LASF317:
 14486 0161 5F617363 		.ascii	"_asctime_buf\000"
 14486      74696D65 
 14486      5F627566 
 14486      00
 14487              	.LASF300:
 14488 016e 5F637674 		.ascii	"_cvtlen\000"
 14488      6C656E00 
 14489              	.LASF72:
 14490 0176 6873696F 		.ascii	"hsiomBase\000"
 14490      6D426173 
 14490      6500
 14491              	.LASF375:
 14492 0180 43595F42 		.ascii	"CY_BLE_EVT_GET_CLK_CONFIG_COMPLETE\000"
 14492      4C455F45 
 14492      56545F47 
 14492      45545F43 
 14492      4C4B5F43 
 14493              	.LASF486:
 14494 01a3 43595F42 		.ascii	"CY_BLE_CONN_STATE_CLIENT_DESCR_DISCOVERING\000"
 14494      4C455F43 
 14494      4F4E4E5F 
 14494      53544154 
 14494      455F434C 
 14495              	.LASF477:
ARM GAS  C:\Users\seeho\AppData\Local\Temp\ccUkk7Dc.s 			page 309


 14496 01ce 43595F42 		.ascii	"CY_BLE_ADV_STATE_ADVERTISING\000"
 14496      4C455F41 
 14496      44565F53 
 14496      54415445 
 14496      5F414456 
 14497              	.LASF348:
 14498 01eb 43595F42 		.ascii	"CY_BLE_EVT_LE_SET_EVENT_MASK_COMPLETE\000"
 14498      4C455F45 
 14498      56545F4C 
 14498      455F5345 
 14498      545F4556 
 14499              	.LASF336:
 14500 0211 5F756E75 		.ascii	"_unused\000"
 14500      73656400 
 14501              	.LASF247:
 14502 0219 5F5F746D 		.ascii	"__tm\000"
 14502      00
 14503              	.LASF344:
 14504 021e 43595F42 		.ascii	"CY_BLE_EVT_HARDWARE_ERROR\000"
 14504      4C455F45 
 14504      56545F48 
 14504      41524457 
 14504      4152455F 
 14505              	.LASF278:
 14506 0238 5F6E6275 		.ascii	"_nbuf\000"
 14506      6600
 14507              	.LASF248:
 14508 023e 5F5F746D 		.ascii	"__tm_sec\000"
 14508      5F736563 
 14508      00
 14509              	.LASF490:
 14510 0247 42617365 		.ascii	"BaseType_t\000"
 14510      54797065 
 14510      5F7400
 14511              	.LASF325:
 14512 0252 5F6C3634 		.ascii	"_l64a_buf\000"
 14512      615F6275 
 14512      6600
 14513              	.LASF345:
 14514 025c 43595F42 		.ascii	"CY_BLE_EVT_WRITE_AUTH_PAYLOAD_TO_COMPLETE\000"
 14514      4C455F45 
 14514      56545F57 
 14514      52495445 
 14514      5F415554 
 14515              	.LASF190:
 14516 0286 74785374 		.ascii	"txStatus\000"
 14516      61747573 
 14516      00
 14517              	.LASF452:
 14518 028f 43595F42 		.ascii	"CY_BLE_EVT_MAX\000"
 14518      4C455F45 
 14518      56545F4D 
 14518      415800
 14519              	.LASF421:
 14520 029e 43595F42 		.ascii	"CY_BLE_EVT_GATTC_READ_BY_GROUP_TYPE_RSP\000"
 14520      4C455F45 
 14520      56545F47 
ARM GAS  C:\Users\seeho\AppData\Local\Temp\ccUkk7Dc.s 			page 310


 14520      41545443 
 14520      5F524541 
 14521              	.LASF167:
 14522 02c6 73746174 		.ascii	"state\000"
 14522      6500
 14523              	.LASF282:
 14524 02cc 5F6C6F63 		.ascii	"_lock\000"
 14524      6B00
 14525              	.LASF21:
 14526 02d2 4F55545F 		.ascii	"OUT_SET\000"
 14526      53455400 
 14527              	.LASF133:
 14528 02da 6770696F 		.ascii	"gpioPrtCfgOffset\000"
 14528      50727443 
 14528      66674F66 
 14528      66736574 
 14528      00
 14529              	.LASF570:
 14530 02eb 70757473 		.ascii	"puts\000"
 14530      00
 14531              	.LASF49:
 14532 02f0 50455249 		.ascii	"PERIOD\000"
 14532      4F4400
 14533              	.LASF20:
 14534 02f7 4F55545F 		.ascii	"OUT_CLR\000"
 14534      434C5200 
 14535              	.LASF68:
 14536 02ff 666C6173 		.ascii	"flashcBase\000"
 14536      68634261 
 14536      736500
 14537              	.LASF213:
 14538 030a 636F6D70 		.ascii	"compare0\000"
 14538      61726530 
 14538      00
 14539              	.LASF214:
 14540 0313 636F6D70 		.ascii	"compare1\000"
 14540      61726531 
 14540      00
 14541              	.LASF95:
 14542 031c 73727373 		.ascii	"srssNumHfroot\000"
 14542      4E756D48 
 14542      66726F6F 
 14542      7400
 14543              	.LASF451:
 14544 032a 43595F42 		.ascii	"CY_BLE_EVT_L2CAP_CBFC_DATA_WRITE_IND\000"
 14544      4C455F45 
 14544      56545F4C 
 14544      32434150 
 14544      5F434246 
 14545              	.LASF427:
 14546 034f 43595F42 		.ascii	"CY_BLE_EVT_GATTC_READ_MULTI_RSP\000"
 14546      4C455F45 
 14546      56545F47 
 14546      41545443 
 14546      5F524541 
 14547              	.LASF327:
 14548 036f 5F676574 		.ascii	"_getdate_err\000"
ARM GAS  C:\Users\seeho\AppData\Local\Temp\ccUkk7Dc.s 			page 311


 14548      64617465 
 14548      5F657272 
 14548      00
 14549              	.LASF313:
 14550 037c 5F6D756C 		.ascii	"_mult\000"
 14550      7400
 14551              	.LASF285:
 14552 0382 5F726565 		.ascii	"_reent\000"
 14552      6E7400
 14553              	.LASF207:
 14554 0389 70776D41 		.ascii	"pwmAlignment\000"
 14554      6C69676E 
 14554      6D656E74 
 14554      00
 14555              	.LASF24:
 14556 0396 494E5452 		.ascii	"INTR_MASK\000"
 14556      5F4D4153 
 14556      4B00
 14557              	.LASF368:
 14558 03a0 43595F42 		.ascii	"CY_BLE_EVT_LL_CNTRL_PROC_PENDING_COMPLETE\000"
 14558      4C455F45 
 14558      56545F4C 
 14558      4C5F434E 
 14558      54524C5F 
 14559              	.LASF228:
 14560 03ca 636F756E 		.ascii	"countInputMode\000"
 14560      74496E70 
 14560      75744D6F 
 14560      646500
 14561              	.LASF118:
 14562 03d9 64775374 		.ascii	"dwStatusChIdxPos\000"
 14562      61747573 
 14562      43684964 
 14562      78506F73 
 14562      00
 14563              	.LASF433:
 14564 03ea 43595F42 		.ascii	"CY_BLE_EVT_GATTC_EXEC_WRITE_RSP\000"
 14564      4C455F45 
 14564      56545F47 
 14564      41545443 
 14564      5F455845 
 14565              	.LASF230:
 14566 040a 63795F73 		.ascii	"cy_stc_tcpwm_pwm_config_t\000"
 14566      74635F74 
 14566      6370776D 
 14566      5F70776D 
 14566      5F636F6E 
 14567              	.LASF537:
 14568 0424 626C6553 		.ascii	"bleSemaphoreval\000"
 14568      656D6170 
 14568      686F7265 
 14568      76616C00 
 14569              	.LASF473:
 14570 0434 43595F42 		.ascii	"CY_BLE_STATE_ON\000"
 14570      4C455F53 
 14570      54415445 
 14570      5F4F4E00 
ARM GAS  C:\Users\seeho\AppData\Local\Temp\ccUkk7Dc.s 			page 312


 14571              	.LASF411:
 14572 0444 43595F42 		.ascii	"CY_BLE_EVT_GAP_GEN_SET_LOCAL_P256_KEYS_COMPLETE\000"
 14572      4C455F45 
 14572      56545F47 
 14572      41505F47 
 14572      454E5F53 
 14573              	.LASF440:
 14574 0474 43595F42 		.ascii	"CY_BLE_EVT_GATTC_LONG_PROCEDURE_END\000"
 14574      4C455F45 
 14574      56545F47 
 14574      41545443 
 14574      5F4C4F4E 
 14575              	.LASF445:
 14576 0498 43595F42 		.ascii	"CY_BLE_EVT_L2CAP_CBFC_CONN_CNF\000"
 14576      4C455F45 
 14576      56545F4C 
 14576      32434150 
 14576      5F434246 
 14577              	.LASF456:
 14578 04b7 62644861 		.ascii	"bdHandle\000"
 14578      6E646C65 
 14578      00
 14579              	.LASF235:
 14580 04c0 5F5F7763 		.ascii	"__wch\000"
 14580      6800
 14581              	.LASF3:
 14582 04c6 5F5F7569 		.ascii	"__uint8_t\000"
 14582      6E74385F 
 14582      7400
 14583              	.LASF394:
 14584 04d0 43595F42 		.ascii	"CY_BLE_EVT_GAP_AUTH_FAILED\000"
 14584      4C455F45 
 14584      56545F47 
 14584      41505F41 
 14584      5554485F 
 14585              	.LASF270:
 14586 04eb 5F66696C 		.ascii	"_file\000"
 14586      6500
 14587              	.LASF257:
 14588 04f1 5F6F6E5F 		.ascii	"_on_exit_args\000"
 14588      65786974 
 14588      5F617267 
 14588      7300
 14589              	.LASF165:
 14590 04ff 75736552 		.ascii	"useRxFifo\000"
 14590      78466966 
 14590      6F00
 14591              	.LASF539:
 14592 0509 70635469 		.ascii	"pcTimerGetName\000"
 14592      6D657247 
 14592      65744E61 
 14592      6D6500
 14593              	.LASF435:
 14594 0518 43595F42 		.ascii	"CY_BLE_EVT_GATTC_HANDLE_VALUE_IND\000"
 14594      4C455F45 
 14594      56545F47 
 14594      41545443 
ARM GAS  C:\Users\seeho\AppData\Local\Temp\ccUkk7Dc.s 			page 313


 14594      5F48414E 
 14595              	.LASF221:
 14596 053a 73776170 		.ascii	"swapInput\000"
 14596      496E7075 
 14596      7400
 14597              	.LASF200:
 14598 0544 74784275 		.ascii	"txBufSize\000"
 14598      6653697A 
 14598      6500
 14599              	.LASF340:
 14600 054e 43595F42 		.ascii	"CY_BLE_EVT_STACK_BUSY_STATUS\000"
 14600      4C455F45 
 14600      56545F53 
 14600      5441434B 
 14600      5F425553 
 14601              	.LASF328:
 14602 056b 5F6D6272 		.ascii	"_mbrlen_state\000"
 14602      6C656E5F 
 14602      73746174 
 14602      6500
 14603              	.LASF8:
 14604 0579 6C6F6E67 		.ascii	"long int\000"
 14604      20696E74 
 14604      00
 14605              	.LASF35:
 14606 0582 494E5452 		.ascii	"INTR_CAUSE0\000"
 14606      5F434155 
 14606      53453000 
 14607              	.LASF419:
 14608 058e 43595F42 		.ascii	"CY_BLE_EVT_GATTS_XCNHG_MTU_REQ\000"
 14608      4C455F45 
 14608      56545F47 
 14608      41545453 
 14608      5F58434E 
 14609              	.LASF37:
 14610 05ad 494E5452 		.ascii	"INTR_CAUSE2\000"
 14610      5F434155 
 14610      53453200 
 14611              	.LASF38:
 14612 05b9 494E5452 		.ascii	"INTR_CAUSE3\000"
 14612      5F434155 
 14612      53453300 
 14613              	.LASF522:
 14614 05c5 5F696D70 		.ascii	"_impure_ptr\000"
 14614      7572655F 
 14614      70747200 
 14615              	.LASF559:
 14616 05d1 55415254 		.ascii	"UART_1_Start\000"
 14616      5F315F53 
 14616      74617274 
 14616      00
 14617              	.LASF487:
 14618 05de 43595F42 		.ascii	"CY_BLE_CONN_STATE_CLIENT_DISCOVERED\000"
 14618      4C455F43 
 14618      4F4E4E5F 
 14618      53544154 
 14618      455F434C 
ARM GAS  C:\Users\seeho\AppData\Local\Temp\ccUkk7Dc.s 			page 314


 14619              	.LASF267:
 14620 0602 5F73697A 		.ascii	"_size\000"
 14620      6500
 14621              	.LASF428:
 14622 0608 43595F42 		.ascii	"CY_BLE_EVT_GATTS_WRITE_REQ\000"
 14622      4C455F45 
 14622      56545F47 
 14622      41545453 
 14622      5F575249 
 14623              	.LASF318:
 14624 0623 5F6C6F63 		.ascii	"_localtime_buf\000"
 14624      616C7469 
 14624      6D655F62 
 14624      756600
 14625              	.LASF121:
 14626 0632 70657269 		.ascii	"periTrCmdGrSelMsk\000"
 14626      5472436D 
 14626      64477253 
 14626      656C4D73 
 14626      6B00
 14627              	.LASF222:
 14628 0644 72656C6F 		.ascii	"reloadInputMode\000"
 14628      6164496E 
 14628      7075744D 
 14628      6F646500 
 14629              	.LASF464:
 14630 0654 63795F73 		.ascii	"cy_stc_ble_gatt_value_t\000"
 14630      74635F62 
 14630      6C655F67 
 14630      6174745F 
 14630      76616C75 
 14631              	.LASF128:
 14632 066c 70657269 		.ascii	"periDiv8CtlOffset\000"
 14632      44697638 
 14632      43746C4F 
 14632      66667365 
 14632      7400
 14633              	.LASF569:
 14634 067e 6D61696E 		.ascii	"main\000"
 14634      00
 14635              	.LASF505:
 14636 0683 74696D65 		.ascii	"timerName\000"
 14636      724E616D 
 14636      6500
 14637              	.LASF123:
 14638 068d 70657269 		.ascii	"periTrGrSize\000"
 14638      54724772 
 14638      53697A65 
 14638      00
 14639              	.LASF367:
 14640 069a 43595F42 		.ascii	"CY_BLE_EVT_SET_PRIVACY_MODE_COMPLETE\000"
 14640      4C455F45 
 14640      56545F53 
 14640      45545F50 
 14640      52495641 
 14641              	.LASF398:
 14642 06bf 43595F42 		.ascii	"CY_BLE_EVT_GAP_ENCRYPT_CHANGE\000"
ARM GAS  C:\Users\seeho\AppData\Local\Temp\ccUkk7Dc.s 			page 315


 14642      4C455F45 
 14642      56545F47 
 14642      41505F45 
 14642      4E435259 
 14643              	.LASF54:
 14644 06dd 54435057 		.ascii	"TCPWM_CNT_V1_Type\000"
 14644      4D5F434E 
 14644      545F5631 
 14644      5F547970 
 14644      6500
 14645              	.LASF252:
 14646 06ef 5F5F746D 		.ascii	"__tm_mon\000"
 14646      5F6D6F6E 
 14646      00
 14647              	.LASF358:
 14648 06f8 43595F42 		.ascii	"CY_BLE_EVT_SET_HOST_CHANNEL_COMPLETE\000"
 14648      4C455F45 
 14648      56545F53 
 14648      45545F48 
 14648      4F53545F 
 14649              	.LASF527:
 14650 071d 63795F62 		.ascii	"cy_ble_pendingFlashWrite\000"
 14650      6C655F70 
 14650      656E6469 
 14650      6E67466C 
 14650      61736857 
 14651              	.LASF476:
 14652 0736 43595F42 		.ascii	"CY_BLE_ADV_STATE_ADV_INITIATED\000"
 14652      4C455F41 
 14652      44565F53 
 14652      54415445 
 14652      5F414456 
 14653              	.LASF339:
 14654 0755 43595F42 		.ascii	"CY_BLE_EVT_TIMEOUT\000"
 14654      4C455F45 
 14654      56545F54 
 14654      494D454F 
 14654      555400
 14655              	.LASF32:
 14656 0768 4346475F 		.ascii	"CFG_IN_GPIO5V\000"
 14656      494E5F47 
 14656      50494F35 
 14656      5600
 14657              	.LASF292:
 14658 0776 5F637572 		.ascii	"_current_category\000"
 14658      72656E74 
 14658      5F636174 
 14658      65676F72 
 14658      7900
 14659              	.LASF360:
 14660 0788 43595F42 		.ascii	"CY_BLE_EVT_REMOVE_DEVICE_FROM_RPA_LIST_COMPLETE\000"
 14660      4C455F45 
 14660      56545F52 
 14660      454D4F56 
 14660      455F4445 
 14661              	.LASF315:
 14662 07b8 5F756E75 		.ascii	"_unused_rand\000"
ARM GAS  C:\Users\seeho\AppData\Local\Temp\ccUkk7Dc.s 			page 316


 14662      7365645F 
 14662      72616E64 
 14662      00
 14663              	.LASF96:
 14664 07c5 70657269 		.ascii	"periClockNr\000"
 14664      436C6F63 
 14664      6B4E7200 
 14665              	.LASF492:
 14666 07d1 51756575 		.ascii	"QueueHandle_t\000"
 14666      6548616E 
 14666      646C655F 
 14666      7400
 14667              	.LASF1:
 14668 07df 7369676E 		.ascii	"signed char\000"
 14668      65642063 
 14668      68617200 
 14669              	.LASF406:
 14670 07eb 43595F42 		.ascii	"CY_BLE_EVT_GAPC_DIRECT_ADV_REPORT\000"
 14670      4C455F45 
 14670      56545F47 
 14670      4150435F 
 14670      44495245 
 14671              	.LASF14:
 14672 080d 75696E74 		.ascii	"uint8_t\000"
 14672      385F7400 
 14673              	.LASF210:
 14674 0815 70657269 		.ascii	"period0\000"
 14674      6F643000 
 14675              	.LASF211:
 14676 081d 70657269 		.ascii	"period1\000"
 14676      6F643100 
 14677              	.LASF507:
 14678 0825 7854696D 		.ascii	"xTimer\000"
 14678      657200
 14679              	.LASF462:
 14680 082c 63795F62 		.ascii	"cy_ble_gatt_db_attr_handle_t\000"
 14680      6C655F67 
 14680      6174745F 
 14680      64625F61 
 14680      7474725F 
 14681              	.LASF126:
 14682 0849 70657269 		.ascii	"periDivCmdPaDivSelPos\000"
 14682      44697643 
 14682      6D645061 
 14682      44697653 
 14682      656C506F 
 14683              	.LASF147:
 14684 085f 63707573 		.ascii	"cpussRomCtl\000"
 14684      73526F6D 
 14684      43746C00 
 14685              	.LASF565:
 14686 086b 433A5C55 		.ascii	"C:\\Users\\seeho\\Documents\\PSoC Creator\\PSoC6_10"
 14686      73657273 
 14686      5C736565 
 14686      686F5C44 
 14686      6F63756D 
 14687 0899 315C4E6F 		.ascii	"1\\Novela-BLE-Controls-1.cydsn\000"
ARM GAS  C:\Users\seeho\AppData\Local\Temp\ccUkk7Dc.s 			page 317


 14687      76656C61 
 14687      2D424C45 
 14687      2D436F6E 
 14687      74726F6C 
 14688              	.LASF179:
 14689 08b7 736C6176 		.ascii	"slaveTxBufferIdx\000"
 14689      65547842 
 14689      75666665 
 14689      72496478 
 14689      00
 14690              	.LASF449:
 14691 08c8 43595F42 		.ascii	"CY_BLE_EVT_L2CAP_CBFC_RX_CREDIT_IND\000"
 14691      4C455F45 
 14691      56545F4C 
 14691      32434150 
 14691      5F434246 
 14692              	.LASF436:
 14693 08ec 43595F42 		.ascii	"CY_BLE_EVT_GATTS_HANDLE_VALUE_CNF\000"
 14693      4C455F45 
 14693      56545F47 
 14693      41545453 
 14693      5F48414E 
 14694              	.LASF194:
 14695 090e 72785269 		.ascii	"rxRingBufHead\000"
 14695      6E674275 
 14695      66486561 
 14695      6400
 14696              	.LASF181:
 14697 091c 736C6176 		.ascii	"slaveRxBuffer\000"
 14697      65527842 
 14697      75666665 
 14697      7200
 14698              	.LASF33:
 14699 092a 52455345 		.ascii	"RESERVED1\000"
 14699      52564544 
 14699      3100
 14700              	.LASF2:
 14701 0934 756E7369 		.ascii	"unsigned char\000"
 14701      676E6564 
 14701      20636861 
 14701      7200
 14702              	.LASF62:
 14703 0942 54435057 		.ascii	"TCPWM_V1_Type\000"
 14703      4D5F5631 
 14703      5F547970 
 14703      6500
 14704              	.LASF186:
 14705 0950 63795F73 		.ascii	"cy_stc_scb_i2c_context_t\000"
 14705      74635F73 
 14705      63625F69 
 14705      32635F63 
 14705      6F6E7465 
 14706              	.LASF408:
 14707 0969 43595F42 		.ascii	"CY_BLE_EVT_GAP_DEVICE_ADDR_GEN_COMPLETE\000"
 14707      4C455F45 
 14707      56545F47 
 14707      41505F44 
ARM GAS  C:\Users\seeho\AppData\Local\Temp\ccUkk7Dc.s 			page 318


 14707      45564943 
 14708              	.LASF564:
 14709 0991 6D61696E 		.ascii	"main_cm4.c\000"
 14709      5F636D34 
 14709      2E6300
 14710              	.LASF485:
 14711 099c 43595F42 		.ascii	"CY_BLE_CONN_STATE_CLIENT_CHAR_DISCOVERING\000"
 14711      4C455F43 
 14711      4F4E4E5F 
 14711      53544154 
 14711      455F434C 
 14712              	.LASF423:
 14713 09c6 43595F42 		.ascii	"CY_BLE_EVT_GATTC_FIND_INFO_RSP\000"
 14713      4C455F45 
 14713      56545F47 
 14713      41545443 
 14713      5F46494E 
 14714              	.LASF391:
 14715 09e5 43595F42 		.ascii	"CY_BLE_EVT_GAP_PASSKEY_ENTRY_REQUEST\000"
 14715      4C455F45 
 14715      56545F47 
 14715      41505F50 
 14715      4153534B 
 14716              	.LASF255:
 14717 0a0a 5F5F746D 		.ascii	"__tm_yday\000"
 14717      5F796461 
 14717      7900
 14718              	.LASF142:
 14719 0a14 63707573 		.ascii	"cpussTrimRamCtlOffset\000"
 14719      73547269 
 14719      6D52616D 
 14719      43746C4F 
 14719      66667365 
 14720              	.LASF525:
 14721 0a2a 63795F62 		.ascii	"cy_ble_connHandle\000"
 14721      6C655F63 
 14721      6F6E6E48 
 14721      616E646C 
 14721      6500
 14722              	.LASF503:
 14723 0a3c 756C4D61 		.ascii	"ulMaxExpiryCountBeforeStopping\000"
 14723      78457870 
 14723      69727943 
 14723      6F756E74 
 14723      4265666F 
 14724              	.LASF538:
 14725 0a5b 7874696D 		.ascii	"xtimer\000"
 14725      657200
 14726              	.LASF159:
 14727 0a62 5F426F6F 		.ascii	"_Bool\000"
 14727      6C00
 14728              	.LASF557:
 14729 0a68 50574D5F 		.ascii	"PWM_DIM_Start\000"
 14729      44494D5F 
 14729      53746172 
 14729      7400
 14730              	.LASF74:
ARM GAS  C:\Users\seeho\AppData\Local\Temp\ccUkk7Dc.s 			page 319


 14731 0a76 70617373 		.ascii	"passBase\000"
 14731      42617365 
 14731      00
 14732              	.LASF143:
 14733 0a7f 63707573 		.ascii	"cpussTrimRomCtlOffset\000"
 14733      73547269 
 14733      6D526F6D 
 14733      43746C4F 
 14733      66667365 
 14734              	.LASF465:
 14735 0a95 76616C75 		.ascii	"value\000"
 14735      6500
 14736              	.LASF547:
 14737 0a9b 78517565 		.ascii	"xQueueCreateMutex\000"
 14737      75654372 
 14737      65617465 
 14737      4D757465 
 14737      7800
 14738              	.LASF320:
 14739 0aad 5F72616E 		.ascii	"_rand_next\000"
 14739      645F6E65 
 14739      787400
 14740              	.LASF155:
 14741 0ab8 63686172 		.ascii	"char\000"
 14741      00
 14742              	.LASF438:
 14743 0abd 43595F42 		.ascii	"CY_BLE_EVT_GATTC_STOP_CMD_COMPLETE\000"
 14743      4C455F45 
 14743      56545F47 
 14743      41545443 
 14743      5F53544F 
 14744              	.LASF264:
 14745 0ae0 5F666E73 		.ascii	"_fns\000"
 14745      00
 14746              	.LASF276:
 14747 0ae5 5F636C6F 		.ascii	"_close\000"
 14747      736500
 14748              	.LASF363:
 14749 0aec 43595F42 		.ascii	"CY_BLE_EVT_GET_PHY_COMPLETE\000"
 14749      4C455F45 
 14749      56545F47 
 14749      45545F50 
 14749      48595F43 
 14750              	.LASF365:
 14751 0b08 43595F42 		.ascii	"CY_BLE_EVT_SET_PHY_COMPLETE\000"
 14751      4C455F45 
 14751      56545F53 
 14751      45545F50 
 14751      48595F43 
 14752              	.LASF380:
 14753 0b24 43595F42 		.ascii	"CY_BLE_EVT_AES_CCM_DECRYPT_COMPLETE\000"
 14753      4C455F45 
 14753      56545F41 
 14753      45535F43 
 14753      434D5F44 
 14754              	.LASF209:
 14755 0b48 72756E4D 		.ascii	"runMode\000"
ARM GAS  C:\Users\seeho\AppData\Local\Temp\ccUkk7Dc.s 			page 320


 14755      6F646500 
 14756              	.LASF514:
 14757 0b50 77726974 		.ascii	"writeDisplayOSC\000"
 14757      65446973 
 14757      706C6179 
 14757      4F534300 
 14758              	.LASF44:
 14759 0b60 4750494F 		.ascii	"GPIO_V1_Type\000"
 14759      5F56315F 
 14759      54797065 
 14759      00
 14760              	.LASF197:
 14761 0b6d 72784275 		.ascii	"rxBufSize\000"
 14761      6653697A 
 14761      6500
 14762              	.LASF508:
 14763 0b77 7654696D 		.ascii	"vTimerCallback\000"
 14763      65724361 
 14763      6C6C6261 
 14763      636B00
 14764              	.LASF493:
 14765 0b86 53656D61 		.ascii	"SemaphoreHandle_t\000"
 14765      70686F72 
 14765      6548616E 
 14765      646C655F 
 14765      7400
 14766              	.LASF5:
 14767 0b98 5F5F7569 		.ascii	"__uint16_t\000"
 14767      6E743136 
 14767      5F7400
 14768              	.LASF206:
 14769 0ba3 636C6F63 		.ascii	"clockPrescaler\000"
 14769      6B507265 
 14769      7363616C 
 14769      657200
 14770              	.LASF389:
 14771 0bb2 43595F42 		.ascii	"CY_BLE_EVT_GAPC_SCAN_PROGRESS_RESULT\000"
 14771      4C455F45 
 14771      56545F47 
 14771      4150435F 
 14771      5343414E 
 14772              	.LASF287:
 14773 0bd7 5F737464 		.ascii	"_stdin\000"
 14773      696E00
 14774              	.LASF535:
 14775 0bde 76616C4D 		.ascii	"valMISC\000"
 14775      49534300 
 14776              	.LASF338:
 14777 0be6 43595F42 		.ascii	"CY_BLE_EVT_STACK_ON\000"
 14777      4C455F45 
 14777      56545F53 
 14777      5441434B 
 14777      5F4F4E00 
 14778              	.LASF441:
 14779 0bfa 43595F42 		.ascii	"CY_BLE_EVT_L2CAP_CONN_PARAM_UPDATE_REQ\000"
 14779      4C455F45 
 14779      56545F4C 
ARM GAS  C:\Users\seeho\AppData\Local\Temp\ccUkk7Dc.s 			page 321


 14779      32434150 
 14779      5F434F4E 
 14780              	.LASF472:
 14781 0c21 43595F42 		.ascii	"CY_BLE_STATE_INITIALIZING\000"
 14781      4C455F53 
 14781      54415445 
 14781      5F494E49 
 14781      5449414C 
 14782              	.LASF504:
 14783 0c3b 756C436F 		.ascii	"ulCount\000"
 14783      756E7400 
 14784              	.LASF90:
 14785 0c43 63707573 		.ascii	"cpussIpc0Irq\000"
 14785      73497063 
 14785      30497271 
 14785      00
 14786              	.LASF568:
 14787 0c50 626C6554 		.ascii	"bleTask\000"
 14787      61736B00 
 14788              	.LASF28:
 14789 0c58 4346475F 		.ascii	"CFG_IN\000"
 14789      494E00
 14790              	.LASF176:
 14791 0c5f 736C6176 		.ascii	"slaveRdBufEmpty\000"
 14791      65526442 
 14791      7566456D 
 14791      70747900 
 14792              	.LASF261:
 14793 0c6f 5F69735F 		.ascii	"_is_cxa\000"
 14793      63786100 
 14794              	.LASF500:
 14795 0c77 43795F54 		.ascii	"Cy_TCPWM_TriggerReloadOrIndex\000"
 14795      4350574D 
 14795      5F547269 
 14795      67676572 
 14795      52656C6F 
 14796              	.LASF70:
 14797 0c95 75646242 		.ascii	"udbBase\000"
 14797      61736500 
 14798              	.LASF41:
 14799 0c9d 5644445F 		.ascii	"VDD_INTR_MASK\000"
 14799      494E5452 
 14799      5F4D4153 
 14799      4B00
 14800              	.LASF429:
 14801 0cab 43595F42 		.ascii	"CY_BLE_EVT_GATTC_WRITE_RSP\000"
 14801      4C455F45 
 14801      56545F47 
 14801      41545443 
 14801      5F575249 
 14802              	.LASF137:
 14803 0cc6 63707573 		.ascii	"cpussCm0ClockCtlOffset\000"
 14803      73436D30 
 14803      436C6F63 
 14803      6B43746C 
 14803      4F666673 
 14804              	.LASF122:
ARM GAS  C:\Users\seeho\AppData\Local\Temp\ccUkk7Dc.s 			page 322


 14805 0cdd 70657269 		.ascii	"periTrGrOffset\000"
 14805      54724772 
 14805      4F666673 
 14805      657400
 14806              	.LASF180:
 14807 0cec 736C6176 		.ascii	"slaveTxBufferCnt\000"
 14807      65547842 
 14807      75666665 
 14807      72436E74 
 14807      00
 14808              	.LASF152:
 14809 0cfd 6970634C 		.ascii	"ipcLockStatusOffset\000"
 14809      6F636B53 
 14809      74617475 
 14809      734F6666 
 14809      73657400 
 14810              	.LASF434:
 14811 0d11 43595F42 		.ascii	"CY_BLE_EVT_GATTC_HANDLE_VALUE_NTF\000"
 14811      4C455F45 
 14811      56545F47 
 14811      41545443 
 14811      5F48414E 
 14812              	.LASF404:
 14813 0d33 43595F42 		.ascii	"CY_BLE_EVT_GAP_OOB_GENERATED_NOTIFICATION\000"
 14813      4C455F45 
 14813      56545F47 
 14813      41505F4F 
 14813      4F425F47 
 14814              	.LASF388:
 14815 0d5d 43595F42 		.ascii	"CY_BLE_EVT_SET_CONN_PRIORITY_COMPLETE\000"
 14815      4C455F45 
 14815      56545F53 
 14815      45545F43 
 14815      4F4E4E5F 
 14816              	.LASF204:
 14817 0d83 63795F73 		.ascii	"cy_stc_tcpwm_pwm_config\000"
 14817      74635F74 
 14817      6370776D 
 14817      5F70776D 
 14817      5F636F6E 
 14818              	.LASF364:
 14819 0d9b 43595F42 		.ascii	"CY_BLE_EVT_SET_DEFAULT_PHY_COMPLETE\000"
 14819      4C455F45 
 14819      56545F53 
 14819      45545F44 
 14819      45464155 
 14820              	.LASF540:
 14821 0dbf 7072696E 		.ascii	"printf\000"
 14821      746600
 14822              	.LASF530:
 14823 0dc6 50574D5F 		.ascii	"PWM_DIM_config\000"
 14823      44494D5F 
 14823      636F6E66 
 14823      696700
 14824              	.LASF29:
 14825 0dd5 4346475F 		.ascii	"CFG_OUT\000"
 14825      4F555400 
ARM GAS  C:\Users\seeho\AppData\Local\Temp\ccUkk7Dc.s 			page 323


 14826              	.LASF31:
 14827 0ddd 52455345 		.ascii	"RESERVED\000"
 14827      52564544 
 14827      00
 14828              	.LASF496:
 14829 0de6 70696E4E 		.ascii	"pinNum\000"
 14829      756D00
 14830              	.LASF141:
 14831 0ded 63707573 		.ascii	"cpussCm4PwrCtlOffset\000"
 14831      73436D34 
 14831      50777243 
 14831      746C4F66 
 14831      66736574 
 14832              	.LASF272:
 14833 0e02 5F636F6F 		.ascii	"_cookie\000"
 14833      6B696500 
 14834              	.LASF562:
 14835 0e0a 76546173 		.ascii	"vTaskStartScheduler\000"
 14835      6B537461 
 14835      72745363 
 14835      68656475 
 14835      6C657200 
 14836              	.LASF160:
 14837 0e1e 43595F53 		.ascii	"CY_SCB_I2C_ACK\000"
 14837      43425F49 
 14837      32435F41 
 14837      434B00
 14838              	.LASF246:
 14839 0e2d 5F776473 		.ascii	"_wds\000"
 14839      00
 14840              	.LASF113:
 14841 0e32 666C6173 		.ascii	"flashCtlMainWs4Freq\000"
 14841      6843746C 
 14841      4D61696E 
 14841      57733446 
 14841      72657100 
 14842              	.LASF529:
 14843 0e46 50574D5F 		.ascii	"PWM_BLINK_config\000"
 14843      424C494E 
 14843      4B5F636F 
 14843      6E666967 
 14843      00
 14844              	.LASF416:
 14845 0e57 43595F42 		.ascii	"CY_BLE_EVT_GATTC_ERROR_RSP\000"
 14845      4C455F45 
 14845      56545F47 
 14845      41545443 
 14845      5F455252 
 14846              	.LASF431:
 14847 0e72 43595F42 		.ascii	"CY_BLE_EVT_GATTS_PREP_WRITE_REQ\000"
 14847      4C455F45 
 14847      56545F47 
 14847      41545453 
 14847      5F505245 
 14848              	.LASF450:
 14849 0e92 43595F42 		.ascii	"CY_BLE_EVT_L2CAP_CBFC_TX_CREDIT_IND\000"
 14849      4C455F45 
ARM GAS  C:\Users\seeho\AppData\Local\Temp\ccUkk7Dc.s 			page 324


 14849      56545F4C 
 14849      32434150 
 14849      5F434246 
 14850              	.LASF92:
 14851 0eb6 63707573 		.ascii	"cpussNotConnectedIrq\000"
 14851      734E6F74 
 14851      436F6E6E 
 14851      65637465 
 14851      64497271 
 14852              	.LASF280:
 14853 0ecb 5F6F6666 		.ascii	"_offset\000"
 14853      73657400 
 14854              	.LASF301:
 14855 0ed3 5F637674 		.ascii	"_cvtbuf\000"
 14855      62756600 
 14856              	.LASF455:
 14857 0edb 63795F73 		.ascii	"cy_stc_ble_bd_addrs_t\000"
 14857      74635F62 
 14857      6C655F62 
 14857      645F6164 
 14857      6472735F 
 14858              	.LASF460:
 14859 0ef1 6576656E 		.ascii	"eventParams\000"
 14859      74506172 
 14859      616D7300 
 14860              	.LASF219:
 14861 0efd 6B696C6C 		.ascii	"killMode\000"
 14861      4D6F6465 
 14861      00
 14862              	.LASF134:
 14863 0f06 6770696F 		.ascii	"gpioPrtCfgInOffset\000"
 14863      50727443 
 14863      6667496E 
 14863      4F666673 
 14863      657400
 14864              	.LASF69:
 14865 0f19 70657269 		.ascii	"periBase\000"
 14865      42617365 
 14865      00
 14866              	.LASF444:
 14867 0f22 43595F42 		.ascii	"CY_BLE_EVT_L2CAP_CBFC_CONN_IND\000"
 14867      4C455F45 
 14867      56545F4C 
 14867      32434150 
 14867      5F434246 
 14868              	.LASF519:
 14869 0f41 77726974 		.ascii	"writeReqParameter\000"
 14869      65526571 
 14869      50617261 
 14869      6D657465 
 14869      7200
 14870              	.LASF71:
 14871 0f53 70726F74 		.ascii	"protBase\000"
 14871      42617365 
 14871      00
 14872              	.LASF516:
 14873 0f5c 67656E65 		.ascii	"genericEventHandler\000"
ARM GAS  C:\Users\seeho\AppData\Local\Temp\ccUkk7Dc.s 			page 325


 14873      72696345 
 14873      76656E74 
 14873      48616E64 
 14873      6C657200 
 14874              	.LASF372:
 14875 0f70 43595F42 		.ascii	"CY_BLE_EVT_GET_RSSI_COMPLETE\000"
 14875      4C455F45 
 14875      56545F47 
 14875      45545F52 
 14875      5353495F 
 14876              	.LASF172:
 14877 0f8d 6D617374 		.ascii	"masterBufferSize\000"
 14877      65724275 
 14877      66666572 
 14877      53697A65 
 14877      00
 14878              	.LASF217:
 14879 0f9e 696E7665 		.ascii	"invertPWMOut\000"
 14879      72745057 
 14879      4D4F7574 
 14879      00
 14880              	.LASF502:
 14881 0fab 43795F54 		.ascii	"Cy_TCPWM_PWM_SetCompare0\000"
 14881      4350574D 
 14881      5F50574D 
 14881      5F536574 
 14881      436F6D70 
 14882              	.LASF89:
 14883 0fc4 63707573 		.ascii	"cpussFlashPaSize\000"
 14883      73466C61 
 14883      73685061 
 14883      53697A65 
 14883      00
 14884              	.LASF184:
 14885 0fd5 63624576 		.ascii	"cbEvents\000"
 14885      656E7473 
 14885      00
 14886              	.LASF298:
 14887 0fde 5F703573 		.ascii	"_p5s\000"
 14887      00
 14888              	.LASF10:
 14889 0fe3 6C6F6E67 		.ascii	"long unsigned int\000"
 14889      20756E73 
 14889      69676E65 
 14889      6420696E 
 14889      7400
 14890              	.LASF400:
 14891 0ff5 43595F42 		.ascii	"CY_BLE_EVT_GAPC_SCAN_START_STOP\000"
 14891      4C455F45 
 14891      56545F47 
 14891      4150435F 
 14891      5343414E 
 14892              	.LASF510:
 14893 1015 77726974 		.ascii	"writeDisplayEventHandler\000"
 14893      65446973 
 14893      706C6179 
 14893      4576656E 
ARM GAS  C:\Users\seeho\AppData\Local\Temp\ccUkk7Dc.s 			page 326


 14893      7448616E 
 14894              	.LASF268:
 14895 102e 5F5F7346 		.ascii	"__sFILE\000"
 14895      494C4500 
 14896              	.LASF294:
 14897 1036 5F5F7364 		.ascii	"__sdidinit\000"
 14897      6964696E 
 14897      697400
 14898              	.LASF284:
 14899 1041 5F666C61 		.ascii	"_flags2\000"
 14899      67733200 
 14900              	.LASF99:
 14901 1049 65704D6F 		.ascii	"epMonitorNr\000"
 14901      6E69746F 
 14901      724E7200 
 14902              	.LASF412:
 14903 1055 43595F42 		.ascii	"CY_BLE_EVT_GAP_CREATE_CONN_CANCEL_COMPLETE\000"
 14903      4C455F45 
 14903      56545F47 
 14903      41505F43 
 14903      52454154 
 14904              	.LASF162:
 14905 1080 63795F65 		.ascii	"cy_en_scb_i2c_command_t\000"
 14905      6E5F7363 
 14905      625F6932 
 14905      635F636F 
 14905      6D6D616E 
 14906              	.LASF356:
 14907 1098 43595F42 		.ascii	"CY_BLE_EVT_SET_RPA_TO_COMPLETE\000"
 14907      4C455F45 
 14907      56545F53 
 14907      45545F52 
 14907      50415F54 
 14908              	.LASF150:
 14909 10b7 63707573 		.ascii	"cpussRam2Ctl0\000"
 14909      7352616D 
 14909      3243746C 
 14909      3000
 14910              	.LASF201:
 14911 10c5 74784C65 		.ascii	"txLeftToTransmit\000"
 14911      6674546F 
 14911      5472616E 
 14911      736D6974 
 14911      00
 14912              	.LASF94:
 14913 10d6 73727373 		.ascii	"srssNumPll\000"
 14913      4E756D50 
 14913      6C6C00
 14914              	.LASF77:
 14915 10e1 63707573 		.ascii	"cpussVersion\000"
 14915      73566572 
 14915      73696F6E 
 14915      00
 14916              	.LASF231:
 14917 10ee 5F4C4F43 		.ascii	"_LOCK_RECURSIVE_T\000"
 14917      4B5F5245 
 14917      43555253 
ARM GAS  C:\Users\seeho\AppData\Local\Temp\ccUkk7Dc.s 			page 327


 14917      4956455F 
 14917      5400
 14918              	.LASF443:
 14919 1100 43595F42 		.ascii	"CY_BLE_EVT_L2CAP_COMMAND_REJ\000"
 14919      4C455F45 
 14919      56545F4C 
 14919      32434150 
 14919      5F434F4D 
 14920              	.LASF91:
 14921 111d 63707573 		.ascii	"cpussFmIrq\000"
 14921      73466D49 
 14921      727100
 14922              	.LASF175:
 14923 1128 736C6176 		.ascii	"slaveStatus\000"
 14923      65537461 
 14923      74757300 
 14924              	.LASF418:
 14925 1134 43595F42 		.ascii	"CY_BLE_EVT_GATT_DISCONNECT_IND\000"
 14925      4C455F45 
 14925      56545F47 
 14925      4154545F 
 14925      44495343 
 14926              	.LASF286:
 14927 1153 5F657272 		.ascii	"_errno\000"
 14927      6E6F00
 14928              	.LASF212:
 14929 115a 656E6162 		.ascii	"enablePeriodSwap\000"
 14929      6C655065 
 14929      72696F64 
 14929      53776170 
 14929      00
 14930              	.LASF115:
 14931 116b 64774368 		.ascii	"dwChSize\000"
 14931      53697A65 
 14931      00
 14932              	.LASF23:
 14933 1174 494E5452 		.ascii	"INTR\000"
 14933      00
 14934              	.LASF424:
 14935 1179 43595F42 		.ascii	"CY_BLE_EVT_GATTC_FIND_BY_TYPE_VALUE_RSP\000"
 14935      4C455F45 
 14935      56545F47 
 14935      41545443 
 14935      5F46494E 
 14936              	.LASF326:
 14937 11a1 5F736967 		.ascii	"_signal_buf\000"
 14937      6E616C5F 
 14937      62756600 
 14938              	.LASF27:
 14939 11ad 494E5452 		.ascii	"INTR_CFG\000"
 14939      5F434647 
 14939      00
 14940              	.LASF65:
 14941 11b6 54435057 		.ascii	"TCPWM_Type\000"
 14941      4D5F5479 
 14941      706500
 14942              	.LASF494:
ARM GAS  C:\Users\seeho\AppData\Local\Temp\ccUkk7Dc.s 			page 328


 14943 11c1 54696D65 		.ascii	"TimerHandle_t\000"
 14943      7248616E 
 14943      646C655F 
 14943      7400
 14944              	.LASF425:
 14945 11cf 43595F42 		.ascii	"CY_BLE_EVT_GATTC_READ_RSP\000"
 14945      4C455F45 
 14945      56545F47 
 14945      41545443 
 14945      5F524541 
 14946              	.LASF97:
 14947 11e9 736D6966 		.ascii	"smifDeviceNr\000"
 14947      44657669 
 14947      63654E72 
 14947      00
 14948              	.LASF242:
 14949 11f6 5F426967 		.ascii	"_Bigint\000"
 14949      696E7400 
 14950              	.LASF381:
 14951 11fe 43595F42 		.ascii	"CY_BLE_EVT_SET_SLAVE_LATENCY_MODE_COMPLETE\000"
 14951      4C455F45 
 14951      56545F53 
 14951      45545F53 
 14951      4C415645 
 14952              	.LASF42:
 14953 1229 5644445F 		.ascii	"VDD_INTR_MASKED\000"
 14953      494E5452 
 14953      5F4D4153 
 14953      4B454400 
 14954              	.LASF483:
 14955 1239 43595F42 		.ascii	"CY_BLE_CONN_STATE_CLIENT_SRVC_DISCOVERING\000"
 14955      4C455F43 
 14955      4F4E4E5F 
 14955      53544154 
 14955      455F434C 
 14956              	.LASF244:
 14957 1263 5F6D6178 		.ascii	"_maxwds\000"
 14957      77647300 
 14958              	.LASF377:
 14959 126b 43595F42 		.ascii	"CY_BLE_EVT_RANDOM_NUM_GEN_COMPLETE\000"
 14959      4C455F45 
 14959      56545F52 
 14959      414E444F 
 14959      4D5F4E55 
 14960              	.LASF129:
 14961 128e 70657269 		.ascii	"periDiv16CtlOffset\000"
 14961      44697631 
 14961      3643746C 
 14961      4F666673 
 14961      657400
 14962              	.LASF105:
 14963 12a1 666C6173 		.ascii	"flashPipeRequired\000"
 14963      68506970 
 14963      65526571 
 14963      75697265 
 14963      6400
 14964              	.LASF144:
ARM GAS  C:\Users\seeho\AppData\Local\Temp\ccUkk7Dc.s 			page 329


 14965 12b3 63707573 		.ascii	"cpussSysTickCtlOffset\000"
 14965      73537973 
 14965      5469636B 
 14965      43746C4F 
 14965      66667365 
 14966              	.LASF216:
 14967 12c9 696E7465 		.ascii	"interruptSources\000"
 14967      72727570 
 14967      74536F75 
 14967      72636573 
 14967      00
 14968              	.LASF549:
 14969 12da 43795F42 		.ascii	"Cy_BLE_ProcessEvents\000"
 14969      4C455F50 
 14969      726F6365 
 14969      73734576 
 14969      656E7473 
 14970              	.LASF303:
 14971 12ef 5F617465 		.ascii	"_atexit0\000"
 14971      78697430 
 14971      00
 14972              	.LASF178:
 14973 12f8 736C6176 		.ascii	"slaveTxBufferSize\000"
 14973      65547842 
 14973      75666665 
 14973      7253697A 
 14973      6500
 14974              	.LASF125:
 14975 130a 70657269 		.ascii	"periDivCmdTypeSelPos\000"
 14975      44697643 
 14975      6D645479 
 14975      70655365 
 14975      6C506F73 
 14976              	.LASF67:
 14977 131f 63707573 		.ascii	"cpussBase\000"
 14977      73426173 
 14977      6500
 14978              	.LASF546:
 14979 1329 78517565 		.ascii	"xQueueCreateCountingSemaphore\000"
 14979      75654372 
 14979      65617465 
 14979      436F756E 
 14979      74696E67 
 14980              	.LASF220:
 14981 1347 73776170 		.ascii	"swapInputMode\000"
 14981      496E7075 
 14981      744D6F64 
 14981      6500
 14982              	.LASF83:
 14983 1355 69706356 		.ascii	"ipcVersion\000"
 14983      65727369 
 14983      6F6E00
 14984              	.LASF341:
 14985 1360 43595F42 		.ascii	"CY_BLE_EVT_MEMORY_REQUEST\000"
 14985      4C455F45 
 14985      56545F4D 
 14985      454D4F52 
ARM GAS  C:\Users\seeho\AppData\Local\Temp\ccUkk7Dc.s 			page 330


 14985      595F5245 
 14986              	.LASF9:
 14987 137a 5F5F7569 		.ascii	"__uint32_t\000"
 14987      6E743332 
 14987      5F7400
 14988              	.LASF291:
 14989 1385 5F656D65 		.ascii	"_emergency\000"
 14989      7267656E 
 14989      637900
 14990              	.LASF323:
 14991 1390 5F6D6274 		.ascii	"_mbtowc_state\000"
 14991      6F77635F 
 14991      73746174 
 14991      6500
 14992              	.LASF98:
 14993 139e 70617373 		.ascii	"passSarChannels\000"
 14993      53617243 
 14993      68616E6E 
 14993      656C7300 
 14994              	.LASF534:
 14995 13ae 76616C4F 		.ascii	"valOSC\000"
 14995      534300
 14996              	.LASF177:
 14997 13b5 736C6176 		.ascii	"slaveTxBuffer\000"
 14997      65547842 
 14997      75666665 
 14997      7200
 14998              	.LASF203:
 14999 13c3 63795F73 		.ascii	"cy_stc_scb_uart_context_t\000"
 14999      74635F73 
 14999      63625F75 
 14999      6172745F 
 14999      636F6E74 
 15000              	.LASF471:
 15001 13dd 43595F42 		.ascii	"CY_BLE_STATE_STOPPED\000"
 15001      4C455F53 
 15001      54415445 
 15001      5F53544F 
 15001      50504544 
 15002              	.LASF552:
 15003 13f2 7854696D 		.ascii	"xTimerCreate\000"
 15003      65724372 
 15003      65617465 
 15003      00
 15004              	.LASF447:
 15005 13ff 43595F42 		.ascii	"CY_BLE_EVT_L2CAP_CBFC_DISCONN_CNF\000"
 15005      4C455F45 
 15005      56545F4C 
 15005      32434150 
 15005      5F434246 
 15006              	.LASF84:
 15007 1421 70657269 		.ascii	"periVersion\000"
 15007      56657273 
 15007      696F6E00 
 15008              	.LASF174:
 15009 142d 6D617374 		.ascii	"masterNumBytes\000"
 15009      65724E75 
ARM GAS  C:\Users\seeho\AppData\Local\Temp\ccUkk7Dc.s 			page 331


 15009      6D427974 
 15009      657300
 15010              	.LASF556:
 15011 143c 43795F42 		.ascii	"Cy_BLE_GAPP_StartAdvertisement\000"
 15011      4C455F47 
 15011      4150505F 
 15011      53746172 
 15011      74416476 
 15012              	.LASF309:
 15013 145b 5F6E696F 		.ascii	"_niobs\000"
 15013      627300
 15014              	.LASF153:
 15015 1462 63795F73 		.ascii	"cy_stc_device_t\000"
 15015      74635F64 
 15015      65766963 
 15015      655F7400 
 15016              	.LASF305:
 15017 1472 5F5F7367 		.ascii	"__sglue\000"
 15017      6C756500 
 15018              	.LASF55:
 15019 147a 4354524C 		.ascii	"CTRL_CLR\000"
 15019      5F434C52 
 15019      00
 15020              	.LASF335:
 15021 1483 5F6E6D61 		.ascii	"_nmalloc\000"
 15021      6C6C6F63 
 15021      00
 15022              	.LASF366:
 15023 148c 43595F42 		.ascii	"CY_BLE_EVT_PHY_UPDATE_COMPLETE\000"
 15023      4C455F45 
 15023      56545F50 
 15023      48595F55 
 15023      50444154 
 15024              	.LASF157:
 15025 14ab 646F7562 		.ascii	"double\000"
 15025      6C6500
 15026              	.LASF135:
 15027 14b2 6770696F 		.ascii	"gpioPrtCfgOutOffset\000"
 15027      50727443 
 15027      66674F75 
 15027      744F6666 
 15027      73657400 
 15028              	.LASF528:
 15029 14c6 55415254 		.ascii	"UART_1_context\000"
 15029      5F315F63 
 15029      6F6E7465 
 15029      787400
 15030              	.LASF319:
 15031 14d5 5F67616D 		.ascii	"_gamma_signgam\000"
 15031      6D615F73 
 15031      69676E67 
 15031      616D00
 15032              	.LASF448:
 15033 14e4 43595F42 		.ascii	"CY_BLE_EVT_L2CAP_CBFC_DATA_READ\000"
 15033      4C455F45 
 15033      56545F4C 
 15033      32434150 
ARM GAS  C:\Users\seeho\AppData\Local\Temp\ccUkk7Dc.s 			page 332


 15033      5F434246 
 15034              	.LASF470:
 15035 1504 63795F73 		.ascii	"cy_stc_ble_gatt_write_param_t\000"
 15035      74635F62 
 15035      6C655F67 
 15035      6174745F 
 15035      77726974 
 15036              	.LASF106:
 15037 1522 666C6173 		.ascii	"flashWriteDelay\000"
 15037      68577269 
 15037      74654465 
 15037      6C617900 
 15038              	.LASF104:
 15039 1532 666C6173 		.ascii	"flashRwwRequired\000"
 15039      68527777 
 15039      52657175 
 15039      69726564 
 15039      00
 15040              	.LASF112:
 15041 1543 666C6173 		.ascii	"flashCtlMainWs3Freq\000"
 15041      6843746C 
 15041      4D61696E 
 15041      57733346 
 15041      72657100 
 15042              	.LASF293:
 15043 1557 5F637572 		.ascii	"_current_locale\000"
 15043      72656E74 
 15043      5F6C6F63 
 15043      616C6500 
 15044              	.LASF48:
 15045 1567 43435F42 		.ascii	"CC_BUFF\000"
 15045      55464600 
 15046              	.LASF299:
 15047 156f 5F667265 		.ascii	"_freelist\000"
 15047      656C6973 
 15047      7400
 15048              	.LASF198:
 15049 1579 72784275 		.ascii	"rxBufIdx\000"
 15049      66496478 
 15049      00
 15050              	.LASF130:
 15051 1582 70657269 		.ascii	"periDiv16_5CtlOffset\000"
 15051      44697631 
 15051      365F3543 
 15051      746C4F66 
 15051      66736574 
 15052              	.LASF310:
 15053 1597 5F696F62 		.ascii	"_iobs\000"
 15053      7300
 15054              	.LASF308:
 15055 159d 5F676C75 		.ascii	"_glue\000"
 15055      6500
 15056              	.LASF520:
 15057 15a3 49544D5F 		.ascii	"ITM_RxBuffer\000"
 15057      52784275 
 15057      66666572 
 15057      00
ARM GAS  C:\Users\seeho\AppData\Local\Temp\ccUkk7Dc.s 			page 333


 15058              	.LASF245:
 15059 15b0 5F736967 		.ascii	"_sign\000"
 15059      6E00
 15060              	.LASF352:
 15061 15b6 43595F42 		.ascii	"CY_BLE_EVT_GET_DATA_LENGTH_COMPLETE\000"
 15061      4C455F45 
 15061      56545F47 
 15061      45545F44 
 15061      4154415F 
 15062              	.LASF156:
 15063 15da 666C6F61 		.ascii	"float\000"
 15063      7400
 15064              	.LASF413:
 15065 15e0 43595F42 		.ascii	"CY_BLE_EVT_GAP_CONN_ESTB\000"
 15065      4C455F45 
 15065      56545F47 
 15065      41505F43 
 15065      4F4E4E5F 
 15066              	.LASF453:
 15067 15f9 7075626C 		.ascii	"publicBdAddr\000"
 15067      69634264 
 15067      41646472 
 15067      00
 15068              	.LASF390:
 15069 1606 43595F42 		.ascii	"CY_BLE_EVT_GAP_AUTH_REQ\000"
 15069      4C455F45 
 15069      56545F47 
 15069      41505F41 
 15069      5554485F 
 15070              	.LASF517:
 15071 161e 6576656E 		.ascii	"event\000"
 15071      7400
 15072              	.LASF554:
 15073 1624 43795F47 		.ascii	"Cy_GPIO_Pin_Init\000"
 15073      50494F5F 
 15073      50696E5F 
 15073      496E6974 
 15073      00
 15074              	.LASF86:
 15075 1635 63707573 		.ascii	"cpussIpcNr\000"
 15075      73497063 
 15075      4E7200
 15076              	.LASF466:
 15077 1640 61747472 		.ascii	"attrHandle\000"
 15077      48616E64 
 15077      6C6500
 15078              	.LASF13:
 15079 164b 756E7369 		.ascii	"unsigned int\000"
 15079      676E6564 
 15079      20696E74 
 15079      00
 15080              	.LASF45:
 15081 1658 4354524C 		.ascii	"CTRL\000"
 15081      00
 15082              	.LASF481:
 15083 165d 43595F42 		.ascii	"CY_BLE_CONN_STATE_CLIENT_DISCONNECTED_DISCOVERED\000"
 15083      4C455F43 
ARM GAS  C:\Users\seeho\AppData\Local\Temp\ccUkk7Dc.s 			page 334


 15083      4F4E4E5F 
 15083      53544154 
 15083      455F434C 
 15084              	.LASF563:
 15085 168e 474E5520 		.ascii	"GNU C11 5.4.1 20160609 (release) [ARM/embedded-5-br"
 15085      43313120 
 15085      352E342E 
 15085      31203230 
 15085      31363036 
 15086 16c1 616E6368 		.ascii	"anch revision 237715] -mcpu=cortex-m4 -mfloat-abi=s"
 15086      20726576 
 15086      6973696F 
 15086      6E203233 
 15086      37373135 
 15087 16f4 6F667466 		.ascii	"oftfp -mfpu=fpv4-sp-d16 -mthumb -g -Og -ffunction-s"
 15087      70202D6D 
 15087      6670753D 
 15087      66707634 
 15087      2D73702D 
 15088 1727 65637469 		.ascii	"ections -ffat-lto-objects\000"
 15088      6F6E7320 
 15088      2D666661 
 15088      742D6C74 
 15088      6F2D6F62 
 15089              	.LASF205:
 15090 1741 70776D4D 		.ascii	"pwmMode\000"
 15090      6F646500 
 15091              	.LASF333:
 15092 1749 5F685F65 		.ascii	"_h_errno\000"
 15092      72726E6F 
 15092      00
 15093              	.LASF480:
 15094 1752 43595F42 		.ascii	"CY_BLE_CONN_STATE_DISCONNECTED\000"
 15094      4C455F43 
 15094      4F4E4E5F 
 15094      53544154 
 15094      455F4449 
 15095              	.LASF80:
 15096 1771 666C6173 		.ascii	"flashcVersion\000"
 15096      68635665 
 15096      7273696F 
 15096      6E00
 15097              	.LASF215:
 15098 177f 656E6162 		.ascii	"enableCompareSwap\000"
 15098      6C65436F 
 15098      6D706172 
 15098      65537761 
 15098      7000
 15099              	.LASF227:
 15100 1791 6B696C6C 		.ascii	"killInput\000"
 15100      496E7075 
 15100      7400
 15101              	.LASF403:
 15102 179b 43595F42 		.ascii	"CY_BLE_EVT_GAP_KEYPRESS_NOTIFICATION\000"
 15102      4C455F45 
 15102      56545F47 
 15102      41505F4B 
ARM GAS  C:\Users\seeho\AppData\Local\Temp\ccUkk7Dc.s 			page 335


 15102      45595052 
 15103              	.LASF560:
 15104 17c0 73657476 		.ascii	"setvbuf\000"
 15104      62756600 
 15105              	.LASF331:
 15106 17c8 5F776372 		.ascii	"_wcrtomb_state\000"
 15106      746F6D62 
 15106      5F737461 
 15106      746500
 15107              	.LASF132:
 15108 17d7 6770696F 		.ascii	"gpioPrtIntrCfgOffset\000"
 15108      50727449 
 15108      6E747243 
 15108      66674F66 
 15108      66736574 
 15109              	.LASF149:
 15110 17ec 63707573 		.ascii	"cpussRam1Ctl0\000"
 15110      7352616D 
 15110      3143746C 
 15110      3000
 15111              	.LASF251:
 15112 17fa 5F5F746D 		.ascii	"__tm_mday\000"
 15112      5F6D6461 
 15112      7900
 15113              	.LASF484:
 15114 1804 43595F42 		.ascii	"CY_BLE_CONN_STATE_CLIENT_INCL_DISCOVERING\000"
 15114      4C455F43 
 15114      4F4E4E5F 
 15114      53544154 
 15114      455F434C 
 15115              	.LASF229:
 15116 182e 636F756E 		.ascii	"countInput\000"
 15116      74496E70 
 15116      757400
 15117              	.LASF302:
 15118 1839 5F6E6577 		.ascii	"_new\000"
 15118      00
 15119              	.LASF461:
 15120 183e 63795F73 		.ascii	"cy_stc_ble_events_param_generic_t\000"
 15120      74635F62 
 15120      6C655F65 
 15120      76656E74 
 15120      735F7061 
 15121              	.LASF277:
 15122 1860 5F756275 		.ascii	"_ubuf\000"
 15122      6600
 15123              	.LASF47:
 15124 1866 434F554E 		.ascii	"COUNTER\000"
 15124      54455200 
 15125              	.LASF417:
 15126 186e 43595F42 		.ascii	"CY_BLE_EVT_GATT_CONNECT_IND\000"
 15126      4C455F45 
 15126      56545F47 
 15126      4154545F 
 15126      434F4E4E 
 15127              	.LASF324:
 15128 188a 5F776374 		.ascii	"_wctomb_state\000"
ARM GAS  C:\Users\seeho\AppData\Local\Temp\ccUkk7Dc.s 			page 336


 15128      6F6D625F 
 15128      73746174 
 15128      6500
 15129              	.LASF57:
 15130 1898 434D445F 		.ascii	"CMD_CAPTURE\000"
 15130      43415054 
 15130      55524500 
 15131              	.LASF283:
 15132 18a4 5F6D6273 		.ascii	"_mbstate\000"
 15132      74617465 
 15132      00
 15133              	.LASF475:
 15134 18ad 43595F42 		.ascii	"CY_BLE_ADV_STATE_STOPPED\000"
 15134      4C455F41 
 15134      44565F53 
 15134      54415445 
 15134      5F53544F 
 15135              	.LASF269:
 15136 18c6 5F666C61 		.ascii	"_flags\000"
 15136      677300
 15137              	.LASF304:
 15138 18cd 5F736967 		.ascii	"_sig_func\000"
 15138      5F66756E 
 15138      6300
 15139              	.LASF523:
 15140 18d7 63795F62 		.ascii	"cy_ble_state\000"
 15140      6C655F73 
 15140      74617465 
 15140      00
 15141              	.LASF405:
 15142 18e4 43595F42 		.ascii	"CY_BLE_EVT_GAP_ENHANCE_CONN_COMPLETE\000"
 15142      4C455F45 
 15142      56545F47 
 15142      41505F45 
 15142      4E48414E 
 15143              	.LASF140:
 15144 1909 63707573 		.ascii	"cpussCm0StatusOffset\000"
 15144      73436D30 
 15144      53746174 
 15144      75734F66 
 15144      66736574 
 15145              	.LASF262:
 15146 191e 5F617465 		.ascii	"_atexit\000"
 15146      78697400 
 15147              	.LASF561:
 15148 1926 78546173 		.ascii	"xTaskCreate\000"
 15148      6B437265 
 15148      61746500 
 15149              	.LASF182:
 15150 1932 736C6176 		.ascii	"slaveRxBufferSize\000"
 15150      65527842 
 15150      75666665 
 15150      7253697A 
 15150      6500
 15151              	.LASF337:
 15152 1944 43595F42 		.ascii	"CY_BLE_EVT_INVALID\000"
 15152      4C455F45 
ARM GAS  C:\Users\seeho\AppData\Local\Temp\ccUkk7Dc.s 			page 337


 15152      56545F49 
 15152      4E56414C 
 15152      494400
 15153              	.LASF139:
 15154 1957 63707573 		.ascii	"cpussCm4StatusOffset\000"
 15154      73436D34 
 15154      53746174 
 15154      75734F66 
 15154      66736574 
 15155              	.LASF163:
 15156 196c 63795F63 		.ascii	"cy_cb_scb_i2c_handle_events_t\000"
 15156      625F7363 
 15156      625F6932 
 15156      635F6861 
 15156      6E646C65 
 15157              	.LASF515:
 15158 198a 77726974 		.ascii	"writeDisplayMISC\000"
 15158      65446973 
 15158      706C6179 
 15158      4D495343 
 15158      00
 15159              	.LASF430:
 15160 199b 43595F42 		.ascii	"CY_BLE_EVT_GATTS_WRITE_CMD_REQ\000"
 15160      4C455F45 
 15160      56545F47 
 15160      41545453 
 15160      5F575249 
 15161              	.LASF237:
 15162 19ba 5F5F636F 		.ascii	"__count\000"
 15162      756E7400 
 15163              	.LASF119:
 15164 19c2 64775374 		.ascii	"dwStatusChIdxMsk\000"
 15164      61747573 
 15164      43684964 
 15164      784D736B 
 15164      00
 15165              	.LASF489:
 15166 19d3 63795F73 		.ascii	"cy_stc_ble_gatts_write_cmd_req_param_t\000"
 15166      74635F62 
 15166      6C655F67 
 15166      61747473 
 15166      5F777269 
 15167              	.LASF387:
 15168 19fa 43595F42 		.ascii	"CY_BLE_EVT_SET_CE_LENGTH_COMPLETE\000"
 15168      4C455F45 
 15168      56545F53 
 15168      45545F43 
 15168      455F4C45 
 15169              	.LASF193:
 15170 1a1c 72785269 		.ascii	"rxRingBufSize\000"
 15170      6E674275 
 15170      6653697A 
 15170      6500
 15171              	.LASF108:
 15172 1a2a 666C6173 		.ascii	"flashEraseDelay\000"
 15172      68457261 
 15172      73654465 
ARM GAS  C:\Users\seeho\AppData\Local\Temp\ccUkk7Dc.s 			page 338


 15172      6C617900 
 15173              	.LASF543:
 15174 1a3a 7854696D 		.ascii	"xTimerGenericCommand\000"
 15174      65724765 
 15174      6E657269 
 15174      63436F6D 
 15174      6D616E64 
 15175              	.LASF40:
 15176 1a4f 5644445F 		.ascii	"VDD_INTR\000"
 15176      494E5452 
 15176      00
 15177              	.LASF254:
 15178 1a58 5F5F746D 		.ascii	"__tm_wday\000"
 15178      5F776461 
 15178      7900
 15179              	.LASF393:
 15180 1a62 43595F42 		.ascii	"CY_BLE_EVT_GAP_AUTH_COMPLETE\000"
 15180      4C455F45 
 15180      56545F47 
 15180      41505F41 
 15180      5554485F 
 15181              	.LASF66:
 15182 1a7f 6C6F6E67 		.ascii	"long double\000"
 15182      20646F75 
 15182      626C6500 
 15183              	.LASF498:
 15184 1a8b 43795F54 		.ascii	"Cy_TCPWM_PWM_Disable\000"
 15184      4350574D 
 15184      5F50574D 
 15184      5F446973 
 15184      61626C65 
 15185              	.LASF26:
 15186 1aa0 494E5452 		.ascii	"INTR_SET\000"
 15186      5F534554 
 15186      00
 15187              	.LASF187:
 15188 1aa9 63795F63 		.ascii	"cy_cb_scb_uart_handle_events_t\000"
 15188      625F7363 
 15188      625F7561 
 15188      72745F68 
 15188      616E646C 
 15189              	.LASF350:
 15190 1ac8 43595F42 		.ascii	"CY_BLE_EVT_SET_DATA_LENGTH_COMPLETE\000"
 15190      4C455F45 
 15190      56545F53 
 15190      45545F44 
 15190      4154415F 
 15191              	.LASF512:
 15192 1aec 77726974 		.ascii	"writeDisplayPA\000"
 15192      65446973 
 15192      706C6179 
 15192      504100
 15193              	.LASF432:
 15194 1afb 43595F42 		.ascii	"CY_BLE_EVT_GATTS_EXEC_WRITE_REQ\000"
 15194      4C455F45 
 15194      56545F47 
 15194      41545453 
ARM GAS  C:\Users\seeho\AppData\Local\Temp\ccUkk7Dc.s 			page 339


 15194      5F455845 
 15195              	.LASF312:
 15196 1b1b 5F736565 		.ascii	"_seed\000"
 15196      6400
 15197              	.LASF275:
 15198 1b21 5F736565 		.ascii	"_seek\000"
 15198      6B00
 15199              	.LASF25:
 15200 1b27 494E5452 		.ascii	"INTR_MASKED\000"
 15200      5F4D4153 
 15200      4B454400 
 15201              	.LASF571:
 15202 1b33 5F5F6275 		.ascii	"__builtin_puts\000"
 15202      696C7469 
 15202      6E5F7075 
 15202      747300
 15203              	.LASF233:
 15204 1b42 5F66706F 		.ascii	"_fpos_t\000"
 15204      735F7400 
 15205              	.LASF236:
 15206 1b4a 5F5F7763 		.ascii	"__wchb\000"
 15206      686200
 15207              	.LASF64:
 15208 1b51 4750494F 		.ascii	"GPIO_Type\000"
 15208      5F547970 
 15208      6500
 15209              	.LASF146:
 15210 1b5b 63707573 		.ascii	"cpussCm4NmiCtlOffset\000"
 15210      73436D34 
 15210      4E6D6943 
 15210      746C4F66 
 15210      66736574 
 15211              	.LASF60:
 15212 1b70 434D445F 		.ascii	"CMD_START\000"
 15212      53544152 
 15212      5400
 15213              	.LASF145:
 15214 1b7a 63707573 		.ascii	"cpussCm0NmiCtlOffset\000"
 15214      73436D30 
 15214      4E6D6943 
 15214      746C4F66 
 15214      66736574 
 15215              	.LASF386:
 15216 1b8f 43595F42 		.ascii	"CY_BLE_EVT_SET_EVENT_MASK_COMPLETE\000"
 15216      4C455F45 
 15216      56545F53 
 15216      45545F45 
 15216      56454E54 
 15217              	.LASF401:
 15218 1bb2 43595F42 		.ascii	"CY_BLE_EVT_GAP_KEYINFO_EXCHNGE_CMPLT\000"
 15218      4C455F45 
 15218      56545F47 
 15218      41505F4B 
 15218      4559494E 
 15219              	.LASF357:
 15220 1bd7 43595F42 		.ascii	"CY_BLE_EVT_SET_RPA_ENABLE_COMPLETE\000"
 15220      4C455F45 
ARM GAS  C:\Users\seeho\AppData\Local\Temp\ccUkk7Dc.s 			page 340


 15220      56545F53 
 15220      45545F52 
 15220      50415F45 
 15221              	.LASF454:
 15222 1bfa 70726976 		.ascii	"privateBdAddr\000"
 15222      61746542 
 15222      64416464 
 15222      7200
 15223              	.LASF111:
 15224 1c08 666C6173 		.ascii	"flashCtlMainWs2Freq\000"
 15224      6843746C 
 15224      4D61696E 
 15224      57733246 
 15224      72657100 
 15225              	.LASF479:
 15226 1c1c 63795F65 		.ascii	"cy_en_ble_adv_state_t\000"
 15226      6E5F626C 
 15226      655F6164 
 15226      765F7374 
 15226      6174655F 
 15227              	.LASF399:
 15228 1c32 43595F42 		.ascii	"CY_BLE_EVT_GAP_CONNECTION_UPDATE_COMPLETE\000"
 15228      4C455F45 
 15228      56545F47 
 15228      41505F43 
 15228      4F4E4E45 
 15229              	.LASF166:
 15230 1c5c 75736554 		.ascii	"useTxFifo\000"
 15230      78466966 
 15230      6F00
 15231              	.LASF567:
 15232 1c66 626C6549 		.ascii	"bleInterruptNotify\000"
 15232      6E746572 
 15232      72757074 
 15232      4E6F7469 
 15232      667900
 15233              	.LASF154:
 15234 1c79 63686172 		.ascii	"char_t\000"
 15234      5F7400
 15235              	.LASF541:
 15236 1c80 7654696D 		.ascii	"vTimerSetTimerID\000"
 15236      65725365 
 15236      7454696D 
 15236      65724944 
 15236      00
 15237              	.LASF392:
 15238 1c91 43595F42 		.ascii	"CY_BLE_EVT_GAP_PASSKEY_DISPLAY_REQUEST\000"
 15238      4C455F45 
 15238      56545F47 
 15238      41505F50 
 15238      4153534B 
 15239              	.LASF12:
 15240 1cb8 6C6F6E67 		.ascii	"long long unsigned int\000"
 15240      206C6F6E 
 15240      6720756E 
 15240      7369676E 
 15240      65642069 
ARM GAS  C:\Users\seeho\AppData\Local\Temp\ccUkk7Dc.s 			page 341


 15241              	.LASF361:
 15242 1ccf 43595F42 		.ascii	"CY_BLE_EVT_ADD_DEVICE_TO_WHITE_LIST_COMPLETE\000"
 15242      4C455F45 
 15242      56545F41 
 15242      44445F44 
 15242      45564943 
 15243              	.LASF536:
 15244 1cfc 626C6553 		.ascii	"bleSemaphore\000"
 15244      656D6170 
 15244      686F7265 
 15244      00
 15245              	.LASF349:
 15246 1d09 43595F42 		.ascii	"CY_BLE_EVT_LE_PING_AUTH_TIMEOUT\000"
 15246      4C455F45 
 15246      56545F4C 
 15246      455F5049 
 15246      4E475F41 
 15247              	.LASF16:
 15248 1d29 75696E74 		.ascii	"uint16_t\000"
 15248      31365F74 
 15248      00
 15249              	.LASF379:
 15250 1d32 43595F42 		.ascii	"CY_BLE_EVT_AES_CCM_ENCRYPT_COMPLETE\000"
 15250      4C455F45 
 15250      56545F41 
 15250      45535F43 
 15250      434D5F45 
 15251              	.LASF259:
 15252 1d56 5F64736F 		.ascii	"_dso_handle\000"
 15252      5F68616E 
 15252      646C6500 
 15253              	.LASF34:
 15254 1d62 4750494F 		.ascii	"GPIO_PRT_V1_Type\000"
 15254      5F505254 
 15254      5F56315F 
 15254      54797065 
 15254      00
 15255              	.LASF410:
 15256 1d73 43595F42 		.ascii	"CY_BLE_EVT_GAP_RESOLVE_DEVICE_COMPLETE\000"
 15256      4C455F45 
 15256      56545F47 
 15256      41505F52 
 15256      45534F4C 
 15257              	.LASF311:
 15258 1d9a 5F72616E 		.ascii	"_rand48\000"
 15258      64343800 
 15259              	.LASF420:
 15260 1da2 43595F42 		.ascii	"CY_BLE_EVT_GATTC_XCHNG_MTU_RSP\000"
 15260      4C455F45 
 15260      56545F47 
 15260      41545443 
 15260      5F584348 
 15261              	.LASF93:
 15262 1dc1 73727373 		.ascii	"srssNumClkpath\000"
 15262      4E756D43 
 15262      6C6B7061 
 15262      746800
ARM GAS  C:\Users\seeho\AppData\Local\Temp\ccUkk7Dc.s 			page 342


 15263              	.LASF288:
 15264 1dd0 5F737464 		.ascii	"_stdout\000"
 15264      6F757400 
 15265              	.LASF446:
 15266 1dd8 43595F42 		.ascii	"CY_BLE_EVT_L2CAP_CBFC_DISCONN_IND\000"
 15266      4C455F45 
 15266      56545F4C 
 15266      32434150 
 15266      5F434246 
 15267              	.LASF354:
 15268 1dfa 43595F42 		.ascii	"CY_BLE_EVT_GET_PEER_RPA_COMPLETE\000"
 15268      4C455F45 
 15268      56545F47 
 15268      45545F50 
 15268      4545525F 
 15269              	.LASF279:
 15270 1e1b 5F626C6B 		.ascii	"_blksize\000"
 15270      73697A65 
 15270      00
 15271              	.LASF488:
 15272 1e24 63795F65 		.ascii	"cy_en_ble_conn_state_t\000"
 15272      6E5F626C 
 15272      655F636F 
 15272      6E6E5F73 
 15272      74617465 
 15273              	.LASF199:
 15274 1e3b 74784275 		.ascii	"txBuf\000"
 15274      6600
 15275              	.LASF415:
 15276 1e41 43595F42 		.ascii	"CY_BLE_EVT_GAP_ADV_TX\000"
 15276      4C455F45 
 15276      56545F47 
 15276      41505F41 
 15276      44565F54 
 15277              	.LASF266:
 15278 1e57 5F626173 		.ascii	"_base\000"
 15278      6500
 15279              	.LASF478:
 15280 1e5d 43595F42 		.ascii	"CY_BLE_ADV_STATE_STOP_INITIATED\000"
 15280      4C455F41 
 15280      44565F53 
 15280      54415445 
 15280      5F53544F 
 15281              	.LASF501:
 15282 1e7d 636F756E 		.ascii	"counters\000"
 15282      74657273 
 15282      00
 15283              	.LASF491:
 15284 1e86 5469636B 		.ascii	"TickType_t\000"
 15284      54797065 
 15284      5F7400
 15285              	.LASF316:
 15286 1e91 5F737472 		.ascii	"_strtok_last\000"
 15286      746F6B5F 
 15286      6C617374 
 15286      00
 15287              	.LASF553:
ARM GAS  C:\Users\seeho\AppData\Local\Temp\ccUkk7Dc.s 			page 343


 15288 1e9e 78517565 		.ascii	"xQueueGenericSend\000"
 15288      75654765 
 15288      6E657269 
 15288      6353656E 
 15288      6400
 15289              	.LASF138:
 15290 1eb0 63707573 		.ascii	"cpussCm4ClockCtlOffset\000"
 15290      73436D34 
 15290      436C6F63 
 15290      6B43746C 
 15290      4F666673 
 15291              	.LASF329:
 15292 1ec7 5F6D6272 		.ascii	"_mbrtowc_state\000"
 15292      746F7763 
 15292      5F737461 
 15292      746500
 15293              	.LASF17:
 15294 1ed6 696E7433 		.ascii	"int32_t\000"
 15294      325F7400 
 15295              	.LASF43:
 15296 1ede 5644445F 		.ascii	"VDD_INTR_SET\000"
 15296      494E5452 
 15296      5F534554 
 15296      00
 15297              	.LASF88:
 15298 1eeb 63707573 		.ascii	"cpussDwChNr\000"
 15298      73447743 
 15298      684E7200 
 15299              	.LASF131:
 15300 1ef7 70657269 		.ascii	"periDiv24_5CtlOffset\000"
 15300      44697632 
 15300      345F3543 
 15300      746C4F66 
 15300      66736574 
 15301              	.LASF148:
 15302 1f0c 63707573 		.ascii	"cpussRam0Ctl0\000"
 15302      7352616D 
 15302      3043746C 
 15302      3000
 15303              	.LASF240:
 15304 1f1a 5F666C6F 		.ascii	"_flock_t\000"
 15304      636B5F74 
 15304      00
 15305              	.LASF551:
 15306 1f23 78517565 		.ascii	"xQueueSemaphoreTake\000"
 15306      75655365 
 15306      6D617068 
 15306      6F726554 
 15306      616B6500 
 15307              	.LASF307:
 15308 1f37 5F5F4649 		.ascii	"__FILE\000"
 15308      4C4500
 15309              	.LASF469:
 15310 1f3e 636F6E6E 		.ascii	"connHandle\000"
 15310      48616E64 
 15310      6C6500
 15311              	.LASF4:
ARM GAS  C:\Users\seeho\AppData\Local\Temp\ccUkk7Dc.s 			page 344


 15312 1f49 5F5F696E 		.ascii	"__int16_t\000"
 15312      7431365F 
 15312      7400
 15313              	.LASF533:
 15314 1f53 76616C4D 		.ascii	"valMUX\000"
 15314      555800
 15315              	.LASF239:
 15316 1f5a 5F6D6273 		.ascii	"_mbstate_t\000"
 15316      74617465 
 15316      5F7400
 15317              	.LASF407:
 15318 1f65 43595F42 		.ascii	"CY_BLE_EVT_GAP_SMP_NEGOTIATED_AUTH_INFO\000"
 15318      4C455F45 
 15318      56545F47 
 15318      41505F53 
 15318      4D505F4E 
 15319              	.LASF58:
 15320 1f8d 434D445F 		.ascii	"CMD_RELOAD\000"
 15320      52454C4F 
 15320      414400
 15321              	.LASF321:
 15322 1f98 5F723438 		.ascii	"_r48\000"
 15322      00
 15323              	.LASF234:
 15324 1f9d 77696E74 		.ascii	"wint_t\000"
 15324      5F7400
 15325              	.LASF46:
 15326 1fa4 53544154 		.ascii	"STATUS\000"
 15326      555300
 15327              	.LASF124:
 15328 1fab 70657269 		.ascii	"periDivCmdDivSelMsk\000"
 15328      44697643 
 15328      6D644469 
 15328      7653656C 
 15328      4D736B00 
 15329              	.LASF442:
 15330 1fbf 43595F42 		.ascii	"CY_BLE_EVT_L2CAP_CONN_PARAM_UPDATE_RSP\000"
 15330      4C455F45 
 15330      56545F4C 
 15330      32434150 
 15330      5F434F4E 
 15331              	.LASF59:
 15332 1fe6 434D445F 		.ascii	"CMD_STOP\000"
 15332      53544F50 
 15332      00
 15333              	.LASF542:
 15334 1fef 78546173 		.ascii	"xTaskGetTickCount\000"
 15334      6B476574 
 15334      5469636B 
 15334      436F756E 
 15334      7400
 15335              	.LASF79:
 15336 2001 64775665 		.ascii	"dwVersion\000"
 15336      7273696F 
 15336      6E00
 15337              	.LASF243:
 15338 200b 5F6E6578 		.ascii	"_next\000"
ARM GAS  C:\Users\seeho\AppData\Local\Temp\ccUkk7Dc.s 			page 345


 15338      7400
 15339              	.LASF281:
 15340 2011 5F646174 		.ascii	"_data\000"
 15340      6100
 15341              	.LASF30:
 15342 2017 4346475F 		.ascii	"CFG_SIO\000"
 15342      53494F00 
 15343              	.LASF426:
 15344 201f 43595F42 		.ascii	"CY_BLE_EVT_GATTC_READ_BLOB_RSP\000"
 15344      4C455F45 
 15344      56545F47 
 15344      41545443 
 15344      5F524541 
 15345              	.LASF73:
 15346 203e 6770696F 		.ascii	"gpioBase\000"
 15346      42617365 
 15346      00
 15347              	.LASF467:
 15348 2047 63795F73 		.ascii	"cy_stc_ble_gatt_handle_value_pair_t\000"
 15348      74635F62 
 15348      6C655F67 
 15348      6174745F 
 15348      68616E64 
 15349              	.LASF555:
 15350 206b 50574D5F 		.ascii	"PWM_BLINK_Start\000"
 15350      424C494E 
 15350      4B5F5374 
 15350      61727400 
 15351              	.LASF102:
 15352 207b 70726F74 		.ascii	"protBusMasterMask\000"
 15352      4275734D 
 15352      61737465 
 15352      724D6173 
 15352      6B00
 15353              	.LASF101:
 15354 208d 73797350 		.ascii	"sysPmSimoPresent\000"
 15354      6D53696D 
 15354      6F507265 
 15354      73656E74 
 15354      00
 15355              	.LASF439:
 15356 209e 43595F42 		.ascii	"CY_BLE_EVT_GATTS_READ_CHAR_VAL_ACCESS_REQ\000"
 15356      4C455F45 
 15356      56545F47 
 15356      41545453 
 15356      5F524541 
 15357              	.LASF87:
 15358 20c8 63707573 		.ascii	"cpussIpcIrqNr\000"
 15358      73497063 
 15358      4972714E 
 15358      7200
 15359              	.LASF521:
 15360 20d6 63795F64 		.ascii	"cy_device\000"
 15360      65766963 
 15360      6500
 15361              	.LASF63:
 15362 20e0 4750494F 		.ascii	"GPIO_PRT_Type\000"
ARM GAS  C:\Users\seeho\AppData\Local\Temp\ccUkk7Dc.s 			page 346


 15362      5F505254 
 15362      5F547970 
 15362      6500
 15363              	.LASF458:
 15364 20ee 63795F73 		.ascii	"cy_stc_ble_conn_handle_t\000"
 15364      74635F62 
 15364      6C655F63 
 15364      6F6E6E5F 
 15364      68616E64 
 15365              	.LASF395:
 15366 2107 43595F42 		.ascii	"CY_BLE_EVT_GAPP_ADVERTISEMENT_START_STOP\000"
 15366      4C455F45 
 15366      56545F47 
 15366      4150505F 
 15366      41445645 
 15367              	.LASF224:
 15368 2130 73746172 		.ascii	"startInputMode\000"
 15368      74496E70 
 15368      75744D6F 
 15368      646500
 15369              	.LASF191:
 15370 213f 72785374 		.ascii	"rxStatus\000"
 15370      61747573 
 15370      00
 15371              	.LASF171:
 15372 2148 6D617374 		.ascii	"masterBuffer\000"
 15372      65724275 
 15372      66666572 
 15372      00
 15373              	.LASF185:
 15374 2155 63624164 		.ascii	"cbAddr\000"
 15374      647200
 15375              	.LASF482:
 15376 215c 43595F42 		.ascii	"CY_BLE_CONN_STATE_CONNECTED\000"
 15376      4C455F43 
 15376      4F4E4E5F 
 15376      53544154 
 15376      455F434F 
 15377              	.LASF50:
 15378 2178 50455249 		.ascii	"PERIOD_BUFF\000"
 15378      4F445F42 
 15378      55464600 
 15379              	.LASF346:
 15380 2184 43595F42 		.ascii	"CY_BLE_EVT_READ_AUTH_PAYLOAD_TO_COMPLETE\000"
 15380      4C455F45 
 15380      56545F52 
 15380      4541445F 
 15380      41555448 
 15381              	.LASF158:
 15382 21ad 75696E74 		.ascii	"uint8\000"
 15382      3800
 15383              	.LASF85:
 15384 21b3 70726F74 		.ascii	"protVersion\000"
 15384      56657273 
 15384      696F6E00 
 15385              	.LASF347:
 15386 21bf 43595F42 		.ascii	"CY_BLE_EVT_GET_CHANNEL_MAP_COMPLETE\000"
ARM GAS  C:\Users\seeho\AppData\Local\Temp\ccUkk7Dc.s 			page 347


 15386      4C455F45 
 15386      56545F47 
 15386      45545F43 
 15386      48414E4E 
 15387              	.LASF202:
 15388 21e3 696E6974 		.ascii	"initKey\000"
 15388      4B657900 
 15389              	.LASF322:
 15390 21eb 5F6D626C 		.ascii	"_mblen_state\000"
 15390      656E5F73 
 15390      74617465 
 15390      00
 15391              	.LASF474:
 15392 21f8 63795F65 		.ascii	"cy_en_ble_state_t\000"
 15392      6E5F626C 
 15392      655F7374 
 15392      6174655F 
 15392      7400
 15393              	.LASF0:
 15394 220a 73686F72 		.ascii	"short int\000"
 15394      7420696E 
 15394      7400
 15395              	.LASF382:
 15396 2214 43595F42 		.ascii	"CY_BLE_EVT_STACK_SHUTDOWN_COMPLETE\000"
 15396      4C455F45 
 15396      56545F53 
 15396      5441434B 
 15396      5F534855 
 15397              	.LASF468:
 15398 2237 68616E64 		.ascii	"handleValPair\000"
 15398      6C655661 
 15398      6C506169 
 15398      7200
 15399              	.LASF373:
 15400 2245 43595F42 		.ascii	"CY_BLE_EVT_GET_TX_PWR_COMPLETE\000"
 15400      4C455F45 
 15400      56545F47 
 15400      45545F54 
 15400      585F5057 
 15401              	.LASF371:
 15402 2264 43595F42 		.ascii	"CY_BLE_EVT_GET_DEVICE_ADDR_COMPLETE\000"
 15402      4C455F45 
 15402      56545F47 
 15402      45545F44 
 15402      45564943 
 15403              	.LASF15:
 15404 2288 696E7431 		.ascii	"int16_t\000"
 15404      365F7400 
 15405              	.LASF110:
 15406 2290 666C6173 		.ascii	"flashCtlMainWs1Freq\000"
 15406      6843746C 
 15406      4D61696E 
 15406      57733146 
 15406      72657100 
 15407              	.LASF260:
 15408 22a4 5F666E74 		.ascii	"_fntypes\000"
 15408      79706573 
ARM GAS  C:\Users\seeho\AppData\Local\Temp\ccUkk7Dc.s 			page 348


 15408      00
 15409              	.LASF253:
 15410 22ad 5F5F746D 		.ascii	"__tm_year\000"
 15410      5F796561 
 15410      7200
 15411              	.LASF531:
 15412 22b7 4932435F 		.ascii	"I2C_context\000"
 15412      636F6E74 
 15412      65787400 
 15413              	.LASF437:
 15414 22c3 43595F42 		.ascii	"CY_BLE_EVT_GATTS_DATA_SIGNED_CMD_REQ\000"
 15414      4C455F45 
 15414      56545F47 
 15414      41545453 
 15414      5F444154 
 15415              	.LASF396:
 15416 22e8 43595F42 		.ascii	"CY_BLE_EVT_GAP_DEVICE_CONNECTED\000"
 15416      4C455F45 
 15416      56545F47 
 15416      41505F44 
 15416      45564943 
 15417              	.LASF384:
 15418 2308 43595F42 		.ascii	"CY_BLE_EVT_RADIO_VOLTAGE_LEVEL\000"
 15418      4C455F45 
 15418      56545F52 
 15418      4144494F 
 15418      5F564F4C 
 15419              	.LASF173:
 15420 2327 6D617374 		.ascii	"masterBufferIdx\000"
 15420      65724275 
 15420      66666572 
 15420      49647800 
 15421              	.LASF297:
 15422 2337 5F726573 		.ascii	"_result_k\000"
 15422      756C745F 
 15422      6B00
 15423              	.LASF526:
 15424 2341 63795F62 		.ascii	"cy_ble_connState\000"
 15424      6C655F63 
 15424      6F6E6E53 
 15424      74617465 
 15424      00
 15425              	.LASF168:
 15426 2352 6D617374 		.ascii	"masterStatus\000"
 15426      65725374 
 15426      61747573 
 15426      00
 15427              	.LASF107:
 15428 235f 666C6173 		.ascii	"flashProgramDelay\000"
 15428      6850726F 
 15428      6772616D 
 15428      44656C61 
 15428      7900
 15429              	.LASF208:
 15430 2371 64656164 		.ascii	"deadTimeClocks\000"
 15430      54696D65 
 15430      436C6F63 
ARM GAS  C:\Users\seeho\AppData\Local\Temp\ccUkk7Dc.s 			page 349


 15430      6B7300
 15431              	.LASF355:
 15432 2380 43595F42 		.ascii	"CY_BLE_EVT_GET_LOCAL_RPA_COMPLETE\000"
 15432      4C455F45 
 15432      56545F47 
 15432      45545F4C 
 15432      4F43414C 
 15433              	.LASF39:
 15434 23a2 5644445F 		.ascii	"VDD_ACTIVE\000"
 15434      41435449 
 15434      564500
 15435              	.LASF271:
 15436 23ad 5F6C6266 		.ascii	"_lbfsize\000"
 15436      73697A65 
 15436      00
 15437              	.LASF290:
 15438 23b6 5F696E63 		.ascii	"_inc\000"
 15438      00
 15439              	.LASF263:
 15440 23bb 5F696E64 		.ascii	"_ind\000"
 15440      00
 15441              	.LASF81:
 15442 23c0 6770696F 		.ascii	"gpioVersion\000"
 15442      56657273 
 15442      696F6E00 
 15443              	.LASF136:
 15444 23cc 6770696F 		.ascii	"gpioPrtCfgSioOffset\000"
 15444      50727443 
 15444      66675369 
 15444      6F4F6666 
 15444      73657400 
 15445              	.LASF545:
 15446 23e0 78517565 		.ascii	"xQueueGiveFromISR\000"
 15446      75654769 
 15446      76654672 
 15446      6F6D4953 
 15446      5200
 15447              	.LASF265:
 15448 23f2 5F5F7362 		.ascii	"__sbuf\000"
 15448      756600
 15449              	.LASF524:
 15450 23f9 63795F62 		.ascii	"cy_ble_advState\000"
 15450      6C655F61 
 15450      64765374 
 15450      61746500 
 15451              	.LASF334:
 15452 2409 5F6E6578 		.ascii	"_nextf\000"
 15452      746600
 15453              	.LASF566:
 15454 2410 5F5F656E 		.ascii	"__enable_irq\000"
 15454      61626C65 
 15454      5F697271 
 15454      00
 15455              	.LASF22:
 15456 241d 4F55545F 		.ascii	"OUT_INV\000"
 15456      494E5600 
 15457              	.LASF226:
ARM GAS  C:\Users\seeho\AppData\Local\Temp\ccUkk7Dc.s 			page 350


 15458 2425 6B696C6C 		.ascii	"killInputMode\000"
 15458      496E7075 
 15458      744D6F64 
 15458      6500
 15459              	.LASF385:
 15460 2433 43595F42 		.ascii	"CY_BLE_EVT_AES_CMAC_GEN_COMPLETE\000"
 15460      4C455F45 
 15460      56545F41 
 15460      45535F43 
 15460      4D41435F 
 15461              	.LASF100:
 15462 2454 75646250 		.ascii	"udbPresent\000"
 15462      72657365 
 15462      6E7400
 15463              	.LASF459:
 15464 245f 73746174 		.ascii	"status\000"
 15464      757300
 15465              	.LASF544:
 15466 2466 70765469 		.ascii	"pvTimerGetTimerID\000"
 15466      6D657247 
 15466      65745469 
 15466      6D657249 
 15466      4400
 15467              	.LASF241:
 15468 2478 5F5F554C 		.ascii	"__ULong\000"
 15468      6F6E6700 
 15469              	.LASF499:
 15470 2480 636E744E 		.ascii	"cntNum\000"
 15470      756D00
 15471              	.LASF11:
 15472 2487 6C6F6E67 		.ascii	"long long int\000"
 15472      206C6F6E 
 15472      6720696E 
 15472      7400
 15473              	.LASF378:
 15474 2495 43595F42 		.ascii	"CY_BLE_EVT_AES_ENCRYPT_COMPLETE\000"
 15474      4C455F45 
 15474      56545F41 
 15474      45535F45 
 15474      4E435259 
 15475              	.LASF18:
 15476 24b5 75696E74 		.ascii	"uint32_t\000"
 15476      33325F74 
 15476      00
 15477              	.LASF296:
 15478 24be 5F726573 		.ascii	"_result\000"
 15478      756C7400 
 15479              	.LASF169:
 15480 24c6 6D617374 		.ascii	"masterPause\000"
 15480      65725061 
 15480      75736500 
 15481              	.LASF170:
 15482 24d2 6D617374 		.ascii	"masterRdDir\000"
 15482      65725264 
 15482      44697200 
 15483              	.LASF232:
 15484 24de 5F6F6666 		.ascii	"_off_t\000"
ARM GAS  C:\Users\seeho\AppData\Local\Temp\ccUkk7Dc.s 			page 351


 15484      5F7400
 15485              	.LASF161:
 15486 24e5 43595F53 		.ascii	"CY_SCB_I2C_NAK\000"
 15486      43425F49 
 15486      32435F4E 
 15486      414B00
 15487              	.LASF116:
 15488 24f4 64774368 		.ascii	"dwChCtlPrioPos\000"
 15488      43746C50 
 15488      72696F50 
 15488      6F7300
 15489              	.LASF75:
 15490 2503 69706342 		.ascii	"ipcBase\000"
 15490      61736500 
 15491              	.LASF314:
 15492 250b 5F616464 		.ascii	"_add\000"
 15492      00
 15493              	.LASF550:
 15494 2510 43795F42 		.ascii	"Cy_BLE_RegisterAppHostCallback\000"
 15494      4C455F52 
 15494      65676973 
 15494      74657241 
 15494      7070486F 
 15495              	.LASF117:
 15496 252f 64774368 		.ascii	"dwChCtlPreemptablePos\000"
 15496      43746C50 
 15496      7265656D 
 15496      70746162 
 15496      6C65506F 
 15497              	.LASF6:
 15498 2545 73686F72 		.ascii	"short unsigned int\000"
 15498      7420756E 
 15498      7369676E 
 15498      65642069 
 15498      6E7400
 15499              	.LASF250:
 15500 2558 5F5F746D 		.ascii	"__tm_hour\000"
 15500      5F686F75 
 15500      7200
 15501              	.LASF402:
 15502 2562 43595F42 		.ascii	"CY_BLE_EVT_GAP_NUMERIC_COMPARISON_REQUEST\000"
 15502      4C455F45 
 15502      56545F47 
 15502      41505F4E 
 15502      554D4552 
 15503              	.LASF511:
 15504 258c 4750494F 		.ascii	"GPIOInit_1\000"
 15504      496E6974 
 15504      5F3100
 15505              	.LASF495:
 15506 2597 62617365 		.ascii	"base\000"
 15506      00
 15507              	.LASF397:
 15508 259c 43595F42 		.ascii	"CY_BLE_EVT_GAP_DEVICE_DISCONNECTED\000"
 15508      4C455F45 
 15508      56545F47 
 15508      41505F44 
ARM GAS  C:\Users\seeho\AppData\Local\Temp\ccUkk7Dc.s 			page 352


 15508      45564943 
 15509              	.LASF183:
 15510 25bf 736C6176 		.ascii	"slaveRxBufferIdx\000"
 15510      65527842 
 15510      75666665 
 15510      72496478 
 15510      00
 15511              	.LASF383:
 15512 25d0 43595F42 		.ascii	"CY_BLE_EVT_RADIO_TEMPERATURE\000"
 15512      4C455F45 
 15512      56545F52 
 15512      4144494F 
 15512      5F54454D 
 15513              	.LASF127:
 15514 25ed 70657269 		.ascii	"periDivCmdPaTypeSelPos\000"
 15514      44697643 
 15514      6D645061 
 15514      54797065 
 15514      53656C50 
 15515              	.LASF414:
 15516 2604 43595F42 		.ascii	"CY_BLE_EVT_GAPP_UPDATE_ADV_SCAN_DATA_COMPLETE\000"
 15516      4C455F45 
 15516      56545F47 
 15516      4150505F 
 15516      55504441 
 15517              	.LASF151:
 15518 2632 69706353 		.ascii	"ipcStructSize\000"
 15518      74727563 
 15518      7453697A 
 15518      6500
 15519              	.LASF463:
 15520 2640 61637475 		.ascii	"actualLen\000"
 15520      616C4C65 
 15520      6E00
 15521              	.LASF330:
 15522 264a 5F6D6273 		.ascii	"_mbsrtowcs_state\000"
 15522      72746F77 
 15522      63735F73 
 15522      74617465 
 15522      00
 15523              	.LASF343:
 15524 265b 43595F42 		.ascii	"CY_BLE_EVT_FLASH_CORRUPT\000"
 15524      4C455F45 
 15524      56545F46 
 15524      4C415348 
 15524      5F434F52 
 15525              	.LASF120:
 15526 2674 70657269 		.ascii	"periTrCmdOffset\000"
 15526      5472436D 
 15526      644F6666 
 15526      73657400 
 15527              	.LASF7:
 15528 2684 5F5F696E 		.ascii	"__int32_t\000"
 15528      7433325F 
 15528      7400
 15529              	.LASF218:
 15530 268e 696E7665 		.ascii	"invertPWMOutN\000"
ARM GAS  C:\Users\seeho\AppData\Local\Temp\ccUkk7Dc.s 			page 353


 15530      72745057 
 15530      4D4F7574 
 15530      4E00
 15531              	.LASF513:
 15532 269c 77726974 		.ascii	"writeDisplayMUX\000"
 15532      65446973 
 15532      706C6179 
 15532      4D555800 
 15533              	.LASF457:
 15534 26ac 61747449 		.ascii	"attId\000"
 15534      6400
 15535              	.LASF223:
 15536 26b2 72656C6F 		.ascii	"reloadInput\000"
 15536      6164496E 
 15536      70757400 
 15537              	.LASF78:
 15538 26be 63727970 		.ascii	"cryptoVersion\000"
 15538      746F5665 
 15538      7273696F 
 15538      6E00
 15539              	.LASF289:
 15540 26cc 5F737464 		.ascii	"_stderr\000"
 15540      65727200 
 15541              	.LASF548:
 15542 26d4 43795F42 		.ascii	"Cy_BLE_Start\000"
 15542      4C455F53 
 15542      74617274 
 15542      00
 15543              	.LASF195:
 15544 26e1 72785269 		.ascii	"rxRingBufTail\000"
 15544      6E674275 
 15544      66546169 
 15544      6C00
 15545              	.LASF506:
 15546 26ef 78486967 		.ascii	"xHigherPriorityTaskWoken\000"
 15546      68657250 
 15546      72696F72 
 15546      69747954 
 15546      61736B57 
 15547              	.LASF258:
 15548 2708 5F666E61 		.ascii	"_fnargs\000"
 15548      72677300 
 15549              	.LASF36:
 15550 2710 494E5452 		.ascii	"INTR_CAUSE1\000"
 15550      5F434155 
 15550      53453100 
 15551              	.LASF374:
 15552 271c 43595F42 		.ascii	"CY_BLE_EVT_SET_TX_PWR_COMPLETE\000"
 15552      4C455F45 
 15552      56545F53 
 15552      45545F54 
 15552      585F5057 
 15553              	.LASF256:
 15554 273b 5F5F746D 		.ascii	"__tm_isdst\000"
 15554      5F697364 
 15554      737400
 15555              	.LASF497:
ARM GAS  C:\Users\seeho\AppData\Local\Temp\ccUkk7Dc.s 			page 354


 15556 2746 43795F47 		.ascii	"Cy_GPIO_Write\000"
 15556      50494F5F 
 15556      57726974 
 15556      6500
 15557              	.LASF192:
 15558 2754 72785269 		.ascii	"rxRingBuf\000"
 15558      6E674275 
 15558      6600
 15559              	.LASF353:
 15560 275e 43595F42 		.ascii	"CY_BLE_EVT_DATA_LENGTH_CHANGE\000"
 15560      4C455F45 
 15560      56545F44 
 15560      4154415F 
 15560      4C454E47 
 15561              	.LASF188:
 15562 277c 63795F73 		.ascii	"cy_stc_scb_i2c_context\000"
 15562      74635F73 
 15562      63625F69 
 15562      32635F63 
 15562      6F6E7465 
 15563              	.LASF362:
 15564 2793 43595F42 		.ascii	"CY_BLE_EVT_REMOVE_DEVICE_FROM_WHITE_LIST_COMPLETE\000"
 15564      4C455F45 
 15564      56545F52 
 15564      454D4F56 
 15564      455F4445 
 15565              	.LASF359:
 15566 27c5 43595F42 		.ascii	"CY_BLE_EVT_ADD_DEVICE_TO_RPA_LIST_COMPLETE\000"
 15566      4C455F45 
 15566      56545F41 
 15566      44445F44 
 15566      45564943 
 15567              	.LASF249:
 15568 27f0 5F5F746D 		.ascii	"__tm_min\000"
 15568      5F6D696E 
 15568      00
 15569              	.LASF351:
 15570 27f9 43595F42 		.ascii	"CY_BLE_EVT_SET_SUGGESTED_DATA_LENGTH_COMPLETE\000"
 15570      4C455F45 
 15570      56545F53 
 15570      45545F53 
 15570      55474745 
 15571              	.LASF225:
 15572 2827 73746172 		.ascii	"startInput\000"
 15572      74496E70 
 15572      757400
 15573              	.LASF109:
 15574 2832 666C6173 		.ascii	"flashCtlMainWs0Freq\000"
 15574      6843746C 
 15574      4D61696E 
 15574      57733046 
 15574      72657100 
 15575              	.LASF376:
 15576 2846 43595F42 		.ascii	"CY_BLE_EVT_SET_CLK_CONFIG_COMPLETE\000"
 15576      4C455F45 
 15576      56545F53 
 15576      45545F43 
ARM GAS  C:\Users\seeho\AppData\Local\Temp\ccUkk7Dc.s 			page 355


 15576      4C4B5F43 
 15577              	.LASF82:
 15578 2869 6873696F 		.ascii	"hsiomVersion\000"
 15578      6D566572 
 15578      73696F6E 
 15578      00
 15579              	.LASF409:
 15580 2876 43595F42 		.ascii	"CY_BLE_EVT_GAP_KEYS_GEN_COMPLETE\000"
 15580      4C455F45 
 15580      56545F47 
 15580      41505F4B 
 15580      4559535F 
 15581              	.LASF164:
 15582 2897 63795F63 		.ascii	"cy_cb_scb_i2c_handle_addr_t\000"
 15582      625F7363 
 15582      625F6932 
 15582      635F6861 
 15582      6E646C65 
 15583              	.LASF114:
 15584 28b3 64774368 		.ascii	"dwChOffset\000"
 15584      4F666673 
 15584      657400
 15585              		.ident	"GCC: (GNU Tools for ARM Embedded Processors) 5.4.1 20160609 (release) [ARM/embedded-5-bran
