ARM GAS  C:\Users\seeho\AppData\Local\Temp\ccUkk7Dc.s 			page 1


   1              		.syntax unified
   2              		.cpu cortex-m4
   3              		.eabi_attribute 27, 1
   4              		.fpu fpv4-sp-d16
   5              		.eabi_attribute 20, 1
   6              		.eabi_attribute 21, 1
   7              		.eabi_attribute 23, 3
   8              		.eabi_attribute 24, 1
   9              		.eabi_attribute 25, 1
  10              		.eabi_attribute 26, 1
  11              		.eabi_attribute 30, 1
  12              		.eabi_attribute 34, 1
  13              		.eabi_attribute 18, 4
  14              		.thumb
  15              		.syntax unified
  16              		.file	"main_cm4.c"
  17              		.text
  18              	.Ltext0:
  19              		.cfi_sections	.debug_frame
  20              		.section	.text.vTimerCallback,"ax",%progbits
  21              		.align	2
  22              		.global	vTimerCallback
  23              		.thumb
  24              		.thumb_func
  25              		.type	vTimerCallback, %function
  26              	vTimerCallback:
  27              	.LFB639:
  28              		.file 1 "main_cm4.c"
   1:main_cm4.c    **** /*******************************************************************************
   2:main_cm4.c    **** * File Name: main_cm4.c
   3:main_cm4.c    **** * Version: 1.20
   4:main_cm4.c    **** * Description:
   5:main_cm4.c    **** *   This is source code for the PSoC 6 MCU with BLE:
   6:main_cm4.c    **** *           1) PA   control WRITE
   7:main_cm4.c    **** *           1) MUX  control WRITE
   8:main_cm4.c    **** *           1) OSC  control WRITE
   9:main_cm4.c    **** *           1) MISC control WRITE
  10:main_cm4.c    **** *******************************************************************************/
  11:main_cm4.c    **** #include "project.h"
  12:main_cm4.c    **** #include "FreeRTOS.h"
  13:main_cm4.c    **** #include "task.h"
  14:main_cm4.c    **** #include <stdio.h>
  15:main_cm4.c    **** #include <limits.h>
  16:main_cm4.c    **** #include "semphr.h"
  17:main_cm4.c    **** #include "timers.h"
  18:main_cm4.c    **** 
  19:main_cm4.c    **** #define LED_ON  0UL
  20:main_cm4.c    **** #define LED_OFF 1UL
  21:main_cm4.c    **** #define HEAP_SIZE_1 8*1024
  22:main_cm4.c    **** #define COUNTER_BLOCK_TIME 0
  23:main_cm4.c    **** 
  24:main_cm4.c    **** /********************************************************************/
  25:main_cm4.c    **** /* Default for four(4) interal registers                            */
  26:main_cm4.c    **** /********************************************************************/
  27:main_cm4.c    **** #define DEFAULT_PA      0x01 /* Gain:1                              */
  28:main_cm4.c    **** #define DEFAULT_MUX     0x00 /* Ch.1                                */
  29:main_cm4.c    **** #define DEFAULT_OSC     0x10 /* 100-5KHz                            */
ARM GAS  C:\Users\seeho\AppData\Local\Temp\ccUkk7Dc.s 			page 2


  30:main_cm4.c    **** #define DEFAULT_MUX_ON  0x01 /* MUX Disabled                        */
  31:main_cm4.c    **** #define DEFAULT_MUX_OFF 0x00 /* MUX Enabled                         */
  32:main_cm4.c    **** /********************************************************************/
  33:main_cm4.c    **** 
  34:main_cm4.c    **** /*********************************************************************
  35:main_cm4.c    **** * Gobal Variables                                                    *
  36:main_cm4.c    **** *   val                                                              *
  37:main_cm4.c    **** *   PA                                                               *
  38:main_cm4.c    **** *   MUX                                                              *
  39:main_cm4.c    **** *   OSC                                                              *
  40:main_cm4.c    **** *   MISC                                                             *
  41:main_cm4.c    **** **********************************************************************/
  42:main_cm4.c    **** uint32_t  val     = 0x00;             /*BLE-LED  written into GATT   */
  43:main_cm4.c    **** uint32_t  valPA   = DEFAULT_PA;       /*PA       written into GATT   */  
  44:main_cm4.c    **** uint32_t  valMUX  = DEFAULT_MUX;      /*MUX      written into GATT   */
  45:main_cm4.c    **** uint32_t  valOSC  = DEFAULT_OSC;      /*OSC      written into GATT   */
  46:main_cm4.c    **** uint32_t  valMISC = DEFAULT_MUX_OFF;  /*MISC     written into GATT   */
  47:main_cm4.c    **** /*********************************************************************/
  48:main_cm4.c    **** 
  49:main_cm4.c    **** // This is used to lock and unlock the BLE Task
  50:main_cm4.c    **** SemaphoreHandle_t bleSemaphore;
  51:main_cm4.c    **** 
  52:main_cm4.c    **** // This is used to lock and unlock the val printf
  53:main_cm4.c    **** SemaphoreHandle_t bleSemaphoreval;
  54:main_cm4.c    **** 
  55:main_cm4.c    **** // This is used to create a counter handle
  56:main_cm4.c    **** TimerHandle_t xtimer;
  57:main_cm4.c    **** 
  58:main_cm4.c    **** /********************************************************************
  59:main_cm4.c    ****   Define a callback function that will be used by timer instance.  
  60:main_cm4.c    ****   The callback function does nothing but printf
  61:main_cm4.c    **** *********************************************************************/
  62:main_cm4.c    ****  void vTimerCallback( TimerHandle_t xTimer )
  63:main_cm4.c    ****  {
  29              		.loc 1 63 0
  30              		.cfi_startproc
  31              		@ args = 0, pretend = 0, frame = 0
  32              		@ frame_needed = 0, uses_anonymous_args = 0
  33              	.LVL0:
  34 0000 30B5     		push	{r4, r5, lr}
  35              		.cfi_def_cfa_offset 12
  36              		.cfi_offset 4, -12
  37              		.cfi_offset 5, -8
  38              		.cfi_offset 14, -4
  39 0002 83B0     		sub	sp, sp, #12
  40              		.cfi_def_cfa_offset 24
  41 0004 0546     		mov	r5, r0
  42              	.LVL1:
  64:main_cm4.c    ****  const uint32_t ulMaxExpiryCountBeforeStopping = 10;
  65:main_cm4.c    ****  uint32_t ulCount;
  66:main_cm4.c    **** 
  67:main_cm4.c    ****     /* The number of times this timer has expired is saved as the
  68:main_cm4.c    ****     timer's ID.  Obtain the count. */
  69:main_cm4.c    ****     ulCount = ( uint32_t ) pvTimerGetTimerID( xTimer );
  43              		.loc 1 69 0
  44 0006 FFF7FEFF 		bl	pvTimerGetTimerID
  45              	.LVL2:
ARM GAS  C:\Users\seeho\AppData\Local\Temp\ccUkk7Dc.s 			page 3


  46 000a 0446     		mov	r4, r0
  47              	.LVL3:
  70:main_cm4.c    ****     printf("%d ", ulCount);
  48              		.loc 1 70 0
  49 000c 0146     		mov	r1, r0
  50 000e 1C48     		ldr	r0, .L5
  51              	.LVL4:
  52 0010 FFF7FEFF 		bl	printf
  53              	.LVL5:
  71:main_cm4.c    **** 
  72:main_cm4.c    ****     /* Increment the count, then test to see if the timer has expired */
  73:main_cm4.c    ****     ulCount++;
  54              		.loc 1 73 0
  55 0014 0134     		adds	r4, r4, #1
  56              	.LVL6:
  74:main_cm4.c    **** 
  75:main_cm4.c    ****     /* If the timer has expired 10 times then stop it from running. */
  76:main_cm4.c    ****     if( ulCount >= ulMaxExpiryCountBeforeStopping ) {
  57              		.loc 1 76 0
  58 0016 092C     		cmp	r4, #9
  59 0018 22D9     		bls	.L2
  60              	.LBB254:
  77:main_cm4.c    ****         /* Do not use a block time if calling a timer API function
  78:main_cm4.c    ****         from a timer callback function, as doing so could cause a
  79:main_cm4.c    ****         deadlock! */
  80:main_cm4.c    ****         const char *timerName = pcTimerGetName(xtimer);
  61              		.loc 1 80 0
  62 001a 1A4B     		ldr	r3, .L5+4
  63 001c 1868     		ldr	r0, [r3]
  64 001e FFF7FEFF 		bl	pcTimerGetName
  65              	.LVL7:
  81:main_cm4.c    ****         printf("\n(%s) expired at count: %d, \r\n", timerName , ulCount);
  66              		.loc 1 81 0
  67 0022 2246     		mov	r2, r4
  68 0024 0146     		mov	r1, r0
  69 0026 1848     		ldr	r0, .L5+8
  70              	.LVL8:
  71 0028 FFF7FEFF 		bl	printf
  72              	.LVL9:
  82:main_cm4.c    ****         
  83:main_cm4.c    ****         /* Dump all parameters at count (10) */
  84:main_cm4.c    ****         printf("\r\nval:[%x] PA:[%x] MUX:[%x] OSC:[%x] MISC:[%x]\r\n", val, valPA, valMUX, valOSC, 
  73              		.loc 1 84 0
  74 002c 1748     		ldr	r0, .L5+12
  75 002e 0368     		ldr	r3, [r0]
  76 0030 174C     		ldr	r4, .L5+16
  77              	.LVL10:
  78 0032 2268     		ldr	r2, [r4]
  79 0034 4168     		ldr	r1, [r0, #4]
  80 0036 8068     		ldr	r0, [r0, #8]
  81 0038 0190     		str	r0, [sp, #4]
  82 003a 6068     		ldr	r0, [r4, #4]
  83 003c 0090     		str	r0, [sp]
  84 003e 1548     		ldr	r0, .L5+20
  85 0040 FFF7FEFF 		bl	printf
  86              	.LVL11:
  85:main_cm4.c    ****         
ARM GAS  C:\Users\seeho\AppData\Local\Temp\ccUkk7Dc.s 			page 4


  86:main_cm4.c    ****         vTimerSetTimerID( xTimer, ( void * ) 0 );
  87              		.loc 1 86 0
  88 0044 0021     		movs	r1, #0
  89 0046 2846     		mov	r0, r5
  90 0048 FFF7FEFF 		bl	vTimerSetTimerID
  91              	.LVL12:
  87:main_cm4.c    ****         xTimerReset( xTimer, 0 );
  92              		.loc 1 87 0
  93 004c FFF7FEFF 		bl	xTaskGetTickCount
  94              	.LVL13:
  95 0050 0023     		movs	r3, #0
  96 0052 0093     		str	r3, [sp]
  97 0054 0246     		mov	r2, r0
  98 0056 0221     		movs	r1, #2
  99 0058 2846     		mov	r0, r5
 100 005a FFF7FEFF 		bl	xTimerGenericCommand
 101              	.LVL14:
 102              	.LBE254:
 103 005e 0CE0     		b	.L1
 104              	.LVL15:
 105              	.L2:
  88:main_cm4.c    ****     }
  89:main_cm4.c    ****     else {
  90:main_cm4.c    ****        /* Store the incremented count back into the timer's ID field
  91:main_cm4.c    ****        so it can be read back again the next time this software timer
  92:main_cm4.c    ****        expires. */
  93:main_cm4.c    ****        vTimerSetTimerID( xTimer, ( void * ) ulCount );
 106              		.loc 1 93 0
 107 0060 2146     		mov	r1, r4
 108 0062 2846     		mov	r0, r5
 109 0064 FFF7FEFF 		bl	vTimerSetTimerID
 110              	.LVL16:
  94:main_cm4.c    ****     
  95:main_cm4.c    ****        /* increasing the counter period per each count (x2)
  96:main_cm4.c    ****         * This is just for debugging to see printf() slowing down from 0->9.
  97:main_cm4.c    ****         *
  98:main_cm4.c    ****                                      2xthe last period                    */
  99:main_cm4.c    ****        xTimerChangePeriod( xTimer, (100*ulCount), COUNTER_BLOCK_TIME);
 111              		.loc 1 99 0
 112 0068 0023     		movs	r3, #0
 113 006a 0093     		str	r3, [sp]
 114 006c 6422     		movs	r2, #100
 115 006e 02FB04F2 		mul	r2, r2, r4
 116 0072 0421     		movs	r1, #4
 117 0074 2846     		mov	r0, r5
 118 0076 FFF7FEFF 		bl	xTimerGenericCommand
 119              	.LVL17:
 120              	.L1:
 100:main_cm4.c    ****     }
 101:main_cm4.c    ****  }
 121              		.loc 1 101 0
 122 007a 03B0     		add	sp, sp, #12
 123              		.cfi_def_cfa_offset 12
 124              		@ sp needed
 125 007c 30BD     		pop	{r4, r5, pc}
 126              	.LVL18:
 127              	.L6:
ARM GAS  C:\Users\seeho\AppData\Local\Temp\ccUkk7Dc.s 			page 5


 128 007e 00BF     		.align	2
 129              	.L5:
 130 0080 00000000 		.word	.LC0
 131 0084 00000000 		.word	xtimer
 132 0088 04000000 		.word	.LC1
 133 008c 00000000 		.word	.LANCHOR0
 134 0090 00000000 		.word	.LANCHOR1
 135 0094 24000000 		.word	.LC2
 136              		.cfi_endproc
 137              	.LFE639:
 138              		.size	vTimerCallback, .-vTimerCallback
 139              		.section	.text.bleInterruptNotify,"ax",%progbits
 140              		.align	2
 141              		.global	bleInterruptNotify
 142              		.thumb
 143              		.thumb_func
 144              		.type	bleInterruptNotify, %function
 145              	bleInterruptNotify:
 146              	.LFB648:
 102:main_cm4.c    **** 
 103:main_cm4.c    **** /*******************************************************************************
 104:main_cm4.c    **** * Function: CreateTimer_1
 105:main_cm4.c    **** * Input:    void
 106:main_cm4.c    **** * Return:   void
 107:main_cm4.c    **** * Description:
 108:main_cm4.c    **** *    This function is to create a timer configuration
 109:main_cm4.c    **** *******************************************************************************/
 110:main_cm4.c    **** 
 111:main_cm4.c    **** void CreateTimer_1(void)
 112:main_cm4.c    **** {
 113:main_cm4.c    **** printf("Creating one RTOS timer \r\n");
 114:main_cm4.c    **** 
 115:main_cm4.c    **** xtimer = xTimerCreate
 116:main_cm4.c    ****    ( /* Just a text name, not used by the RTOS
 117:main_cm4.c    ****      kernel. */
 118:main_cm4.c    ****      "Timer_1",
 119:main_cm4.c    ****      /* The timer period in ticks, must be
 120:main_cm4.c    ****      greater than 0. Default: 100ms */
 121:main_cm4.c    ****      pdMS_TO_TICKS(100),
 122:main_cm4.c    ****      /* Timer will auto-reload */
 123:main_cm4.c    ****      pdTRUE,
 124:main_cm4.c    ****      /* The ID is used to store a count of the
 125:main_cm4.c    ****      number of times the timer has expired, which
 126:main_cm4.c    ****      is initialised to 0. */
 127:main_cm4.c    ****      ( void * ) 0,
 128:main_cm4.c    ****      /* Timer calls the same callback when it expires. */
 129:main_cm4.c    ****      vTimerCallback
 130:main_cm4.c    ****    );
 131:main_cm4.c    ****                 
 132:main_cm4.c    **** if( xtimer == NULL )
 133:main_cm4.c    ****      {
 134:main_cm4.c    ****          printf("The timer was not created\r\n");
 135:main_cm4.c    ****      }
 136:main_cm4.c    **** else{
 137:main_cm4.c    ****  /* Start the timer.  No block time is specified, and
 138:main_cm4.c    ****  even if one was it would be ignored because the RTOS
 139:main_cm4.c    ****  scheduler has not yet been started. */
ARM GAS  C:\Users\seeho\AppData\Local\Temp\ccUkk7Dc.s 			page 6


 140:main_cm4.c    ****  if( xTimerStart( xtimer, 0 ) != pdPASS )
 141:main_cm4.c    ****  {
 142:main_cm4.c    ****      printf("The timer could not be set into the Active state\r\n");
 143:main_cm4.c    ****  }
 144:main_cm4.c    **** }
 145:main_cm4.c    **** } 
 146:main_cm4.c    **** 
 147:main_cm4.c    **** /*******************************************************************************
 148:main_cm4.c    **** * Function: writeDisplayEventHandler
 149:main_cm4.c    **** * Input:    void
 150:main_cm4.c    **** * Return:   void
 151:main_cm4.c    **** * Description:
 152:main_cm4.c    **** *    This function is the BLE write to the server function - printf
 153:main_cm4.c    **** *******************************************************************************/
 154:main_cm4.c    **** 
 155:main_cm4.c    **** void writeDisplayEventHandler(void)
 156:main_cm4.c    **** {
 157:main_cm4.c    ****     printf("'Semaphored' HEX Value received for the GATT Client: %x \r\n", val);
 158:main_cm4.c    ****     xSemaphoreGive(bleSemaphoreval);
 159:main_cm4.c    **** } 
 160:main_cm4.c    **** 
 161:main_cm4.c    **** /*******************************************************************************
 162:main_cm4.c    **** * Function: GPIOInit_1
 163:main_cm4.c    **** * Input:    void
 164:main_cm4.c    **** * Return:   void
 165:main_cm4.c    **** * Description:
 166:main_cm4.c    **** *    This function is the golbal GPIO Init
 167:main_cm4.c    **** *******************************************************************************/
 168:main_cm4.c    **** 
 169:main_cm4.c    **** void GPIOInit_1(void)
 170:main_cm4.c    **** {
 171:main_cm4.c    ****     /* PA */
 172:main_cm4.c    ****     Cy_GPIO_Pin_Init(PA0_0_PORT, PA0_0_NUM, 0UL);
 173:main_cm4.c    ****     Cy_GPIO_Pin_Init(PA1_0_PORT, PA1_0_NUM, 0UL);
 174:main_cm4.c    ****     Cy_GPIO_Pin_Init(PA2_0_PORT, PA2_0_NUM, 0UL);
 175:main_cm4.c    ****     Cy_GPIO_Pin_Init(PA3_0_PORT, PA3_0_NUM, 0UL);
 176:main_cm4.c    ****     
 177:main_cm4.c    ****     /* MUX */
 178:main_cm4.c    ****     Cy_GPIO_Pin_Init(MUX0_0_PORT, MUX0_0_NUM, 0UL);
 179:main_cm4.c    ****     Cy_GPIO_Pin_Init(MUX1_0_PORT, MUX1_0_NUM, 0UL);
 180:main_cm4.c    ****     Cy_GPIO_Pin_Init(MUX2_0_PORT, MUX2_0_NUM, 0UL);
 181:main_cm4.c    ****     Cy_GPIO_Pin_Init(MUX3_0_PORT, MUX3_0_NUM, 0UL);
 182:main_cm4.c    ****     Cy_GPIO_Pin_Init(MUX_EN_0_PORT, MUX_EN_0_NUM, 0UL);
 183:main_cm4.c    ****     
 184:main_cm4.c    ****     /* OSC */
 185:main_cm4.c    ****     Cy_GPIO_Pin_Init(OSC0_0_PORT, OSC0_0_NUM, 0UL);
 186:main_cm4.c    ****     Cy_GPIO_Pin_Init(OSC1_0_PORT, OSC1_0_NUM, 0UL);
 187:main_cm4.c    ****     Cy_GPIO_Pin_Init(OSC2_0_PORT, OSC2_0_NUM, 0UL);
 188:main_cm4.c    ****     
 189:main_cm4.c    ****     /* MISC */
 190:main_cm4.c    ****     Cy_GPIO_Pin_Init(MISC0_0_PORT, MISC0_0_NUM, 0UL);
 191:main_cm4.c    ****     Cy_GPIO_Pin_Init(MISC1_0_PORT, MISC1_0_NUM, 0UL);
 192:main_cm4.c    ****     Cy_GPIO_Pin_Init(MISC2_0_PORT, MISC2_0_NUM, 0UL);
 193:main_cm4.c    ****     Cy_GPIO_Pin_Init(MISC3_0_PORT, MISC3_0_NUM, 0UL);
 194:main_cm4.c    ****     
 195:main_cm4.c    ****     /* User SW1 */
 196:main_cm4.c    ****     Cy_GPIO_Pin_Init(SW1_0_PORT, SW1_0_NUM, 0UL);       
ARM GAS  C:\Users\seeho\AppData\Local\Temp\ccUkk7Dc.s 			page 7


 197:main_cm4.c    **** }   
 198:main_cm4.c    ****     // Cy_GPIO_Pin_Init(RED_0_PORT, RED_0_NUM, 0UL);
 199:main_cm4.c    ****     // Cy_GPIO_Write(PA0_0_PORT, PA0_0_NUM, 0UL);
 200:main_cm4.c    **** 
 201:main_cm4.c    **** 
 202:main_cm4.c    **** /*******************************************************************************
 203:main_cm4.c    **** * Function: writeDisplayPA
 204:main_cm4.c    **** * Input:    void
 205:main_cm4.c    **** * Return:   void
 206:main_cm4.c    **** * Description:
 207:main_cm4.c    **** *    This function is the BLE write to PA GATT register
 208:main_cm4.c    **** *******************************************************************************/
 209:main_cm4.c    **** void writeDisplayPA(void)
 210:main_cm4.c    **** {   
 211:main_cm4.c    ****     printf("PA GATT Client: %x \r\n", valPA);
 212:main_cm4.c    ****     
 213:main_cm4.c    ****     switch (valPA)
 214:main_cm4.c    **** 	{
 215:main_cm4.c    ****         case 0x00:        
 216:main_cm4.c    ****             printf("Gain:0 \r\n");
 217:main_cm4.c    ****             Cy_GPIO_Write(PA0_0_PORT, PA0_0_NUM, 0UL);
 218:main_cm4.c    ****             Cy_GPIO_Write(PA1_0_PORT, PA1_0_NUM, 0UL);
 219:main_cm4.c    ****             Cy_GPIO_Write(PA2_0_PORT, PA2_0_NUM, 0UL);
 220:main_cm4.c    ****             Cy_GPIO_Write(PA3_0_PORT, PA3_0_NUM, 0UL);
 221:main_cm4.c    ****             break;
 222:main_cm4.c    ****         
 223:main_cm4.c    ****         case 0x01:        
 224:main_cm4.c    ****             printf("Gain:1 \r\n");
 225:main_cm4.c    ****             Cy_GPIO_Write(PA0_0_PORT, PA0_0_NUM, 1UL);
 226:main_cm4.c    ****             Cy_GPIO_Write(PA1_0_PORT, PA1_0_NUM, 0UL);
 227:main_cm4.c    ****             Cy_GPIO_Write(PA2_0_PORT, PA2_0_NUM, 0UL);
 228:main_cm4.c    ****             Cy_GPIO_Write(PA3_0_PORT, PA3_0_NUM, 0UL);
 229:main_cm4.c    ****             break;
 230:main_cm4.c    **** 
 231:main_cm4.c    ****         case 0x02:        
 232:main_cm4.c    ****             printf("Gain:2 \r\n");
 233:main_cm4.c    ****             Cy_GPIO_Write(PA0_0_PORT, PA0_0_NUM, 0UL);
 234:main_cm4.c    ****             Cy_GPIO_Write(PA1_0_PORT, PA1_0_NUM, 1UL);
 235:main_cm4.c    ****             Cy_GPIO_Write(PA2_0_PORT, PA2_0_NUM, 0UL);
 236:main_cm4.c    ****             Cy_GPIO_Write(PA3_0_PORT, PA3_0_NUM, 0UL);
 237:main_cm4.c    ****             break;
 238:main_cm4.c    ****         
 239:main_cm4.c    ****         case 0x03:        
 240:main_cm4.c    ****             printf("Gain:4 \r\n");
 241:main_cm4.c    ****             Cy_GPIO_Write(PA0_0_PORT, PA0_0_NUM, 1UL);
 242:main_cm4.c    ****             Cy_GPIO_Write(PA1_0_PORT, PA1_0_NUM, 1UL);
 243:main_cm4.c    ****             Cy_GPIO_Write(PA2_0_PORT, PA2_0_NUM, 0UL);
 244:main_cm4.c    ****             Cy_GPIO_Write(PA3_0_PORT, PA3_0_NUM, 0UL);
 245:main_cm4.c    ****             break;
 246:main_cm4.c    **** 
 247:main_cm4.c    ****         case 0x04:        
 248:main_cm4.c    ****             printf("Gain:8 \r\n");
 249:main_cm4.c    ****             Cy_GPIO_Write(PA0_0_PORT, PA0_0_NUM, 0UL);
 250:main_cm4.c    ****             Cy_GPIO_Write(PA1_0_PORT, PA1_0_NUM, 0UL);
 251:main_cm4.c    ****             Cy_GPIO_Write(PA2_0_PORT, PA2_0_NUM, 1UL);
 252:main_cm4.c    ****             Cy_GPIO_Write(PA3_0_PORT, PA3_0_NUM, 0UL);
 253:main_cm4.c    ****             break;
ARM GAS  C:\Users\seeho\AppData\Local\Temp\ccUkk7Dc.s 			page 8


 254:main_cm4.c    ****         
 255:main_cm4.c    ****         case 0x05:        
 256:main_cm4.c    ****             printf("Gain:16 \r\n");
 257:main_cm4.c    ****             Cy_GPIO_Write(PA0_0_PORT, PA0_0_NUM, 1UL);
 258:main_cm4.c    ****             Cy_GPIO_Write(PA1_0_PORT, PA1_0_NUM, 0UL);
 259:main_cm4.c    ****             Cy_GPIO_Write(PA2_0_PORT, PA2_0_NUM, 1UL);
 260:main_cm4.c    ****             Cy_GPIO_Write(PA3_0_PORT, PA3_0_NUM, 0UL);
 261:main_cm4.c    ****             break;
 262:main_cm4.c    **** 
 263:main_cm4.c    ****         case 0x06:        
 264:main_cm4.c    ****             printf("Gain:32 \r\n");
 265:main_cm4.c    ****             Cy_GPIO_Write(PA0_0_PORT, PA0_0_NUM, 0UL);
 266:main_cm4.c    ****             Cy_GPIO_Write(PA1_0_PORT, PA1_0_NUM, 1UL);
 267:main_cm4.c    ****             Cy_GPIO_Write(PA2_0_PORT, PA2_0_NUM, 1UL);
 268:main_cm4.c    ****             Cy_GPIO_Write(PA3_0_PORT, PA3_0_NUM, 0UL);
 269:main_cm4.c    ****             break;
 270:main_cm4.c    ****         
 271:main_cm4.c    ****         case 0x07:        
 272:main_cm4.c    ****             printf("Gain:64 \r\n");
 273:main_cm4.c    ****             Cy_GPIO_Write(PA0_0_PORT, PA0_0_NUM, 1UL);
 274:main_cm4.c    ****             Cy_GPIO_Write(PA1_0_PORT, PA1_0_NUM, 1UL);
 275:main_cm4.c    ****             Cy_GPIO_Write(PA2_0_PORT, PA2_0_NUM, 1UL);
 276:main_cm4.c    ****             Cy_GPIO_Write(PA3_0_PORT, PA3_0_NUM, 0UL);
 277:main_cm4.c    ****             break;
 278:main_cm4.c    ****             
 279:main_cm4.c    ****         case 0x08:        
 280:main_cm4.c    ****             printf("Gain128 \r\n");
 281:main_cm4.c    ****             Cy_GPIO_Write(PA0_0_PORT, PA0_0_NUM, 0UL);
 282:main_cm4.c    ****             Cy_GPIO_Write(PA1_0_PORT, PA1_0_NUM, 0UL);
 283:main_cm4.c    ****             Cy_GPIO_Write(PA2_0_PORT, PA2_0_NUM, 0UL);
 284:main_cm4.c    ****             Cy_GPIO_Write(PA3_0_PORT, PA3_0_NUM, 1UL);
 285:main_cm4.c    ****             break;
 286:main_cm4.c    ****         
 287:main_cm4.c    ****         case 0x09:        
 288:main_cm4.c    ****             printf("Gain:256 \r\n");
 289:main_cm4.c    ****             Cy_GPIO_Write(PA0_0_PORT, PA0_0_NUM, 1UL);
 290:main_cm4.c    ****             Cy_GPIO_Write(PA1_0_PORT, PA1_0_NUM, 0UL);
 291:main_cm4.c    ****             Cy_GPIO_Write(PA2_0_PORT, PA2_0_NUM, 0UL);
 292:main_cm4.c    ****             Cy_GPIO_Write(PA3_0_PORT, PA3_0_NUM, 1UL);
 293:main_cm4.c    ****             break;
 294:main_cm4.c    **** 
 295:main_cm4.c    ****         case 0x0A:        
 296:main_cm4.c    ****             printf("Gain:512 \r\n");
 297:main_cm4.c    ****             Cy_GPIO_Write(PA0_0_PORT, PA0_0_NUM, 0UL);
 298:main_cm4.c    ****             Cy_GPIO_Write(PA1_0_PORT, PA1_0_NUM, 1UL);
 299:main_cm4.c    ****             Cy_GPIO_Write(PA2_0_PORT, PA2_0_NUM, 0UL);
 300:main_cm4.c    ****             Cy_GPIO_Write(PA3_0_PORT, PA3_0_NUM, 1UL);
 301:main_cm4.c    ****             break;
 302:main_cm4.c    ****         
 303:main_cm4.c    ****         case 0x0B:        
 304:main_cm4.c    ****             printf("Gain:1024 \r\n");
 305:main_cm4.c    ****             Cy_GPIO_Write(PA0_0_PORT, PA0_0_NUM, 1UL);
 306:main_cm4.c    ****             Cy_GPIO_Write(PA1_0_PORT, PA1_0_NUM, 1UL);
 307:main_cm4.c    ****             Cy_GPIO_Write(PA2_0_PORT, PA2_0_NUM, 0UL);
 308:main_cm4.c    ****             Cy_GPIO_Write(PA3_0_PORT, PA3_0_NUM, 1UL);
 309:main_cm4.c    ****             break;
 310:main_cm4.c    **** 
ARM GAS  C:\Users\seeho\AppData\Local\Temp\ccUkk7Dc.s 			page 9


 311:main_cm4.c    ****         case 0x0C:        
 312:main_cm4.c    ****             printf("Gain:2048 \r\n");
 313:main_cm4.c    ****             Cy_GPIO_Write(PA0_0_PORT, PA0_0_NUM, 0UL);
 314:main_cm4.c    ****             Cy_GPIO_Write(PA1_0_PORT, PA1_0_NUM, 0UL);
 315:main_cm4.c    ****             Cy_GPIO_Write(PA2_0_PORT, PA2_0_NUM, 1UL);
 316:main_cm4.c    ****             Cy_GPIO_Write(PA3_0_PORT, PA3_0_NUM, 1UL);
 317:main_cm4.c    ****             break;
 318:main_cm4.c    ****             
 319:main_cm4.c    ****         default:
 320:main_cm4.c    ****             printf("Gain:4096 \r\n");
 321:main_cm4.c    ****             Cy_GPIO_Write(PA0_0_PORT, PA0_0_NUM, 1UL);
 322:main_cm4.c    ****             Cy_GPIO_Write(PA1_0_PORT, PA1_0_NUM, 1UL);
 323:main_cm4.c    ****             Cy_GPIO_Write(PA2_0_PORT, PA2_0_NUM, 1UL);
 324:main_cm4.c    ****             Cy_GPIO_Write(PA3_0_PORT, PA3_0_NUM, 1UL);
 325:main_cm4.c    ****             break;            
 326:main_cm4.c    ****     }
 327:main_cm4.c    **** }
 328:main_cm4.c    **** 
 329:main_cm4.c    **** /*******************************************************************************
 330:main_cm4.c    **** * Function: writeDisplayMUX
 331:main_cm4.c    **** * Input:    void
 332:main_cm4.c    **** * Return:   void
 333:main_cm4.c    **** * Description:
 334:main_cm4.c    **** *    This function is the BLE write to MUX GATT register
 335:main_cm4.c    **** *******************************************************************************/
 336:main_cm4.c    **** void writeDisplayMUX(void)
 337:main_cm4.c    **** { 
 338:main_cm4.c    ****     printf("MUX GATT Client: %x \r\n", valMUX);
 339:main_cm4.c    ****     
 340:main_cm4.c    **** switch (valMUX)
 341:main_cm4.c    **** 	{
 342:main_cm4.c    ****         case 0x00:        
 343:main_cm4.c    ****             printf("ON Switch:0 \r\n");
 344:main_cm4.c    ****             Cy_GPIO_Write(MUX0_0_PORT, MUX0_0_NUM, 0UL);
 345:main_cm4.c    ****             Cy_GPIO_Write(MUX1_0_PORT, MUX1_0_NUM, 0UL);
 346:main_cm4.c    ****             Cy_GPIO_Write(MUX2_0_PORT, MUX2_0_NUM, 0UL);            
 347:main_cm4.c    ****             Cy_GPIO_Write(MUX3_0_PORT, MUX3_0_NUM, 0UL);          
 348:main_cm4.c    ****             break;
 349:main_cm4.c    ****         
 350:main_cm4.c    ****         case 0x01:        
 351:main_cm4.c    ****             printf("ON Switch:1 \r\n");
 352:main_cm4.c    ****             Cy_GPIO_Write(MUX0_0_PORT, MUX0_0_NUM, 1UL);
 353:main_cm4.c    ****             Cy_GPIO_Write(MUX1_0_PORT, MUX1_0_NUM, 0UL);
 354:main_cm4.c    ****             Cy_GPIO_Write(MUX2_0_PORT, MUX2_0_NUM, 0UL);            
 355:main_cm4.c    ****             Cy_GPIO_Write(MUX3_0_PORT, MUX3_0_NUM, 0UL); 
 356:main_cm4.c    ****             break;
 357:main_cm4.c    **** 
 358:main_cm4.c    ****         case 0x02:        
 359:main_cm4.c    ****             printf("ON Switch:2 \r\n");
 360:main_cm4.c    ****             Cy_GPIO_Write(MUX0_0_PORT, MUX0_0_NUM, 0UL);
 361:main_cm4.c    ****             Cy_GPIO_Write(MUX1_0_PORT, MUX1_0_NUM, 1UL);
 362:main_cm4.c    ****             Cy_GPIO_Write(MUX2_0_PORT, MUX2_0_NUM, 0UL);            
 363:main_cm4.c    ****             Cy_GPIO_Write(MUX3_0_PORT, MUX3_0_NUM, 0UL); 
 364:main_cm4.c    ****             break;
 365:main_cm4.c    ****         
 366:main_cm4.c    ****         case 0x03:        
 367:main_cm4.c    ****             printf("ON Switch:3 \r\n");
ARM GAS  C:\Users\seeho\AppData\Local\Temp\ccUkk7Dc.s 			page 10


 368:main_cm4.c    ****             Cy_GPIO_Write(MUX0_0_PORT, MUX0_0_NUM, 1UL);
 369:main_cm4.c    ****             Cy_GPIO_Write(MUX1_0_PORT, MUX1_0_NUM, 1UL);
 370:main_cm4.c    ****             Cy_GPIO_Write(MUX2_0_PORT, MUX2_0_NUM, 0UL);            
 371:main_cm4.c    ****             Cy_GPIO_Write(MUX3_0_PORT, MUX3_0_NUM, 0UL); 
 372:main_cm4.c    ****             break;
 373:main_cm4.c    **** 
 374:main_cm4.c    ****         case 0x04:        
 375:main_cm4.c    ****             printf("ON Switch:4 \r\n");
 376:main_cm4.c    ****             Cy_GPIO_Write(MUX0_0_PORT, MUX0_0_NUM, 0UL);
 377:main_cm4.c    ****             Cy_GPIO_Write(MUX1_0_PORT, MUX1_0_NUM, 0UL);
 378:main_cm4.c    ****             Cy_GPIO_Write(MUX2_0_PORT, MUX2_0_NUM, 1UL);            
 379:main_cm4.c    ****             Cy_GPIO_Write(MUX3_0_PORT, MUX3_0_NUM, 0UL); 
 380:main_cm4.c    ****             break;
 381:main_cm4.c    ****         
 382:main_cm4.c    ****         case 0x05:        
 383:main_cm4.c    ****             printf("ON Switch:5 \r\n");
 384:main_cm4.c    ****             Cy_GPIO_Write(MUX0_0_PORT, MUX0_0_NUM, 1UL);
 385:main_cm4.c    ****             Cy_GPIO_Write(MUX1_0_PORT, MUX1_0_NUM, 0UL);
 386:main_cm4.c    ****             Cy_GPIO_Write(MUX2_0_PORT, MUX2_0_NUM, 1UL);            
 387:main_cm4.c    ****             Cy_GPIO_Write(MUX3_0_PORT, MUX3_0_NUM, 0UL); 
 388:main_cm4.c    ****             break;
 389:main_cm4.c    **** 
 390:main_cm4.c    ****         case 0x06:        
 391:main_cm4.c    ****             printf("ON Switch:6 \r\n");
 392:main_cm4.c    ****             Cy_GPIO_Write(MUX0_0_PORT, MUX0_0_NUM, 0UL);
 393:main_cm4.c    ****             Cy_GPIO_Write(MUX1_0_PORT, MUX1_0_NUM, 1UL);
 394:main_cm4.c    ****             Cy_GPIO_Write(MUX2_0_PORT, MUX2_0_NUM, 1UL);            
 395:main_cm4.c    ****             Cy_GPIO_Write(MUX3_0_PORT, MUX3_0_NUM, 0UL); 
 396:main_cm4.c    ****             break;
 397:main_cm4.c    ****         
 398:main_cm4.c    ****         case 0x07:        
 399:main_cm4.c    ****             printf("ON Switch:7 \r\n");
 400:main_cm4.c    ****             Cy_GPIO_Write(MUX0_0_PORT, MUX0_0_NUM, 1UL);
 401:main_cm4.c    ****             Cy_GPIO_Write(MUX1_0_PORT, MUX1_0_NUM, 1UL);
 402:main_cm4.c    ****             Cy_GPIO_Write(MUX2_0_PORT, MUX2_0_NUM, 1UL);            
 403:main_cm4.c    ****             Cy_GPIO_Write(MUX3_0_PORT, MUX3_0_NUM, 0UL); 
 404:main_cm4.c    ****             break;
 405:main_cm4.c    ****             
 406:main_cm4.c    ****         case 0x08:        
 407:main_cm4.c    ****             printf("ON Switch:8 \r\n");
 408:main_cm4.c    ****             Cy_GPIO_Write(MUX0_0_PORT, MUX0_0_NUM, 0UL);
 409:main_cm4.c    ****             Cy_GPIO_Write(MUX1_0_PORT, MUX1_0_NUM, 0UL);
 410:main_cm4.c    ****             Cy_GPIO_Write(MUX2_0_PORT, MUX2_0_NUM, 0UL);            
 411:main_cm4.c    ****             Cy_GPIO_Write(MUX3_0_PORT, MUX3_0_NUM, 1UL); 
 412:main_cm4.c    ****             break;
 413:main_cm4.c    ****         
 414:main_cm4.c    ****         case 0x09:        
 415:main_cm4.c    ****             printf("ON Switch:9 \r\n");
 416:main_cm4.c    ****             Cy_GPIO_Write(MUX0_0_PORT, MUX0_0_NUM, 1UL);
 417:main_cm4.c    ****             Cy_GPIO_Write(MUX1_0_PORT, MUX1_0_NUM, 0UL);
 418:main_cm4.c    ****             Cy_GPIO_Write(MUX2_0_PORT, MUX2_0_NUM, 0UL);            
 419:main_cm4.c    ****             Cy_GPIO_Write(MUX3_0_PORT, MUX3_0_NUM, 1UL); 
 420:main_cm4.c    ****             break;
 421:main_cm4.c    **** 
 422:main_cm4.c    ****         case 0x0A:        
 423:main_cm4.c    ****             printf("ON Switch:A \r\n");
 424:main_cm4.c    ****             Cy_GPIO_Write(MUX0_0_PORT, MUX0_0_NUM, 0UL);
ARM GAS  C:\Users\seeho\AppData\Local\Temp\ccUkk7Dc.s 			page 11


 425:main_cm4.c    ****             Cy_GPIO_Write(MUX1_0_PORT, MUX1_0_NUM, 1UL);
 426:main_cm4.c    ****             Cy_GPIO_Write(MUX2_0_PORT, MUX2_0_NUM, 0UL);            
 427:main_cm4.c    ****             Cy_GPIO_Write(MUX3_0_PORT, MUX3_0_NUM, 1UL); 
 428:main_cm4.c    ****             break;
 429:main_cm4.c    ****         
 430:main_cm4.c    ****         case 0x0B:        
 431:main_cm4.c    ****             printf("ON Switch:B \r\n");
 432:main_cm4.c    ****             Cy_GPIO_Write(MUX0_0_PORT, MUX0_0_NUM, 1UL);
 433:main_cm4.c    ****             Cy_GPIO_Write(MUX1_0_PORT, MUX1_0_NUM, 1UL);
 434:main_cm4.c    ****             Cy_GPIO_Write(MUX2_0_PORT, MUX2_0_NUM, 0UL);            
 435:main_cm4.c    ****             Cy_GPIO_Write(MUX3_0_PORT, MUX3_0_NUM, 1UL); 
 436:main_cm4.c    ****             break;
 437:main_cm4.c    **** 
 438:main_cm4.c    ****         case 0x0C:        
 439:main_cm4.c    ****             printf("ON Switch:C \r\n");
 440:main_cm4.c    ****             Cy_GPIO_Write(MUX0_0_PORT, MUX0_0_NUM, 0UL);
 441:main_cm4.c    ****             Cy_GPIO_Write(MUX1_0_PORT, MUX1_0_NUM, 0UL);
 442:main_cm4.c    ****             Cy_GPIO_Write(MUX2_0_PORT, MUX2_0_NUM, 1UL);            
 443:main_cm4.c    ****             Cy_GPIO_Write(MUX3_0_PORT, MUX3_0_NUM, 1UL); 
 444:main_cm4.c    ****             break;
 445:main_cm4.c    ****             
 446:main_cm4.c    ****         case 0x0D:        
 447:main_cm4.c    ****             printf("ON Switch:D \r\n");
 448:main_cm4.c    ****             Cy_GPIO_Write(MUX0_0_PORT, MUX0_0_NUM, 1UL);
 449:main_cm4.c    ****             Cy_GPIO_Write(MUX1_0_PORT, MUX1_0_NUM, 0UL);
 450:main_cm4.c    ****             Cy_GPIO_Write(MUX2_0_PORT, MUX2_0_NUM, 1UL);            
 451:main_cm4.c    ****             Cy_GPIO_Write(MUX3_0_PORT, MUX3_0_NUM, 1UL); 
 452:main_cm4.c    ****             break;
 453:main_cm4.c    ****             
 454:main_cm4.c    ****         case 0x0E:        
 455:main_cm4.c    ****             printf("ON Switch:E \r\n");
 456:main_cm4.c    ****             Cy_GPIO_Write(MUX0_0_PORT, MUX0_0_NUM, 0UL);
 457:main_cm4.c    ****             Cy_GPIO_Write(MUX1_0_PORT, MUX1_0_NUM, 1UL);
 458:main_cm4.c    ****             Cy_GPIO_Write(MUX2_0_PORT, MUX2_0_NUM, 1UL);            
 459:main_cm4.c    ****             Cy_GPIO_Write(MUX3_0_PORT, MUX3_0_NUM, 1UL); 
 460:main_cm4.c    ****             break;
 461:main_cm4.c    ****             
 462:main_cm4.c    ****         default:
 463:main_cm4.c    ****             printf("ON Switch:F \r\n");
 464:main_cm4.c    ****             Cy_GPIO_Write(MUX0_0_PORT, MUX0_0_NUM, 1UL);
 465:main_cm4.c    ****             Cy_GPIO_Write(MUX1_0_PORT, MUX1_0_NUM, 1UL);
 466:main_cm4.c    ****             Cy_GPIO_Write(MUX2_0_PORT, MUX2_0_NUM, 1UL);            
 467:main_cm4.c    ****             Cy_GPIO_Write(MUX3_0_PORT, MUX3_0_NUM, 1UL); 
 468:main_cm4.c    ****             break;            
 469:main_cm4.c    ****     }
 470:main_cm4.c    **** }
 471:main_cm4.c    **** 
 472:main_cm4.c    **** /*******************************************************************************
 473:main_cm4.c    **** * Function: writeDisplayOSC
 474:main_cm4.c    **** * Input:    void
 475:main_cm4.c    **** * Return:   void
 476:main_cm4.c    **** * Description:
 477:main_cm4.c    **** *    This function is the BLE write to OSC GATT register
 478:main_cm4.c    **** *******************************************************************************/
 479:main_cm4.c    **** void writeDisplayOSC(void)
 480:main_cm4.c    **** {   
 481:main_cm4.c    ****     printf("OSC Client: %x \r\n", valOSC);
ARM GAS  C:\Users\seeho\AppData\Local\Temp\ccUkk7Dc.s 			page 12


 482:main_cm4.c    ****     /* Empty for now */
 483:main_cm4.c    ****     /* Missing Case switch */
 484:main_cm4.c    **** }
 485:main_cm4.c    **** 
 486:main_cm4.c    **** /*******************************************************************************
 487:main_cm4.c    **** * Function: writeDisplayMISC
 488:main_cm4.c    **** * Input:    void
 489:main_cm4.c    **** * Return:   void
 490:main_cm4.c    **** * Description:
 491:main_cm4.c    **** *    This function is the BLE write to MISC GATT register
 492:main_cm4.c    **** *******************************************************************************/
 493:main_cm4.c    **** 
 494:main_cm4.c    **** void writeDisplayMISC(void)
 495:main_cm4.c    **** {   
 496:main_cm4.c    ****     printf("MISC GATT Client: %x \r\n", valMISC);
 497:main_cm4.c    ****     /* Empty for now */
 498:main_cm4.c    ****     /* Missing Case switch */
 499:main_cm4.c    **** }
 500:main_cm4.c    **** 
 501:main_cm4.c    **** /*******************************************************************************
 502:main_cm4.c    **** * Function: genericEventHandler
 503:main_cm4.c    **** * Input:    CY_BLE Event Handler event and eventParameter
 504:main_cm4.c    **** * Return:   void
 505:main_cm4.c    **** * Description:
 506:main_cm4.c    **** *    This function is the BLE event handler function. It's called by the BLE
 507:main_cm4.c    **** *    stack when and event occures
 508:main_cm4.c    **** *******************************************************************************/
 509:main_cm4.c    **** 
 510:main_cm4.c    **** void genericEventHandler(uint32_t event, void *eventParameter)
 511:main_cm4.c    **** {
 512:main_cm4.c    ****     cy_stc_ble_gatts_write_cmd_req_param_t *writeReqParameter;
 513:main_cm4.c    ****     uint8 i;
 514:main_cm4.c    ****     
 515:main_cm4.c    ****     switch (event)
 516:main_cm4.c    **** 	{
 517:main_cm4.c    ****         /* There are some events generated by the BLE component
 518:main_cm4.c    ****         *  that are not required for this code example.
 519:main_cm4.c    ****         *  Don't edit them as they might be relevant later on
 520:main_cm4.c    ****         */
 521:main_cm4.c    ****         
 522:main_cm4.c    ****         /**********************************************************
 523:main_cm4.c    ****         *                       General Events
 524:main_cm4.c    ****         ***********************************************************/
 525:main_cm4.c    **** 		/* This event is received when the BLE stack is started */
 526:main_cm4.c    ****         case CY_BLE_EVT_STACK_ON:       
 527:main_cm4.c    ****             printf("CY_BLE_EVT_STACK_ON: \r\n"); 
 528:main_cm4.c    ****             
 529:main_cm4.c    ****         case CY_BLE_EVT_GAP_DEVICE_DISCONNECTED:
 530:main_cm4.c    ****             PWM_BLINK_Start();
 531:main_cm4.c    ****             Cy_BLE_GAPP_StartAdvertisement(CY_BLE_ADVERTISING_FAST, CY_BLE_PERIPHERAL_CONFIGURATION
 532:main_cm4.c    ****             Cy_TCPWM_TriggerReloadOrIndex(PWM_DIM_HW,PWM_DIM_CNT_NUM);
 533:main_cm4.c    ****             Cy_TCPWM_PWM_Disable(PWM_DIM_HW,PWM_DIM_CNT_NUM); 
 534:main_cm4.c    ****             printf("Start Advertising: \r\n");
 535:main_cm4.c    ****             printf("RED_LED is blinking till paired: \r\n");
 536:main_cm4.c    ****             break;
 537:main_cm4.c    ****             
 538:main_cm4.c    ****         /* This event is received when there is a timeout */
ARM GAS  C:\Users\seeho\AppData\Local\Temp\ccUkk7Dc.s 			page 13


 539:main_cm4.c    ****         case CY_BLE_EVT_TIMEOUT:
 540:main_cm4.c    ****             printf("CY_BLE_EVT_TIMEOUT \r\n"); 
 541:main_cm4.c    ****             break;
 542:main_cm4.c    ****             
 543:main_cm4.c    ****         /* This event indicates that some internal HW error has occurred */    
 544:main_cm4.c    **** 		case CY_BLE_EVT_HARDWARE_ERROR: 
 545:main_cm4.c    ****             printf("CY_BLE_EVT_HARDWARE_ERROR \r\n");
 546:main_cm4.c    **** 			break;
 547:main_cm4.c    ****             
 548:main_cm4.c    ****         /*  This event will be triggered by host stack if BLE stack is busy or 
 549:main_cm4.c    ****          *  not busy. Parameter corresponding to this event will be the state 
 550:main_cm4.c    ****     	 *  of BLE stack.
 551:main_cm4.c    ****          *  BLE stack busy = CYBLE_STACK_STATE_BUSY,
 552:main_cm4.c    ****     	 *  BLE stack not busy = CYBLE_STACK_STATE_FREE 
 553:main_cm4.c    ****          */
 554:main_cm4.c    ****     	case CY_BLE_EVT_STACK_BUSY_STATUS:
 555:main_cm4.c    ****             printf("CY_BLE_EVT_STACK_BUSY_STATUS: %x\r\n", *(uint8 *)eventParameter);
 556:main_cm4.c    ****             break;
 557:main_cm4.c    ****             
 558:main_cm4.c    ****         /* This event indicates set device address command completed */
 559:main_cm4.c    ****         case CY_BLE_EVT_SET_DEVICE_ADDR_COMPLETE:
 560:main_cm4.c    ****             printf("CY_BLE_EVT_SET_DEVICE_ADDR_COMPLETE \r\n");
 561:main_cm4.c    ****             break;
 562:main_cm4.c    ****             
 563:main_cm4.c    ****         /* This event indicates get device address command completed
 564:main_cm4.c    ****            successfully */
 565:main_cm4.c    ****         case CY_BLE_EVT_GET_DEVICE_ADDR_COMPLETE:
 566:main_cm4.c    ****             printf("CY_BLE_EVT_GET_DEVICE_ADDR_COMPLETE: ");
 567:main_cm4.c    ****             for(i = CY_BLE_GAP_BD_ADDR_SIZE; i > 0u; i--)
 568:main_cm4.c    ****             {
 569:main_cm4.c    ****                 /* Public Bluetooth device address of size 6 bytes in little endian format. */
 570:main_cm4.c    ****                 printf("%2.2x", ((cy_stc_ble_bd_addrs_t *)((cy_stc_ble_events_param_generic_t *)eve
 571:main_cm4.c    ****                 
 572:main_cm4.c    ****                 /* Private Bluetooth device address of size 6 bytes in little endian format. */
 573:main_cm4.c    ****                 printf("%2.2x", ((cy_stc_ble_bd_addrs_t *)((cy_stc_ble_events_param_generic_t *)eve
 574:main_cm4.c    ****             }
 575:main_cm4.c    ****             printf("\r\n");          
 576:main_cm4.c    ****             break;
 577:main_cm4.c    ****          
 578:main_cm4.c    ****         /* This event indicates set Tx Power command completed */
 579:main_cm4.c    ****         case CY_BLE_EVT_SET_TX_PWR_COMPLETE:
 580:main_cm4.c    ****             printf("CY_BLE_EVT_SET_TX_PWR_COMPLETE \r\n");
 581:main_cm4.c    ****             break;
 582:main_cm4.c    ****                         
 583:main_cm4.c    ****         /**********************************************************
 584:main_cm4.c    ****         *                       GAP Events
 585:main_cm4.c    ****         ***********************************************************/
 586:main_cm4.c    ****        
 587:main_cm4.c    ****         /* This event indicates peripheral device has started/stopped
 588:main_cm4.c    ****            advertising */
 589:main_cm4.c    ****         case CY_BLE_EVT_GAPP_ADVERTISEMENT_START_STOP:
 590:main_cm4.c    ****             printf("CY_BLE_EVT_GAPP_ADVERTISEMENT_START_STOP: ");
 591:main_cm4.c    ****             break;
 592:main_cm4.c    ****             
 593:main_cm4.c    ****         /* This event is generated at the GAP Peripheral end after connection 
 594:main_cm4.c    ****            is completed with peer Central device */
 595:main_cm4.c    ****         case CY_BLE_EVT_GAP_DEVICE_CONNECTED:
ARM GAS  C:\Users\seeho\AppData\Local\Temp\ccUkk7Dc.s 			page 14


 596:main_cm4.c    ****             printf("CY_BLE_EVT_GAP_DEVICE_CONNECTED \r\n");
 597:main_cm4.c    ****             break;
 598:main_cm4.c    ****         
 599:main_cm4.c    ****         /* This event is generated at the GAP Central and the peripheral end 
 600:main_cm4.c    ****            after connection parameter update is requested from the host to 
 601:main_cm4.c    ****            the controller */
 602:main_cm4.c    ****         case CY_BLE_EVT_GAP_CONNECTION_UPDATE_COMPLETE:
 603:main_cm4.c    ****             printf("CY_BLE_EVT_GAP_CONNECTION_UPDATE_COMPLETE \r\n");
 604:main_cm4.c    ****             break;
 605:main_cm4.c    ****                      
 606:main_cm4.c    ****         /**********************************************************
 607:main_cm4.c    ****         *                       GATT Events
 608:main_cm4.c    ****         ***********************************************************/
 609:main_cm4.c    ****             
 610:main_cm4.c    ****         /* This event is generated at the GAP Peripheral end after connection 
 611:main_cm4.c    ****            is completed with peer Central device */
 612:main_cm4.c    ****        case CY_BLE_EVT_GATT_CONNECT_IND:
 613:main_cm4.c    ****             printf("CY_BLE_EVT_GATT_CONNECT_IND: %x, %x \r\n", 
 614:main_cm4.c    ****                         (*(cy_stc_ble_conn_handle_t *)eventParameter).attId, 
 615:main_cm4.c    ****                         (*(cy_stc_ble_conn_handle_t *)eventParameter).bdHandle);
 616:main_cm4.c    ****              printf("Active Connection Instance: %x \r\n", 
 617:main_cm4.c    ****                         (*(cy_stc_ble_conn_handle_t *)eventParameter).attId);
 618:main_cm4.c    ****             
 619:main_cm4.c    ****             /* Stop blinking LED: Client->Server connection is 'ON' */
 620:main_cm4.c    ****             Cy_TCPWM_TriggerReloadOrIndex(PWM_BLINK_HW,PWM_BLINK_CNT_NUM);
 621:main_cm4.c    ****             Cy_TCPWM_PWM_Disable(PWM_BLINK_HW,PWM_BLINK_CNT_NUM);
 622:main_cm4.c    ****             
 623:main_cm4.c    ****             /* Start dimming LED with default compare */ 
 624:main_cm4.c    ****             PWM_DIM_Start();        
 625:main_cm4.c    ****             break;
 626:main_cm4.c    ****             
 627:main_cm4.c    ****         /* This event is generated at the GAP Peripheral end after 
 628:main_cm4.c    ****            disconnection */
 629:main_cm4.c    ****         case CY_BLE_EVT_GATT_DISCONNECT_IND:
 630:main_cm4.c    ****             printf("CY_BLE_EVT_GATT_DISCONNECT_IND \r\n");
 631:main_cm4.c    ****             break;
 632:main_cm4.c    ****             
 633:main_cm4.c    ****         /*********************************************************************************
 634:main_cm4.c    ****          * This event is generated when the phone side send a write request
 635:main_cm4.c    ****          * Probe which GATT service/characteristic is called
 636:main_cm4.c    ****          *********************************************************************************/
 637:main_cm4.c    ****         case CY_BLE_EVT_GATTS_WRITE_REQ:
 638:main_cm4.c    ****             
 639:main_cm4.c    ****             printf("CY_BLE_EVT_GATTS_WRITE_REQ\r\n");
 640:main_cm4.c    ****             writeReqParameter = (cy_stc_ble_gatts_write_cmd_req_param_t *)eventParameter; 
 641:main_cm4.c    ****             
 642:main_cm4.c    ****             if(CY_BLE_LED_GREEN_CHAR_HANDLE == writeReqParameter->handleValPair.attrHandle)
 643:main_cm4.c    ****             {
 644:main_cm4.c    ****                 /*************************************************************************/
 645:main_cm4.c    ****                 /*        Read the handle and value
 646:main_cm4.c    ****                  *
 647:main_cm4.c    ****                  *        Attribute Value    
 648:main_cm4.c    ****                  *           cy_stc_ble_gatt_value_t              value;
 649:main_cm4.c    ****                  *
 650:main_cm4.c    ****                  *        Attribute Handle of GATT DB
 651:main_cm4.c    ****                  *           cy_ble_gatt_db_attr_handle_t         attrHandle;               
 652:main_cm4.c    ****                 *************************************************************************/
ARM GAS  C:\Users\seeho\AppData\Local\Temp\ccUkk7Dc.s 			page 15


 653:main_cm4.c    ****                 if( xSemaphoreTake( bleSemaphoreval, (TickType_t ) 10 ) == pdTRUE)
 654:main_cm4.c    ****                 {
 655:main_cm4.c    ****                     val = writeReqParameter->handleValPair.value.val[0];
 656:main_cm4.c    ****                     if(val>100) val = 100;
 657:main_cm4.c    ****                     
 658:main_cm4.c    ****                     xSemaphoreGive(bleSemaphoreval);               
 659:main_cm4.c    ****                 }
 660:main_cm4.c    ****                 else
 661:main_cm4.c    ****                 {
 662:main_cm4.c    ****                     /* We could not obtain the semaphore and can therefore not access
 663:main_cm4.c    ****                     the shared resource safely. */   
 664:main_cm4.c    ****                     printf("bleSemaphoreval error\r\n");
 665:main_cm4.c    ****                 }               
 666:main_cm4.c    ****                 
 667:main_cm4.c    ****                 Cy_TCPWM_PWM_SetCompare0(PWM_DIM_HW,PWM_DIM_CNT_NUM, val);
 668:main_cm4.c    ****                 
 669:main_cm4.c    ****             /* printf function call */
 670:main_cm4.c    ****             xSemaphoreTake( bleSemaphoreval, (TickType_t ) 10 );
 671:main_cm4.c    ****             writeDisplayEventHandler();
 672:main_cm4.c    ****             }
 673:main_cm4.c    ****             
 674:main_cm4.c    ****             //Cy_BLE_GATTS_WriteRsp(writeReqParameter->connHandle);
 675:main_cm4.c    ****             /* printf function call */
 676:main_cm4.c    ****             //xSemaphoreTake( bleSemaphoreval, (TickType_t ) 10 );
 677:main_cm4.c    ****             //writeDisplayEventHandler();
 678:main_cm4.c    ****             
 679:main_cm4.c    ****             /*************************************************************************
 680:main_cm4.c    ****              *        WRITE to the 'PA' Characteristic
 681:main_cm4.c    ****              *
 682:main_cm4.c    ****              *        Do nothing, just printf() for now                
 683:main_cm4.c    ****              *************************************************************************/
 684:main_cm4.c    ****             if(CY_BLE_LED_PA_CHAR_HANDLE == writeReqParameter->handleValPair.attrHandle)
 685:main_cm4.c    ****             {
 686:main_cm4.c    ****                 valPA = writeReqParameter->handleValPair.value.val[0];
 687:main_cm4.c    ****                 writeDisplayPA(); /* Actual function for future use */    
 688:main_cm4.c    ****             }
 689:main_cm4.c    ****             
 690:main_cm4.c    ****             /*************************************************************************
 691:main_cm4.c    ****              *        WRITE to the 'MUX' Characteristic
 692:main_cm4.c    ****              *
 693:main_cm4.c    ****              *        Do nothing, just printf() for now                
 694:main_cm4.c    ****              *************************************************************************/
 695:main_cm4.c    ****             if(CY_BLE_LED_MUX_CHAR_HANDLE == writeReqParameter->handleValPair.attrHandle)
 696:main_cm4.c    ****             {
 697:main_cm4.c    ****                 valMUX = writeReqParameter->handleValPair.value.val[0];
 698:main_cm4.c    ****                 writeDisplayMUX(); /* Actual function for future use */  
 699:main_cm4.c    ****             }
 700:main_cm4.c    ****             
 701:main_cm4.c    ****             /*************************************************************************
 702:main_cm4.c    ****              *        WRITE to the 'OSC' Characteristic
 703:main_cm4.c    ****              *
 704:main_cm4.c    ****              *        Do nothing, just printf() for now                
 705:main_cm4.c    ****              *************************************************************************/
 706:main_cm4.c    ****             if(CY_BLE_LED_OSC_CHAR_HANDLE == writeReqParameter->handleValPair.attrHandle)
 707:main_cm4.c    ****             {
 708:main_cm4.c    ****                 valOSC = writeReqParameter->handleValPair.value.val[0];
 709:main_cm4.c    ****                 writeDisplayOSC(); /* Actual function for future use */  
ARM GAS  C:\Users\seeho\AppData\Local\Temp\ccUkk7Dc.s 			page 16


 710:main_cm4.c    ****             }
 711:main_cm4.c    ****             
 712:main_cm4.c    ****             /*************************************************************************
 713:main_cm4.c    ****              *        WRITE to the 'MISC' Characteristic
 714:main_cm4.c    ****              *
 715:main_cm4.c    ****              *        Do nothing, just printf() for now                
 716:main_cm4.c    ****              *************************************************************************/
 717:main_cm4.c    ****             if(CY_BLE_LED_MISC_CHAR_HANDLE == writeReqParameter->handleValPair.attrHandle)
 718:main_cm4.c    ****             {
 719:main_cm4.c    ****                 valMISC = writeReqParameter->handleValPair.value.val[0];
 720:main_cm4.c    ****                 writeDisplayMISC(); /* Actual function for future use */   
 721:main_cm4.c    ****             }  
 722:main_cm4.c    ****             
 723:main_cm4.c    ****             /**************************************************************************
 724:main_cm4.c    ****             * Since this is the GATT service with WRITE + response..the end of that call
 725:main_cm4.c    ****             ***************************************************************************/
 726:main_cm4.c    ****             Cy_BLE_GATTS_WriteRsp(writeReqParameter->connHandle);     
 727:main_cm4.c    ****             break;
 728:main_cm4.c    ****          
 729:main_cm4.c    ****         /* This event is triggered when 'GATT MTU Exchange Request' 
 730:main_cm4.c    ****            received from GATT client device */
 731:main_cm4.c    ****         case CY_BLE_EVT_GATTS_XCNHG_MTU_REQ:
 732:main_cm4.c    ****             printf("CY_BLE_EVT_GATTS_XCNHG_MTU_REQ \r\n");
 733:main_cm4.c    ****             break;
 734:main_cm4.c    ****         
 735:main_cm4.c    ****         /* This event is triggered when a read received from GATT 
 736:main_cm4.c    ****            client device */
 737:main_cm4.c    ****         case CY_BLE_EVT_GATTS_READ_CHAR_VAL_ACCESS_REQ:
 738:main_cm4.c    ****             printf("CY_BLE_EVT_GATTS_READ_CHAR_VAL_ACCESS_REQ \r\n");
 739:main_cm4.c    ****             break;
 740:main_cm4.c    **** 
 741:main_cm4.c    ****         /**********************************************************
 742:main_cm4.c    ****         *                       Other Events
 743:main_cm4.c    ****         ***********************************************************/
 744:main_cm4.c    ****         default:
 745:main_cm4.c    ****             printf("Other event: %lx \r\n", (unsigned long) event);
 746:main_cm4.c    **** 			break;
 747:main_cm4.c    **** 	}
 748:main_cm4.c    **** }
 749:main_cm4.c    **** 
 750:main_cm4.c    **** /*****************************************************************************\
 751:main_cm4.c    ****  * Function:    bleInterruptNotify
 752:main_cm4.c    ****  * Input:       void (it is called inside of the ISR)
 753:main_cm4.c    ****  * Returns:     void
 754:main_cm4.c    ****  * Description: 
 755:main_cm4.c    ****  *   This is called back in the BLE ISR when an event has occured and needs to
 756:main_cm4.c    ****  *   be processed.  It will then set/give the sempahore to tell the BLE task to
 757:main_cm4.c    ****  *   process events.
 758:main_cm4.c    **** \*****************************************************************************/
 759:main_cm4.c    **** void bleInterruptNotify()
 760:main_cm4.c    **** {
 147              		.loc 1 760 0
 148              		.cfi_startproc
 149              		@ args = 0, pretend = 0, frame = 8
 150              		@ frame_needed = 0, uses_anonymous_args = 0
 151 0000 00B5     		push	{lr}
 152              		.cfi_def_cfa_offset 4
ARM GAS  C:\Users\seeho\AppData\Local\Temp\ccUkk7Dc.s 			page 17


 153              		.cfi_offset 14, -4
 154 0002 83B0     		sub	sp, sp, #12
 155              		.cfi_def_cfa_offset 16
 761:main_cm4.c    ****     BaseType_t xHigherPriorityTaskWoken;
 762:main_cm4.c    ****     xHigherPriorityTaskWoken = pdFALSE;
 156              		.loc 1 762 0
 157 0004 02A9     		add	r1, sp, #8
 158 0006 0023     		movs	r3, #0
 159 0008 41F8043D 		str	r3, [r1, #-4]!
 763:main_cm4.c    ****     xSemaphoreGiveFromISR(bleSemaphore, &xHigherPriorityTaskWoken); 
 160              		.loc 1 763 0
 161 000c 084B     		ldr	r3, .L10
 162 000e 1868     		ldr	r0, [r3]
 163 0010 FFF7FEFF 		bl	xQueueGiveFromISR
 164              	.LVL19:
 764:main_cm4.c    ****     portYIELD_FROM_ISR( xHigherPriorityTaskWoken );
 165              		.loc 1 764 0
 166 0014 019B     		ldr	r3, [sp, #4]
 167 0016 3BB1     		cbz	r3, .L7
 168              		.loc 1 764 0 is_stmt 0 discriminator 1
 169 0018 4FF08052 		mov	r2, #268435456
 170 001c 054B     		ldr	r3, .L10+4
 171 001e 1A60     		str	r2, [r3]
 172              		.syntax unified
 173              	@ 764 "main_cm4.c" 1
 174 0020 BFF34F8F 		dsb
 175              	@ 0 "" 2
 176              	@ 764 "main_cm4.c" 1
 177 0024 BFF36F8F 		isb
 178              	@ 0 "" 2
 179              		.thumb
 180              		.syntax unified
 181              	.L7:
 765:main_cm4.c    **** }
 182              		.loc 1 765 0 is_stmt 1
 183 0028 03B0     		add	sp, sp, #12
 184              		.cfi_def_cfa_offset 4
 185              		@ sp needed
 186 002a 5DF804FB 		ldr	pc, [sp], #4
 187              	.L11:
 188 002e 00BF     		.align	2
 189              	.L10:
 190 0030 00000000 		.word	bleSemaphore
 191 0034 04ED00E0 		.word	-536810236
 192              		.cfi_endproc
 193              	.LFE648:
 194              		.size	bleInterruptNotify, .-bleInterruptNotify
 195              		.section	.text.bleTask,"ax",%progbits
 196              		.align	2
 197              		.global	bleTask
 198              		.thumb
 199              		.thumb_func
 200              		.type	bleTask, %function
 201              	bleTask:
 202              	.LFB649:
 766:main_cm4.c    **** 
 767:main_cm4.c    **** /*****************************************************************************\
ARM GAS  C:\Users\seeho\AppData\Local\Temp\ccUkk7Dc.s 			page 18


 768:main_cm4.c    ****  * Function:    bleTask
 769:main_cm4.c    ****  * Input:       A FreeRTOS Task - void * that is unused
 770:main_cm4.c    ****  * Returns:     void
 771:main_cm4.c    ****  * Description: 
 772:main_cm4.c    ****  *  This task starts the BLE stack... and processes events when the bleSempahore
 773:main_cm4.c    ****  *  is set by the ISR.
 774:main_cm4.c    **** \*****************************************************************************/
 775:main_cm4.c    **** void bleTask(void *arg)
 776:main_cm4.c    **** {
 203              		.loc 1 776 0
 204              		.cfi_startproc
 205              		@ Volatile: function does not return.
 206              		@ args = 0, pretend = 0, frame = 0
 207              		@ frame_needed = 0, uses_anonymous_args = 0
 208              	.LVL20:
 209 0000 08B5     		push	{r3, lr}
 210              		.cfi_def_cfa_offset 8
 211              		.cfi_offset 3, -8
 212              		.cfi_offset 14, -4
 777:main_cm4.c    ****     (void)arg;
 778:main_cm4.c    ****     
 779:main_cm4.c    ****     printf("BLE Task Started\r\n");
 213              		.loc 1 779 0
 214 0002 1848     		ldr	r0, .L19
 215              	.LVL21:
 216 0004 FFF7FEFF 		bl	puts
 217              	.LVL22:
 780:main_cm4.c    ****     
 781:main_cm4.c    ****     /******************************************************************
 782:main_cm4.c    ****     * Create a counting semaphore that has a maximum count of 10 and an
 783:main_cm4.c    ****     initial count of 0. 
 784:main_cm4.c    ****     *******************************************************************/
 785:main_cm4.c    ****     /*                                      max     ,intial           */
 786:main_cm4.c    ****     bleSemaphore = xSemaphoreCreateCounting(UINT_MAX,0);
 218              		.loc 1 786 0
 219 0008 0021     		movs	r1, #0
 220 000a 4FF0FF30 		mov	r0, #-1
 221 000e FFF7FEFF 		bl	xQueueCreateCountingSemaphore
 222              	.LVL23:
 223 0012 154C     		ldr	r4, .L19+4
 224 0014 2060     		str	r0, [r4]
 787:main_cm4.c    ****     
 788:main_cm4.c    ****     /* Simple semaphore for the 'val' printf */
 789:main_cm4.c    ****     bleSemaphoreval = xSemaphoreCreateMutex();
 225              		.loc 1 789 0
 226 0016 0120     		movs	r0, #1
 227 0018 FFF7FEFF 		bl	xQueueCreateMutex
 228              	.LVL24:
 229 001c 134B     		ldr	r3, .L19+8
 230 001e 1860     		str	r0, [r3]
 790:main_cm4.c    ****     
 791:main_cm4.c    ****     /* The semaphore was created successfully. */
 792:main_cm4.c    ****     if(bleSemaphore != NULL) {
 231              		.loc 1 792 0
 232 0020 2368     		ldr	r3, [r4]
 233 0022 13B1     		cbz	r3, .L13
 793:main_cm4.c    ****         printf("'bleSemaphore' was created successfully \r\n");      
ARM GAS  C:\Users\seeho\AppData\Local\Temp\ccUkk7Dc.s 			page 19


 234              		.loc 1 793 0
 235 0024 1248     		ldr	r0, .L19+12
 236 0026 FFF7FEFF 		bl	puts
 237              	.LVL25:
 238              	.L13:
 794:main_cm4.c    ****     }
 795:main_cm4.c    ****     
 796:main_cm4.c    ****     /* The val printf semaphore was created successfully. */
 797:main_cm4.c    ****     if(bleSemaphoreval != NULL) {
 239              		.loc 1 797 0
 240 002a 104B     		ldr	r3, .L19+8
 241 002c 1B68     		ldr	r3, [r3]
 242 002e 13B1     		cbz	r3, .L14
 798:main_cm4.c    ****         printf("'bleSemaphoreval' was created successfully \r\n");      
 243              		.loc 1 798 0
 244 0030 1048     		ldr	r0, .L19+16
 245 0032 FFF7FEFF 		bl	puts
 246              	.LVL26:
 247              	.L14:
 799:main_cm4.c    ****     }
 800:main_cm4.c    ****     
 801:main_cm4.c    ****     
 802:main_cm4.c    ****     Cy_BLE_Start(genericEventHandler);
 248              		.loc 1 802 0
 249 0036 1048     		ldr	r0, .L19+20
 250 0038 FFF7FEFF 		bl	Cy_BLE_Start
 251              	.LVL27:
 803:main_cm4.c    ****     
 804:main_cm4.c    ****     while (Cy_BLE_GetState() != CY_BLE_STATE_ON)
 252              		.loc 1 804 0
 253 003c 01E0     		b	.L15
 254              	.L16:
 805:main_cm4.c    ****     {
 806:main_cm4.c    ****         Cy_BLE_ProcessEvents();    
 255              		.loc 1 806 0
 256 003e FFF7FEFF 		bl	Cy_BLE_ProcessEvents
 257              	.LVL28:
 258              	.L15:
 804:main_cm4.c    ****     {
 259              		.loc 1 804 0
 260 0042 0E4B     		ldr	r3, .L19+24
 261 0044 1B78     		ldrb	r3, [r3]	@ zero_extendqisi2
 262 0046 022B     		cmp	r3, #2
 263 0048 F9D1     		bne	.L16
 807:main_cm4.c    ****     }
 808:main_cm4.c    ****     
 809:main_cm4.c    ****     Cy_BLE_RegisterAppHostCallback(bleInterruptNotify);
 264              		.loc 1 809 0
 265 004a 0D48     		ldr	r0, .L19+28
 266 004c FFF7FEFF 		bl	Cy_BLE_RegisterAppHostCallback
 267              	.LVL29:
 268              	.L17:
 810:main_cm4.c    ****     
 811:main_cm4.c    ****     for(;;)
 812:main_cm4.c    ****     {
 813:main_cm4.c    ****         xSemaphoreTake(bleSemaphore, portMAX_DELAY);
 269              		.loc 1 813 0 discriminator 1
ARM GAS  C:\Users\seeho\AppData\Local\Temp\ccUkk7Dc.s 			page 20


 270 0050 4FF0FF31 		mov	r1, #-1
 271 0054 044B     		ldr	r3, .L19+4
 272 0056 1868     		ldr	r0, [r3]
 273 0058 FFF7FEFF 		bl	xQueueSemaphoreTake
 274              	.LVL30:
 814:main_cm4.c    ****         Cy_BLE_ProcessEvents();   
 275              		.loc 1 814 0 discriminator 1
 276 005c FFF7FEFF 		bl	Cy_BLE_ProcessEvents
 277              	.LVL31:
 278 0060 F6E7     		b	.L17
 279              	.L20:
 280 0062 00BF     		.align	2
 281              	.L19:
 282 0064 58000000 		.word	.LC3
 283 0068 00000000 		.word	bleSemaphore
 284 006c 00000000 		.word	bleSemaphoreval
 285 0070 6C000000 		.word	.LC4
 286 0074 98000000 		.word	.LC5
 287 0078 00000000 		.word	genericEventHandler
 288 007c 00000000 		.word	cy_ble_state
 289 0080 00000000 		.word	bleInterruptNotify
 290              		.cfi_endproc
 291              	.LFE649:
 292              		.size	bleTask, .-bleTask
 293              		.section	.text.CreateTimer_1,"ax",%progbits
 294              		.align	2
 295              		.global	CreateTimer_1
 296              		.thumb
 297              		.thumb_func
 298              		.type	CreateTimer_1, %function
 299              	CreateTimer_1:
 300              	.LFB640:
 112:main_cm4.c    **** printf("Creating one RTOS timer \r\n");
 301              		.loc 1 112 0
 302              		.cfi_startproc
 303              		@ args = 0, pretend = 0, frame = 0
 304              		@ frame_needed = 0, uses_anonymous_args = 0
 305 0000 10B5     		push	{r4, lr}
 306              		.cfi_def_cfa_offset 8
 307              		.cfi_offset 4, -8
 308              		.cfi_offset 14, -4
 309 0002 82B0     		sub	sp, sp, #8
 310              		.cfi_def_cfa_offset 16
 113:main_cm4.c    **** 
 311              		.loc 1 113 0
 312 0004 1148     		ldr	r0, .L25
 313 0006 FFF7FEFF 		bl	puts
 314              	.LVL32:
 115:main_cm4.c    ****    ( /* Just a text name, not used by the RTOS
 315              		.loc 1 115 0
 316 000a 114B     		ldr	r3, .L25+4
 317 000c 0093     		str	r3, [sp]
 318 000e 0023     		movs	r3, #0
 319 0010 0122     		movs	r2, #1
 320 0012 6421     		movs	r1, #100
 321 0014 0F48     		ldr	r0, .L25+8
 322 0016 FFF7FEFF 		bl	xTimerCreate
ARM GAS  C:\Users\seeho\AppData\Local\Temp\ccUkk7Dc.s 			page 21


 323              	.LVL33:
 324 001a 0F4B     		ldr	r3, .L25+12
 325 001c 1860     		str	r0, [r3]
 132:main_cm4.c    ****      {
 326              		.loc 1 132 0
 327 001e 18B9     		cbnz	r0, .L22
 134:main_cm4.c    ****      }
 328              		.loc 1 134 0
 329 0020 0E48     		ldr	r0, .L25+16
 330 0022 FFF7FEFF 		bl	puts
 331              	.LVL34:
 332 0026 0EE0     		b	.L21
 333              	.L22:
 334 0028 0446     		mov	r4, r0
 140:main_cm4.c    ****  {
 335              		.loc 1 140 0
 336 002a FFF7FEFF 		bl	xTaskGetTickCount
 337              	.LVL35:
 338 002e 0023     		movs	r3, #0
 339 0030 0093     		str	r3, [sp]
 340 0032 0246     		mov	r2, r0
 341 0034 0121     		movs	r1, #1
 342 0036 2046     		mov	r0, r4
 343 0038 FFF7FEFF 		bl	xTimerGenericCommand
 344              	.LVL36:
 345 003c 0128     		cmp	r0, #1
 346 003e 02D0     		beq	.L21
 142:main_cm4.c    ****  }
 347              		.loc 1 142 0
 348 0040 0748     		ldr	r0, .L25+20
 349 0042 FFF7FEFF 		bl	puts
 350              	.LVL37:
 351              	.L21:
 145:main_cm4.c    **** 
 352              		.loc 1 145 0
 353 0046 02B0     		add	sp, sp, #8
 354              		.cfi_def_cfa_offset 8
 355              		@ sp needed
 356 0048 10BD     		pop	{r4, pc}
 357              	.L26:
 358 004a 00BF     		.align	2
 359              	.L25:
 360 004c C8000000 		.word	.LC6
 361 0050 00000000 		.word	vTimerCallback
 362 0054 E4000000 		.word	.LC7
 363 0058 00000000 		.word	xtimer
 364 005c EC000000 		.word	.LC8
 365 0060 08010000 		.word	.LC9
 366              		.cfi_endproc
 367              	.LFE640:
 368              		.size	CreateTimer_1, .-CreateTimer_1
 369              		.section	.text.writeDisplayEventHandler,"ax",%progbits
 370              		.align	2
 371              		.global	writeDisplayEventHandler
 372              		.thumb
 373              		.thumb_func
 374              		.type	writeDisplayEventHandler, %function
ARM GAS  C:\Users\seeho\AppData\Local\Temp\ccUkk7Dc.s 			page 22


 375              	writeDisplayEventHandler:
 376              	.LFB641:
 156:main_cm4.c    ****     printf("'Semaphored' HEX Value received for the GATT Client: %x \r\n", val);
 377              		.loc 1 156 0
 378              		.cfi_startproc
 379              		@ args = 0, pretend = 0, frame = 0
 380              		@ frame_needed = 0, uses_anonymous_args = 0
 381 0000 08B5     		push	{r3, lr}
 382              		.cfi_def_cfa_offset 8
 383              		.cfi_offset 3, -8
 384              		.cfi_offset 14, -4
 157:main_cm4.c    ****     xSemaphoreGive(bleSemaphoreval);
 385              		.loc 1 157 0
 386 0002 064B     		ldr	r3, .L29
 387 0004 5968     		ldr	r1, [r3, #4]
 388 0006 0648     		ldr	r0, .L29+4
 389 0008 FFF7FEFF 		bl	printf
 390              	.LVL38:
 158:main_cm4.c    **** } 
 391              		.loc 1 158 0
 392 000c 0023     		movs	r3, #0
 393 000e 1A46     		mov	r2, r3
 394 0010 1946     		mov	r1, r3
 395 0012 0448     		ldr	r0, .L29+8
 396 0014 0068     		ldr	r0, [r0]
 397 0016 FFF7FEFF 		bl	xQueueGenericSend
 398              	.LVL39:
 399 001a 08BD     		pop	{r3, pc}
 400              	.L30:
 401              		.align	2
 402              	.L29:
 403 001c 00000000 		.word	.LANCHOR0
 404 0020 3C010000 		.word	.LC10
 405 0024 00000000 		.word	bleSemaphoreval
 406              		.cfi_endproc
 407              	.LFE641:
 408              		.size	writeDisplayEventHandler, .-writeDisplayEventHandler
 409              		.section	.text.GPIOInit_1,"ax",%progbits
 410              		.align	2
 411              		.global	GPIOInit_1
 412              		.thumb
 413              		.thumb_func
 414              		.type	GPIOInit_1, %function
 415              	GPIOInit_1:
 416              	.LFB642:
 170:main_cm4.c    ****     /* PA */
 417              		.loc 1 170 0
 418              		.cfi_startproc
 419              		@ args = 0, pretend = 0, frame = 0
 420              		@ frame_needed = 0, uses_anonymous_args = 0
 421 0000 38B5     		push	{r3, r4, r5, lr}
 422              		.cfi_def_cfa_offset 16
 423              		.cfi_offset 3, -16
 424              		.cfi_offset 4, -12
 425              		.cfi_offset 5, -8
 426              		.cfi_offset 14, -4
 172:main_cm4.c    ****     Cy_GPIO_Pin_Init(PA1_0_PORT, PA1_0_NUM, 0UL);
ARM GAS  C:\Users\seeho\AppData\Local\Temp\ccUkk7Dc.s 			page 23


 427              		.loc 1 172 0
 428 0002 2C4C     		ldr	r4, .L33
 429 0004 0022     		movs	r2, #0
 430 0006 0321     		movs	r1, #3
 431 0008 2046     		mov	r0, r4
 432 000a FFF7FEFF 		bl	Cy_GPIO_Pin_Init
 433              	.LVL40:
 173:main_cm4.c    ****     Cy_GPIO_Pin_Init(PA2_0_PORT, PA2_0_NUM, 0UL);
 434              		.loc 1 173 0
 435 000e 0022     		movs	r2, #0
 436 0010 0221     		movs	r1, #2
 437 0012 2046     		mov	r0, r4
 438 0014 FFF7FEFF 		bl	Cy_GPIO_Pin_Init
 439              	.LVL41:
 174:main_cm4.c    ****     Cy_GPIO_Pin_Init(PA3_0_PORT, PA3_0_NUM, 0UL);
 440              		.loc 1 174 0
 441 0018 0022     		movs	r2, #0
 442 001a 0121     		movs	r1, #1
 443 001c 2046     		mov	r0, r4
 444 001e FFF7FEFF 		bl	Cy_GPIO_Pin_Init
 445              	.LVL42:
 175:main_cm4.c    ****     
 446              		.loc 1 175 0
 447 0022 0022     		movs	r2, #0
 448 0024 1146     		mov	r1, r2
 449 0026 2046     		mov	r0, r4
 450 0028 FFF7FEFF 		bl	Cy_GPIO_Pin_Init
 451              	.LVL43:
 178:main_cm4.c    ****     Cy_GPIO_Pin_Init(MUX1_0_PORT, MUX1_0_NUM, 0UL);
 452              		.loc 1 178 0
 453 002c 224D     		ldr	r5, .L33+4
 454 002e 0022     		movs	r2, #0
 455 0030 0221     		movs	r1, #2
 456 0032 2846     		mov	r0, r5
 457 0034 FFF7FEFF 		bl	Cy_GPIO_Pin_Init
 458              	.LVL44:
 179:main_cm4.c    ****     Cy_GPIO_Pin_Init(MUX2_0_PORT, MUX2_0_NUM, 0UL);
 459              		.loc 1 179 0
 460 0038 0022     		movs	r2, #0
 461 003a 0321     		movs	r1, #3
 462 003c 2846     		mov	r0, r5
 463 003e FFF7FEFF 		bl	Cy_GPIO_Pin_Init
 464              	.LVL45:
 180:main_cm4.c    ****     Cy_GPIO_Pin_Init(MUX3_0_PORT, MUX3_0_NUM, 0UL);
 465              		.loc 1 180 0
 466 0042 0022     		movs	r2, #0
 467 0044 0421     		movs	r1, #4
 468 0046 2846     		mov	r0, r5
 469 0048 FFF7FEFF 		bl	Cy_GPIO_Pin_Init
 470              	.LVL46:
 181:main_cm4.c    ****     Cy_GPIO_Pin_Init(MUX_EN_0_PORT, MUX_EN_0_NUM, 0UL);
 471              		.loc 1 181 0
 472 004c 0022     		movs	r2, #0
 473 004e 0521     		movs	r1, #5
 474 0050 2846     		mov	r0, r5
 475 0052 FFF7FEFF 		bl	Cy_GPIO_Pin_Init
 476              	.LVL47:
ARM GAS  C:\Users\seeho\AppData\Local\Temp\ccUkk7Dc.s 			page 24


 182:main_cm4.c    ****     
 477              		.loc 1 182 0
 478 0056 0022     		movs	r2, #0
 479 0058 0621     		movs	r1, #6
 480 005a 2846     		mov	r0, r5
 481 005c FFF7FEFF 		bl	Cy_GPIO_Pin_Init
 482              	.LVL48:
 185:main_cm4.c    ****     Cy_GPIO_Pin_Init(OSC1_0_PORT, OSC1_0_NUM, 0UL);
 483              		.loc 1 185 0
 484 0060 0022     		movs	r2, #0
 485 0062 0421     		movs	r1, #4
 486 0064 2046     		mov	r0, r4
 487 0066 FFF7FEFF 		bl	Cy_GPIO_Pin_Init
 488              	.LVL49:
 186:main_cm4.c    ****     Cy_GPIO_Pin_Init(OSC2_0_PORT, OSC2_0_NUM, 0UL);
 489              		.loc 1 186 0
 490 006a 0022     		movs	r2, #0
 491 006c 0521     		movs	r1, #5
 492 006e 2046     		mov	r0, r4
 493 0070 FFF7FEFF 		bl	Cy_GPIO_Pin_Init
 494              	.LVL50:
 187:main_cm4.c    ****     
 495              		.loc 1 187 0
 496 0074 0022     		movs	r2, #0
 497 0076 0621     		movs	r1, #6
 498 0078 2046     		mov	r0, r4
 499 007a FFF7FEFF 		bl	Cy_GPIO_Pin_Init
 500              	.LVL51:
 190:main_cm4.c    ****     Cy_GPIO_Pin_Init(MISC1_0_PORT, MISC1_0_NUM, 0UL);
 501              		.loc 1 190 0
 502 007e 8034     		adds	r4, r4, #128
 503 0080 0022     		movs	r2, #0
 504 0082 1146     		mov	r1, r2
 505 0084 2046     		mov	r0, r4
 506 0086 FFF7FEFF 		bl	Cy_GPIO_Pin_Init
 507              	.LVL52:
 191:main_cm4.c    ****     Cy_GPIO_Pin_Init(MISC2_0_PORT, MISC2_0_NUM, 0UL);
 508              		.loc 1 191 0
 509 008a 0022     		movs	r2, #0
 510 008c 0121     		movs	r1, #1
 511 008e 2046     		mov	r0, r4
 512 0090 FFF7FEFF 		bl	Cy_GPIO_Pin_Init
 513              	.LVL53:
 192:main_cm4.c    ****     Cy_GPIO_Pin_Init(MISC3_0_PORT, MISC3_0_NUM, 0UL);
 514              		.loc 1 192 0
 515 0094 0022     		movs	r2, #0
 516 0096 0221     		movs	r1, #2
 517 0098 2046     		mov	r0, r4
 518 009a FFF7FEFF 		bl	Cy_GPIO_Pin_Init
 519              	.LVL54:
 193:main_cm4.c    ****     
 520              		.loc 1 193 0
 521 009e 0022     		movs	r2, #0
 522 00a0 0321     		movs	r1, #3
 523 00a2 2046     		mov	r0, r4
 524 00a4 FFF7FEFF 		bl	Cy_GPIO_Pin_Init
 525              	.LVL55:
ARM GAS  C:\Users\seeho\AppData\Local\Temp\ccUkk7Dc.s 			page 25


 196:main_cm4.c    **** }   
 526              		.loc 1 196 0
 527 00a8 0022     		movs	r2, #0
 528 00aa 0421     		movs	r1, #4
 529 00ac 0348     		ldr	r0, .L33+8
 530 00ae FFF7FEFF 		bl	Cy_GPIO_Pin_Init
 531              	.LVL56:
 532 00b2 38BD     		pop	{r3, r4, r5, pc}
 533              	.L34:
 534              		.align	2
 535              	.L33:
 536 00b4 80043240 		.word	1077019776
 537 00b8 80023240 		.word	1077019264
 538 00bc 00003240 		.word	1077018624
 539              		.cfi_endproc
 540              	.LFE642:
 541              		.size	GPIOInit_1, .-GPIOInit_1
 542              		.section	.text.writeDisplayPA,"ax",%progbits
 543              		.align	2
 544              		.global	writeDisplayPA
 545              		.thumb
 546              		.thumb_func
 547              		.type	writeDisplayPA, %function
 548              	writeDisplayPA:
 549              	.LFB643:
 210:main_cm4.c    ****     printf("PA GATT Client: %x \r\n", valPA);
 550              		.loc 1 210 0
 551              		.cfi_startproc
 552              		@ args = 0, pretend = 0, frame = 0
 553              		@ frame_needed = 0, uses_anonymous_args = 0
 554 0000 10B5     		push	{r4, lr}
 555              		.cfi_def_cfa_offset 8
 556              		.cfi_offset 4, -8
 557              		.cfi_offset 14, -4
 211:main_cm4.c    ****     
 558              		.loc 1 211 0
 559 0002 644C     		ldr	r4, .L53
 560 0004 2168     		ldr	r1, [r4]
 561 0006 6448     		ldr	r0, .L53+4
 562 0008 FFF7FEFF 		bl	printf
 563              	.LVL57:
 213:main_cm4.c    **** 	{
 564              		.loc 1 213 0
 565 000c 2368     		ldr	r3, [r4]
 566 000e 0C2B     		cmp	r3, #12
 567 0010 00F2B280 		bhi	.L36
 568 0014 DFE803F0 		tbb	[pc, r3]
 569              	.L38:
 570 0018 07       		.byte	(.L37-.L38)/2
 571 0019 14       		.byte	(.L39-.L38)/2
 572 001a 21       		.byte	(.L40-.L38)/2
 573 001b 2E       		.byte	(.L41-.L38)/2
 574 001c 3B       		.byte	(.L42-.L38)/2
 575 001d 48       		.byte	(.L43-.L38)/2
 576 001e 55       		.byte	(.L44-.L38)/2
 577 001f 62       		.byte	(.L45-.L38)/2
 578 0020 6F       		.byte	(.L46-.L38)/2
ARM GAS  C:\Users\seeho\AppData\Local\Temp\ccUkk7Dc.s 			page 26


 579 0021 7C       		.byte	(.L47-.L38)/2
 580 0022 89       		.byte	(.L48-.L38)/2
 581 0023 96       		.byte	(.L49-.L38)/2
 582 0024 A3       		.byte	(.L50-.L38)/2
 583 0025 00       		.p2align 1
 584              	.L37:
 216:main_cm4.c    ****             Cy_GPIO_Write(PA0_0_PORT, PA0_0_NUM, 0UL);
 585              		.loc 1 216 0
 586 0026 5D48     		ldr	r0, .L53+8
 587 0028 FFF7FEFF 		bl	puts
 588              	.LVL58:
 589              	.LBB255:
 590              	.LBB256:
 591              		.file 2 "Generated_Source\\PSoC6\\pdl\\drivers/peripheral/gpio/cy_gpio.h"
   1:Generated_Source\PSoC6\pdl\drivers/peripheral/gpio/cy_gpio.h **** /***************************************************************************//**
   2:Generated_Source\PSoC6\pdl\drivers/peripheral/gpio/cy_gpio.h **** * \file cy_gpio.h
   3:Generated_Source\PSoC6\pdl\drivers/peripheral/gpio/cy_gpio.h **** * \version 1.20
   4:Generated_Source\PSoC6\pdl\drivers/peripheral/gpio/cy_gpio.h **** *
   5:Generated_Source\PSoC6\pdl\drivers/peripheral/gpio/cy_gpio.h **** * Provides an API declaration of the GPIO driver
   6:Generated_Source\PSoC6\pdl\drivers/peripheral/gpio/cy_gpio.h **** *
   7:Generated_Source\PSoC6\pdl\drivers/peripheral/gpio/cy_gpio.h **** ********************************************************************************
   8:Generated_Source\PSoC6\pdl\drivers/peripheral/gpio/cy_gpio.h **** * \copyright
   9:Generated_Source\PSoC6\pdl\drivers/peripheral/gpio/cy_gpio.h **** * Copyright 2016-2018, Cypress Semiconductor Corporation. All rights reserved.
  10:Generated_Source\PSoC6\pdl\drivers/peripheral/gpio/cy_gpio.h **** * You may use this file only in accordance with the license, terms, conditions,
  11:Generated_Source\PSoC6\pdl\drivers/peripheral/gpio/cy_gpio.h **** * disclaimers, and limitations in the end user license agreement accompanying
  12:Generated_Source\PSoC6\pdl\drivers/peripheral/gpio/cy_gpio.h **** * the software package with which this file was provided.
  13:Generated_Source\PSoC6\pdl\drivers/peripheral/gpio/cy_gpio.h **** *******************************************************************************/
  14:Generated_Source\PSoC6\pdl\drivers/peripheral/gpio/cy_gpio.h **** 
  15:Generated_Source\PSoC6\pdl\drivers/peripheral/gpio/cy_gpio.h **** /**
  16:Generated_Source\PSoC6\pdl\drivers/peripheral/gpio/cy_gpio.h **** * \addtogroup group_gpio
  17:Generated_Source\PSoC6\pdl\drivers/peripheral/gpio/cy_gpio.h **** * \{
  18:Generated_Source\PSoC6\pdl\drivers/peripheral/gpio/cy_gpio.h **** * The GPIO driver provides an API to configure and access device Input/Output pins.
  19:Generated_Source\PSoC6\pdl\drivers/peripheral/gpio/cy_gpio.h **** *
  20:Generated_Source\PSoC6\pdl\drivers/peripheral/gpio/cy_gpio.h **** * The functions and other declarations used in this driver are in cy_gpio.h. 
  21:Generated_Source\PSoC6\pdl\drivers/peripheral/gpio/cy_gpio.h **** * You can include cy_pdl.h (ModusToolbox only) to get access to all functions 
  22:Generated_Source\PSoC6\pdl\drivers/peripheral/gpio/cy_gpio.h **** * and declarations in the PDL.
  23:Generated_Source\PSoC6\pdl\drivers/peripheral/gpio/cy_gpio.h **** *
  24:Generated_Source\PSoC6\pdl\drivers/peripheral/gpio/cy_gpio.h **** * IO pins include all general purpose types such as GPIO, SIO, HSIO, AUXIO, and
  25:Generated_Source\PSoC6\pdl\drivers/peripheral/gpio/cy_gpio.h **** * their variants.
  26:Generated_Source\PSoC6\pdl\drivers/peripheral/gpio/cy_gpio.h **** *
  27:Generated_Source\PSoC6\pdl\drivers/peripheral/gpio/cy_gpio.h **** * Initialization can be performed either at the port level or by configuring the
  28:Generated_Source\PSoC6\pdl\drivers/peripheral/gpio/cy_gpio.h **** * individual pins. For efficient use of code space, port
  29:Generated_Source\PSoC6\pdl\drivers/peripheral/gpio/cy_gpio.h **** * configuration should be used in the field. Refer to the product device header files 
  30:Generated_Source\PSoC6\pdl\drivers/peripheral/gpio/cy_gpio.h **** * for the list of supported ports and pins.
  31:Generated_Source\PSoC6\pdl\drivers/peripheral/gpio/cy_gpio.h **** * 
  32:Generated_Source\PSoC6\pdl\drivers/peripheral/gpio/cy_gpio.h **** * - Single pin configuration is performed by using \ref Cy_GPIO_Pin_FastInit 
  33:Generated_Source\PSoC6\pdl\drivers/peripheral/gpio/cy_gpio.h **** *   (provide specific values) or \ref Cy_GPIO_Pin_Init (provide a filled
  34:Generated_Source\PSoC6\pdl\drivers/peripheral/gpio/cy_gpio.h **** *   cy_stc_gpio_pin_config_t structure).
  35:Generated_Source\PSoC6\pdl\drivers/peripheral/gpio/cy_gpio.h **** * - An entire port can be configured using \ref Cy_GPIO_Port_Init. Provide a filled 
  36:Generated_Source\PSoC6\pdl\drivers/peripheral/gpio/cy_gpio.h **** *   cy_stc_gpio_prt_config_t structure. The values in the structure are 
  37:Generated_Source\PSoC6\pdl\drivers/peripheral/gpio/cy_gpio.h **** *   bitfields representing the desired value for each pin in the port.
  38:Generated_Source\PSoC6\pdl\drivers/peripheral/gpio/cy_gpio.h **** * - Pin configuration and management is based on the port address and pin number.
  39:Generated_Source\PSoC6\pdl\drivers/peripheral/gpio/cy_gpio.h **** *   \ref Cy_GPIO_PortToAddr function can optionally be used to calculate the port
  40:Generated_Source\PSoC6\pdl\drivers/peripheral/gpio/cy_gpio.h **** *   address from the port number at run-time.
  41:Generated_Source\PSoC6\pdl\drivers/peripheral/gpio/cy_gpio.h **** *
  42:Generated_Source\PSoC6\pdl\drivers/peripheral/gpio/cy_gpio.h **** * Once the pin/port initialization is complete, each pin can be accessed by 
  43:Generated_Source\PSoC6\pdl\drivers/peripheral/gpio/cy_gpio.h **** * specifying the port (GPIO_PRT_Type) and the pin (0-7) in the provided API 
ARM GAS  C:\Users\seeho\AppData\Local\Temp\ccUkk7Dc.s 			page 27


  44:Generated_Source\PSoC6\pdl\drivers/peripheral/gpio/cy_gpio.h **** * functions.
  45:Generated_Source\PSoC6\pdl\drivers/peripheral/gpio/cy_gpio.h **** *
  46:Generated_Source\PSoC6\pdl\drivers/peripheral/gpio/cy_gpio.h **** * \section group_gpio_configuration Configuration Considerations
  47:Generated_Source\PSoC6\pdl\drivers/peripheral/gpio/cy_gpio.h **** *
  48:Generated_Source\PSoC6\pdl\drivers/peripheral/gpio/cy_gpio.h **** * 1. Pin multiplexing is controlled through the High-Speed IO Matrix (HSIOM) selection.
  49:Generated_Source\PSoC6\pdl\drivers/peripheral/gpio/cy_gpio.h **** *    This allows the pin to connect to signal sources/sinks throughout the device,
  50:Generated_Source\PSoC6\pdl\drivers/peripheral/gpio/cy_gpio.h **** *    as defined by the pin HSIOM selection options (en_hsiom_sel_t).
  51:Generated_Source\PSoC6\pdl\drivers/peripheral/gpio/cy_gpio.h **** * 2. All pins are initialized to High-Z drive mode with HSIOM connected to CPU (SW
  52:Generated_Source\PSoC6\pdl\drivers/peripheral/gpio/cy_gpio.h **** *    control digital pin only) at Power-On-Reset(POR).
  53:Generated_Source\PSoC6\pdl\drivers/peripheral/gpio/cy_gpio.h **** * 3. Some API functions perform read-modify-write operations on shared port
  54:Generated_Source\PSoC6\pdl\drivers/peripheral/gpio/cy_gpio.h **** *    registers. These functions are not thread safe and care must be taken when
  55:Generated_Source\PSoC6\pdl\drivers/peripheral/gpio/cy_gpio.h **** *    called by the application.
  56:Generated_Source\PSoC6\pdl\drivers/peripheral/gpio/cy_gpio.h **** * 4. Digital input buffer provides a high-impedance buffer for the external 
  57:Generated_Source\PSoC6\pdl\drivers/peripheral/gpio/cy_gpio.h **** *    digital input. The input buffer is connected to the HSIOM for routing to 
  58:Generated_Source\PSoC6\pdl\drivers/peripheral/gpio/cy_gpio.h **** *    the CPU port registers and selected peripheral. Enabling the input 
  59:Generated_Source\PSoC6\pdl\drivers/peripheral/gpio/cy_gpio.h **** *    buffer provides possibility to read the pin state via the CPU.
  60:Generated_Source\PSoC6\pdl\drivers/peripheral/gpio/cy_gpio.h **** *    If pin is connected to an analog signal, the input buffer should be 
  61:Generated_Source\PSoC6\pdl\drivers/peripheral/gpio/cy_gpio.h **** *    disabled to avoid crowbar currents. For more information refer to device 
  62:Generated_Source\PSoC6\pdl\drivers/peripheral/gpio/cy_gpio.h **** *    TRM and the device datasheet.
  63:Generated_Source\PSoC6\pdl\drivers/peripheral/gpio/cy_gpio.h **** *
  64:Generated_Source\PSoC6\pdl\drivers/peripheral/gpio/cy_gpio.h **** * Multiple pins on a port can be updated using direct port register writes with an
  65:Generated_Source\PSoC6\pdl\drivers/peripheral/gpio/cy_gpio.h **** * appropriate port mask. An example is shown below, highlighting the different ways of 
  66:Generated_Source\PSoC6\pdl\drivers/peripheral/gpio/cy_gpio.h **** * configuring Port 1 pins using:
  67:Generated_Source\PSoC6\pdl\drivers/peripheral/gpio/cy_gpio.h **** * 
  68:Generated_Source\PSoC6\pdl\drivers/peripheral/gpio/cy_gpio.h **** * - Port output data register
  69:Generated_Source\PSoC6\pdl\drivers/peripheral/gpio/cy_gpio.h **** * - Port output data set register
  70:Generated_Source\PSoC6\pdl\drivers/peripheral/gpio/cy_gpio.h **** * - Port output data clear register
  71:Generated_Source\PSoC6\pdl\drivers/peripheral/gpio/cy_gpio.h **** *
  72:Generated_Source\PSoC6\pdl\drivers/peripheral/gpio/cy_gpio.h **** * \snippet gpio/gpio_v1_10_sut_01.cydsn/main_cm4.c Cy_GPIO_Snippet
  73:Generated_Source\PSoC6\pdl\drivers/peripheral/gpio/cy_gpio.h **** *
  74:Generated_Source\PSoC6\pdl\drivers/peripheral/gpio/cy_gpio.h **** * \section group_gpio_more_information More Information
  75:Generated_Source\PSoC6\pdl\drivers/peripheral/gpio/cy_gpio.h **** *
  76:Generated_Source\PSoC6\pdl\drivers/peripheral/gpio/cy_gpio.h **** * Refer to the technical reference manual (TRM) and the device datasheet.
  77:Generated_Source\PSoC6\pdl\drivers/peripheral/gpio/cy_gpio.h **** *
  78:Generated_Source\PSoC6\pdl\drivers/peripheral/gpio/cy_gpio.h **** * \section group_gpio_MISRA MISRA-C Compliance
  79:Generated_Source\PSoC6\pdl\drivers/peripheral/gpio/cy_gpio.h **** * The GPIO driver has the following specific deviations:
  80:Generated_Source\PSoC6\pdl\drivers/peripheral/gpio/cy_gpio.h **** *
  81:Generated_Source\PSoC6\pdl\drivers/peripheral/gpio/cy_gpio.h **** * <table class="doxtable">
  82:Generated_Source\PSoC6\pdl\drivers/peripheral/gpio/cy_gpio.h **** *   <tr>
  83:Generated_Source\PSoC6\pdl\drivers/peripheral/gpio/cy_gpio.h **** *     <th>MISRA Rule</th>
  84:Generated_Source\PSoC6\pdl\drivers/peripheral/gpio/cy_gpio.h **** *     <th>Rule Class (Required/Advisory)</th>
  85:Generated_Source\PSoC6\pdl\drivers/peripheral/gpio/cy_gpio.h **** *     <th>Rule Description</th>
  86:Generated_Source\PSoC6\pdl\drivers/peripheral/gpio/cy_gpio.h **** *     <th>Description of Deviation(s)</th>
  87:Generated_Source\PSoC6\pdl\drivers/peripheral/gpio/cy_gpio.h **** *   </tr>
  88:Generated_Source\PSoC6\pdl\drivers/peripheral/gpio/cy_gpio.h **** *   <tr>
  89:Generated_Source\PSoC6\pdl\drivers/peripheral/gpio/cy_gpio.h **** *     <td>11.4</td>
  90:Generated_Source\PSoC6\pdl\drivers/peripheral/gpio/cy_gpio.h **** *     <td>A</td>
  91:Generated_Source\PSoC6\pdl\drivers/peripheral/gpio/cy_gpio.h **** *     <td>A cast should not be performed between a pointer to object type and
  92:Generated_Source\PSoC6\pdl\drivers/peripheral/gpio/cy_gpio.h **** *         a different pointer to object type.</td>
  93:Generated_Source\PSoC6\pdl\drivers/peripheral/gpio/cy_gpio.h **** *     <td> This code is safe because the elements of both GPIO_PRT_V1_Type and GPIO_PRT_V2_Type 
  94:Generated_Source\PSoC6\pdl\drivers/peripheral/gpio/cy_gpio.h **** *          types have identical alignment.</td>
  95:Generated_Source\PSoC6\pdl\drivers/peripheral/gpio/cy_gpio.h **** *   </tr>
  96:Generated_Source\PSoC6\pdl\drivers/peripheral/gpio/cy_gpio.h **** *   <tr>
  97:Generated_Source\PSoC6\pdl\drivers/peripheral/gpio/cy_gpio.h **** *     <td>16.7</td>
  98:Generated_Source\PSoC6\pdl\drivers/peripheral/gpio/cy_gpio.h **** *     <td>A</td>
  99:Generated_Source\PSoC6\pdl\drivers/peripheral/gpio/cy_gpio.h **** *     <td>A pointer parameter in a function prototype should be declared as pointer 
 100:Generated_Source\PSoC6\pdl\drivers/peripheral/gpio/cy_gpio.h **** *         to const if the pointer is not used to modify the addressed object.</td>
ARM GAS  C:\Users\seeho\AppData\Local\Temp\ccUkk7Dc.s 			page 28


 101:Generated_Source\PSoC6\pdl\drivers/peripheral/gpio/cy_gpio.h **** *     <td>The objects pointed to by the base addresses of the GPIO port are not always modified.
 102:Generated_Source\PSoC6\pdl\drivers/peripheral/gpio/cy_gpio.h **** *         While a const qualifier can be used in select scenarios, it brings little benefit
 103:Generated_Source\PSoC6\pdl\drivers/peripheral/gpio/cy_gpio.h **** *         in adding this to the affected functions. </td>
 104:Generated_Source\PSoC6\pdl\drivers/peripheral/gpio/cy_gpio.h **** *   </tr>
 105:Generated_Source\PSoC6\pdl\drivers/peripheral/gpio/cy_gpio.h **** * </table>
 106:Generated_Source\PSoC6\pdl\drivers/peripheral/gpio/cy_gpio.h **** *
 107:Generated_Source\PSoC6\pdl\drivers/peripheral/gpio/cy_gpio.h **** * \section group_gpio_changelog Changelog
 108:Generated_Source\PSoC6\pdl\drivers/peripheral/gpio/cy_gpio.h **** * <table class="doxtable">
 109:Generated_Source\PSoC6\pdl\drivers/peripheral/gpio/cy_gpio.h **** *   <tr><th>Version</th><th>Changes</th><th>Reason for Change</th></tr>
 110:Generated_Source\PSoC6\pdl\drivers/peripheral/gpio/cy_gpio.h **** *   <tr>
 111:Generated_Source\PSoC6\pdl\drivers/peripheral/gpio/cy_gpio.h **** *     <td rowspan="3">1.20</td>
 112:Generated_Source\PSoC6\pdl\drivers/peripheral/gpio/cy_gpio.h **** *     <td>Flattened the organization of the driver source code into the single source directory and
 113:Generated_Source\PSoC6\pdl\drivers/peripheral/gpio/cy_gpio.h **** *     <td>Driver library directory-structure simplification.</td>
 114:Generated_Source\PSoC6\pdl\drivers/peripheral/gpio/cy_gpio.h **** *   </tr>
 115:Generated_Source\PSoC6\pdl\drivers/peripheral/gpio/cy_gpio.h **** *   <tr>
 116:Generated_Source\PSoC6\pdl\drivers/peripheral/gpio/cy_gpio.h **** *     <td>Added the functions for configuring the AMux bus splitter switch cells:
 117:Generated_Source\PSoC6\pdl\drivers/peripheral/gpio/cy_gpio.h **** *     - \ref Cy_GPIO_SetAmuxSplit
 118:Generated_Source\PSoC6\pdl\drivers/peripheral/gpio/cy_gpio.h **** *     - \ref Cy_GPIO_GetAmuxSplit
 119:Generated_Source\PSoC6\pdl\drivers/peripheral/gpio/cy_gpio.h **** *     </td>
 120:Generated_Source\PSoC6\pdl\drivers/peripheral/gpio/cy_gpio.h **** *     <td>Added a new functionality related to AMux bus.</td>
 121:Generated_Source\PSoC6\pdl\drivers/peripheral/gpio/cy_gpio.h **** *   </tr>
 122:Generated_Source\PSoC6\pdl\drivers/peripheral/gpio/cy_gpio.h **** *   <tr>
 123:Generated_Source\PSoC6\pdl\drivers/peripheral/gpio/cy_gpio.h **** *     <td>Added register access layer. Use register access macros instead
 124:Generated_Source\PSoC6\pdl\drivers/peripheral/gpio/cy_gpio.h **** *         of direct register access using dereferenced pointers.</td>
 125:Generated_Source\PSoC6\pdl\drivers/peripheral/gpio/cy_gpio.h **** *     <td>Makes register access device-independent, so that the PDL does 
 126:Generated_Source\PSoC6\pdl\drivers/peripheral/gpio/cy_gpio.h **** *         not need to be recompiled for each supported part number.</td>
 127:Generated_Source\PSoC6\pdl\drivers/peripheral/gpio/cy_gpio.h **** *   </tr>
 128:Generated_Source\PSoC6\pdl\drivers/peripheral/gpio/cy_gpio.h **** *   <tr>
 129:Generated_Source\PSoC6\pdl\drivers/peripheral/gpio/cy_gpio.h **** *     <td>1.10.1</td>
 130:Generated_Source\PSoC6\pdl\drivers/peripheral/gpio/cy_gpio.h **** *     <td>Updated description for the functions: \ref Cy_GPIO_GetInterruptStatus, 
 131:Generated_Source\PSoC6\pdl\drivers/peripheral/gpio/cy_gpio.h **** *         \ref Cy_GPIO_GetInterruptMask, \ref Cy_GPIO_GetInterruptStatusMasked.
 132:Generated_Source\PSoC6\pdl\drivers/peripheral/gpio/cy_gpio.h **** *
 133:Generated_Source\PSoC6\pdl\drivers/peripheral/gpio/cy_gpio.h **** *         Minor documentation edits.
 134:Generated_Source\PSoC6\pdl\drivers/peripheral/gpio/cy_gpio.h **** *     </td>
 135:Generated_Source\PSoC6\pdl\drivers/peripheral/gpio/cy_gpio.h **** *     <td>Documentation update and clarification</td>
 136:Generated_Source\PSoC6\pdl\drivers/peripheral/gpio/cy_gpio.h **** *   </tr>
 137:Generated_Source\PSoC6\pdl\drivers/peripheral/gpio/cy_gpio.h **** *   <tr>
 138:Generated_Source\PSoC6\pdl\drivers/peripheral/gpio/cy_gpio.h **** *     <td>1.10</td>
 139:Generated_Source\PSoC6\pdl\drivers/peripheral/gpio/cy_gpio.h **** *     <td>Added input parameter validation to the API functions</td>
 140:Generated_Source\PSoC6\pdl\drivers/peripheral/gpio/cy_gpio.h **** *     <td></td>
 141:Generated_Source\PSoC6\pdl\drivers/peripheral/gpio/cy_gpio.h **** *   </tr>
 142:Generated_Source\PSoC6\pdl\drivers/peripheral/gpio/cy_gpio.h **** *   <tr>
 143:Generated_Source\PSoC6\pdl\drivers/peripheral/gpio/cy_gpio.h **** *     <td>1.0</td>
 144:Generated_Source\PSoC6\pdl\drivers/peripheral/gpio/cy_gpio.h **** *     <td>Initial version</td>
 145:Generated_Source\PSoC6\pdl\drivers/peripheral/gpio/cy_gpio.h **** *     <td></td>
 146:Generated_Source\PSoC6\pdl\drivers/peripheral/gpio/cy_gpio.h **** *   </tr>
 147:Generated_Source\PSoC6\pdl\drivers/peripheral/gpio/cy_gpio.h **** * </table>
 148:Generated_Source\PSoC6\pdl\drivers/peripheral/gpio/cy_gpio.h **** *
 149:Generated_Source\PSoC6\pdl\drivers/peripheral/gpio/cy_gpio.h **** * \defgroup group_gpio_macros Macros
 150:Generated_Source\PSoC6\pdl\drivers/peripheral/gpio/cy_gpio.h **** * \defgroup group_gpio_functions Functions
 151:Generated_Source\PSoC6\pdl\drivers/peripheral/gpio/cy_gpio.h **** * \{
 152:Generated_Source\PSoC6\pdl\drivers/peripheral/gpio/cy_gpio.h **** *   \defgroup group_gpio_functions_init       Initialization Functions
 153:Generated_Source\PSoC6\pdl\drivers/peripheral/gpio/cy_gpio.h **** *   \defgroup group_gpio_functions_gpio       GPIO Functions
 154:Generated_Source\PSoC6\pdl\drivers/peripheral/gpio/cy_gpio.h **** *   \defgroup group_gpio_functions_sio        SIO Functions
 155:Generated_Source\PSoC6\pdl\drivers/peripheral/gpio/cy_gpio.h **** *   \defgroup group_gpio_functions_interrupt  Port Interrupt Functions
 156:Generated_Source\PSoC6\pdl\drivers/peripheral/gpio/cy_gpio.h **** * \}
 157:Generated_Source\PSoC6\pdl\drivers/peripheral/gpio/cy_gpio.h **** * \defgroup group_gpio_data_structures Data Structures
ARM GAS  C:\Users\seeho\AppData\Local\Temp\ccUkk7Dc.s 			page 29


 158:Generated_Source\PSoC6\pdl\drivers/peripheral/gpio/cy_gpio.h **** * \defgroup group_gpio_enums Enumerated Types
 159:Generated_Source\PSoC6\pdl\drivers/peripheral/gpio/cy_gpio.h **** */
 160:Generated_Source\PSoC6\pdl\drivers/peripheral/gpio/cy_gpio.h **** 
 161:Generated_Source\PSoC6\pdl\drivers/peripheral/gpio/cy_gpio.h **** #if !defined(CY_GPIO_H)
 162:Generated_Source\PSoC6\pdl\drivers/peripheral/gpio/cy_gpio.h **** #define CY_GPIO_H
 163:Generated_Source\PSoC6\pdl\drivers/peripheral/gpio/cy_gpio.h **** 
 164:Generated_Source\PSoC6\pdl\drivers/peripheral/gpio/cy_gpio.h **** #include <stddef.h>
 165:Generated_Source\PSoC6\pdl\drivers/peripheral/gpio/cy_gpio.h **** #include "cy_device.h"
 166:Generated_Source\PSoC6\pdl\drivers/peripheral/gpio/cy_gpio.h **** #include "cy_device_headers.h"
 167:Generated_Source\PSoC6\pdl\drivers/peripheral/gpio/cy_gpio.h **** #include "cy_syslib.h"
 168:Generated_Source\PSoC6\pdl\drivers/peripheral/gpio/cy_gpio.h **** 
 169:Generated_Source\PSoC6\pdl\drivers/peripheral/gpio/cy_gpio.h **** #if defined(__cplusplus)
 170:Generated_Source\PSoC6\pdl\drivers/peripheral/gpio/cy_gpio.h **** extern "C" {
 171:Generated_Source\PSoC6\pdl\drivers/peripheral/gpio/cy_gpio.h **** #endif
 172:Generated_Source\PSoC6\pdl\drivers/peripheral/gpio/cy_gpio.h **** 
 173:Generated_Source\PSoC6\pdl\drivers/peripheral/gpio/cy_gpio.h **** /** \addtogroup group_gpio_macros
 174:Generated_Source\PSoC6\pdl\drivers/peripheral/gpio/cy_gpio.h **** * \{
 175:Generated_Source\PSoC6\pdl\drivers/peripheral/gpio/cy_gpio.h **** */
 176:Generated_Source\PSoC6\pdl\drivers/peripheral/gpio/cy_gpio.h **** 
 177:Generated_Source\PSoC6\pdl\drivers/peripheral/gpio/cy_gpio.h **** /** Driver major version */
 178:Generated_Source\PSoC6\pdl\drivers/peripheral/gpio/cy_gpio.h **** #define CY_GPIO_DRV_VERSION_MAJOR       1
 179:Generated_Source\PSoC6\pdl\drivers/peripheral/gpio/cy_gpio.h **** 
 180:Generated_Source\PSoC6\pdl\drivers/peripheral/gpio/cy_gpio.h **** /** Driver minor version */
 181:Generated_Source\PSoC6\pdl\drivers/peripheral/gpio/cy_gpio.h **** #define CY_GPIO_DRV_VERSION_MINOR       20
 182:Generated_Source\PSoC6\pdl\drivers/peripheral/gpio/cy_gpio.h **** 
 183:Generated_Source\PSoC6\pdl\drivers/peripheral/gpio/cy_gpio.h **** /** GPIO driver ID */
 184:Generated_Source\PSoC6\pdl\drivers/peripheral/gpio/cy_gpio.h **** #define CY_GPIO_ID CY_PDL_DRV_ID(0x16U)
 185:Generated_Source\PSoC6\pdl\drivers/peripheral/gpio/cy_gpio.h **** 
 186:Generated_Source\PSoC6\pdl\drivers/peripheral/gpio/cy_gpio.h **** /** \} group_gpio_macros */
 187:Generated_Source\PSoC6\pdl\drivers/peripheral/gpio/cy_gpio.h **** 
 188:Generated_Source\PSoC6\pdl\drivers/peripheral/gpio/cy_gpio.h **** 
 189:Generated_Source\PSoC6\pdl\drivers/peripheral/gpio/cy_gpio.h **** /***************************************
 190:Generated_Source\PSoC6\pdl\drivers/peripheral/gpio/cy_gpio.h **** *       Enumerations
 191:Generated_Source\PSoC6\pdl\drivers/peripheral/gpio/cy_gpio.h **** ***************************************/
 192:Generated_Source\PSoC6\pdl\drivers/peripheral/gpio/cy_gpio.h **** /**
 193:Generated_Source\PSoC6\pdl\drivers/peripheral/gpio/cy_gpio.h **** * \addtogroup group_gpio_enums
 194:Generated_Source\PSoC6\pdl\drivers/peripheral/gpio/cy_gpio.h **** * \{
 195:Generated_Source\PSoC6\pdl\drivers/peripheral/gpio/cy_gpio.h **** */
 196:Generated_Source\PSoC6\pdl\drivers/peripheral/gpio/cy_gpio.h **** 
 197:Generated_Source\PSoC6\pdl\drivers/peripheral/gpio/cy_gpio.h **** /** GPIO Driver error codes */
 198:Generated_Source\PSoC6\pdl\drivers/peripheral/gpio/cy_gpio.h **** typedef enum 
 199:Generated_Source\PSoC6\pdl\drivers/peripheral/gpio/cy_gpio.h **** {
 200:Generated_Source\PSoC6\pdl\drivers/peripheral/gpio/cy_gpio.h ****     CY_GPIO_SUCCESS   = 0x00U,                                    /**< Returned successful */
 201:Generated_Source\PSoC6\pdl\drivers/peripheral/gpio/cy_gpio.h ****     CY_GPIO_BAD_PARAM = CY_GPIO_ID | CY_PDL_STATUS_ERROR | 0x01U, /**< Bad parameter was passed */
 202:Generated_Source\PSoC6\pdl\drivers/peripheral/gpio/cy_gpio.h **** } cy_en_gpio_status_t;
 203:Generated_Source\PSoC6\pdl\drivers/peripheral/gpio/cy_gpio.h **** 
 204:Generated_Source\PSoC6\pdl\drivers/peripheral/gpio/cy_gpio.h **** /** AMux switch open/close config */
 205:Generated_Source\PSoC6\pdl\drivers/peripheral/gpio/cy_gpio.h **** typedef enum
 206:Generated_Source\PSoC6\pdl\drivers/peripheral/gpio/cy_gpio.h **** {
 207:Generated_Source\PSoC6\pdl\drivers/peripheral/gpio/cy_gpio.h ****     CY_GPIO_AMUX_OPENALL,   /**< Open ground switch. Open right switch. Open left switch */
 208:Generated_Source\PSoC6\pdl\drivers/peripheral/gpio/cy_gpio.h ****     CY_GPIO_AMUX_L,         /**< Open ground switch. Open right switch. Close left switch */
 209:Generated_Source\PSoC6\pdl\drivers/peripheral/gpio/cy_gpio.h ****     CY_GPIO_AMUX_R,         /**< Open ground switch. Close right switch. Open left switch */
 210:Generated_Source\PSoC6\pdl\drivers/peripheral/gpio/cy_gpio.h ****     CY_GPIO_AMUX_LR,        /**< Open ground switch. Close right switch. Close left switch */
 211:Generated_Source\PSoC6\pdl\drivers/peripheral/gpio/cy_gpio.h ****     CY_GPIO_AMUX_G,         /**< Close ground switch. Open right switch. Open left switch */
 212:Generated_Source\PSoC6\pdl\drivers/peripheral/gpio/cy_gpio.h ****     CY_GPIO_AMUX_GL,        /**< Close ground switch. Open right switch. Close left switch */
 213:Generated_Source\PSoC6\pdl\drivers/peripheral/gpio/cy_gpio.h ****     CY_GPIO_AMUX_GR,        /**< Close ground switch. Close right switch. Open left switch */
 214:Generated_Source\PSoC6\pdl\drivers/peripheral/gpio/cy_gpio.h ****     CY_GPIO_AMUX_GLR,       /**< Close ground switch. Close right switch. Close left switch */
ARM GAS  C:\Users\seeho\AppData\Local\Temp\ccUkk7Dc.s 			page 30


 215:Generated_Source\PSoC6\pdl\drivers/peripheral/gpio/cy_gpio.h **** }cy_en_gpio_amuxconnect_t;
 216:Generated_Source\PSoC6\pdl\drivers/peripheral/gpio/cy_gpio.h **** 
 217:Generated_Source\PSoC6\pdl\drivers/peripheral/gpio/cy_gpio.h **** /**
 218:Generated_Source\PSoC6\pdl\drivers/peripheral/gpio/cy_gpio.h **** * AMux Bus selection
 219:Generated_Source\PSoC6\pdl\drivers/peripheral/gpio/cy_gpio.h **** */
 220:Generated_Source\PSoC6\pdl\drivers/peripheral/gpio/cy_gpio.h **** typedef enum
 221:Generated_Source\PSoC6\pdl\drivers/peripheral/gpio/cy_gpio.h **** {
 222:Generated_Source\PSoC6\pdl\drivers/peripheral/gpio/cy_gpio.h ****     CY_GPIO_AMUXBUSA,       /**< AMuxBus A */
 223:Generated_Source\PSoC6\pdl\drivers/peripheral/gpio/cy_gpio.h ****     CY_GPIO_AMUXBUSB        /**< AMuxBus B */
 224:Generated_Source\PSoC6\pdl\drivers/peripheral/gpio/cy_gpio.h **** }cy_en_gpio_amuxselect_t;
 225:Generated_Source\PSoC6\pdl\drivers/peripheral/gpio/cy_gpio.h **** 
 226:Generated_Source\PSoC6\pdl\drivers/peripheral/gpio/cy_gpio.h **** /** \} group_gpio_enums */
 227:Generated_Source\PSoC6\pdl\drivers/peripheral/gpio/cy_gpio.h **** 
 228:Generated_Source\PSoC6\pdl\drivers/peripheral/gpio/cy_gpio.h **** 
 229:Generated_Source\PSoC6\pdl\drivers/peripheral/gpio/cy_gpio.h **** /***************************************
 230:Generated_Source\PSoC6\pdl\drivers/peripheral/gpio/cy_gpio.h **** *       Configuration Structures
 231:Generated_Source\PSoC6\pdl\drivers/peripheral/gpio/cy_gpio.h **** ***************************************/
 232:Generated_Source\PSoC6\pdl\drivers/peripheral/gpio/cy_gpio.h **** 
 233:Generated_Source\PSoC6\pdl\drivers/peripheral/gpio/cy_gpio.h **** /**
 234:Generated_Source\PSoC6\pdl\drivers/peripheral/gpio/cy_gpio.h **** * \addtogroup group_gpio_data_structures
 235:Generated_Source\PSoC6\pdl\drivers/peripheral/gpio/cy_gpio.h **** * \{
 236:Generated_Source\PSoC6\pdl\drivers/peripheral/gpio/cy_gpio.h **** */
 237:Generated_Source\PSoC6\pdl\drivers/peripheral/gpio/cy_gpio.h **** 
 238:Generated_Source\PSoC6\pdl\drivers/peripheral/gpio/cy_gpio.h **** /** This structure is used to initialize a port of GPIO pins */
 239:Generated_Source\PSoC6\pdl\drivers/peripheral/gpio/cy_gpio.h **** typedef struct 
 240:Generated_Source\PSoC6\pdl\drivers/peripheral/gpio/cy_gpio.h **** {
 241:Generated_Source\PSoC6\pdl\drivers/peripheral/gpio/cy_gpio.h ****     uint32_t out;           /**< Initial output data for the IO pins in the port */
 242:Generated_Source\PSoC6\pdl\drivers/peripheral/gpio/cy_gpio.h ****     uint32_t intrMask;      /**< Interrupt enable mask for the port interrupt */
 243:Generated_Source\PSoC6\pdl\drivers/peripheral/gpio/cy_gpio.h ****     uint32_t intrCfg;       /**< Port pin interrupt edge detection configuration */
 244:Generated_Source\PSoC6\pdl\drivers/peripheral/gpio/cy_gpio.h ****     uint32_t cfg;           /**< Port pin drive modes and input buffer enable configuration */
 245:Generated_Source\PSoC6\pdl\drivers/peripheral/gpio/cy_gpio.h ****     uint32_t cfgIn;         /**< Port pin input buffer configuration */
 246:Generated_Source\PSoC6\pdl\drivers/peripheral/gpio/cy_gpio.h ****     uint32_t cfgOut;        /**< Port pin output buffer configuration */
 247:Generated_Source\PSoC6\pdl\drivers/peripheral/gpio/cy_gpio.h ****     uint32_t cfgSIO;        /**< Port SIO pins configuration */
 248:Generated_Source\PSoC6\pdl\drivers/peripheral/gpio/cy_gpio.h ****     uint32_t sel0Active;    /**< HSIOM selection for port pins 0,1,2,3 */
 249:Generated_Source\PSoC6\pdl\drivers/peripheral/gpio/cy_gpio.h ****     uint32_t sel1Active;    /**< HSIOM selection for port pins 4,5,6,7 */
 250:Generated_Source\PSoC6\pdl\drivers/peripheral/gpio/cy_gpio.h **** } cy_stc_gpio_prt_config_t;
 251:Generated_Source\PSoC6\pdl\drivers/peripheral/gpio/cy_gpio.h **** 
 252:Generated_Source\PSoC6\pdl\drivers/peripheral/gpio/cy_gpio.h **** /** This structure is used to initialize a single GPIO pin */
 253:Generated_Source\PSoC6\pdl\drivers/peripheral/gpio/cy_gpio.h **** typedef struct
 254:Generated_Source\PSoC6\pdl\drivers/peripheral/gpio/cy_gpio.h **** {
 255:Generated_Source\PSoC6\pdl\drivers/peripheral/gpio/cy_gpio.h ****     uint32_t outVal;         /**< Pin output state */
 256:Generated_Source\PSoC6\pdl\drivers/peripheral/gpio/cy_gpio.h ****     uint32_t driveMode;      /**< Drive mode */
 257:Generated_Source\PSoC6\pdl\drivers/peripheral/gpio/cy_gpio.h ****     en_hsiom_sel_t hsiom;    /**< HSIOM selection */
 258:Generated_Source\PSoC6\pdl\drivers/peripheral/gpio/cy_gpio.h ****     uint32_t intEdge;        /**< Interrupt Edge type */
 259:Generated_Source\PSoC6\pdl\drivers/peripheral/gpio/cy_gpio.h ****     uint32_t intMask;        /**< Interrupt enable mask */
 260:Generated_Source\PSoC6\pdl\drivers/peripheral/gpio/cy_gpio.h ****     uint32_t vtrip;          /**< Input buffer voltage trip type */
 261:Generated_Source\PSoC6\pdl\drivers/peripheral/gpio/cy_gpio.h ****     uint32_t slewRate;       /**< Output buffer slew rate */
 262:Generated_Source\PSoC6\pdl\drivers/peripheral/gpio/cy_gpio.h ****     uint32_t driveSel;       /**< Drive strength */
 263:Generated_Source\PSoC6\pdl\drivers/peripheral/gpio/cy_gpio.h ****     uint32_t vregEn;         /**< SIO pair output buffer mode */
 264:Generated_Source\PSoC6\pdl\drivers/peripheral/gpio/cy_gpio.h ****     uint32_t ibufMode;       /**< SIO pair input buffer mode */
 265:Generated_Source\PSoC6\pdl\drivers/peripheral/gpio/cy_gpio.h ****     uint32_t vtripSel;       /**< SIO pair input buffer trip point */
 266:Generated_Source\PSoC6\pdl\drivers/peripheral/gpio/cy_gpio.h ****     uint32_t vrefSel;        /**< SIO pair reference voltage for input buffer trip point */
 267:Generated_Source\PSoC6\pdl\drivers/peripheral/gpio/cy_gpio.h ****     uint32_t vohSel;         /**< SIO pair regulated voltage output level */
 268:Generated_Source\PSoC6\pdl\drivers/peripheral/gpio/cy_gpio.h **** } cy_stc_gpio_pin_config_t;
 269:Generated_Source\PSoC6\pdl\drivers/peripheral/gpio/cy_gpio.h **** 
 270:Generated_Source\PSoC6\pdl\drivers/peripheral/gpio/cy_gpio.h **** /** \} group_gpio_data_structures */
 271:Generated_Source\PSoC6\pdl\drivers/peripheral/gpio/cy_gpio.h **** 
ARM GAS  C:\Users\seeho\AppData\Local\Temp\ccUkk7Dc.s 			page 31


 272:Generated_Source\PSoC6\pdl\drivers/peripheral/gpio/cy_gpio.h **** /***************************************
 273:Generated_Source\PSoC6\pdl\drivers/peripheral/gpio/cy_gpio.h **** *        Constants
 274:Generated_Source\PSoC6\pdl\drivers/peripheral/gpio/cy_gpio.h **** ***************************************/
 275:Generated_Source\PSoC6\pdl\drivers/peripheral/gpio/cy_gpio.h **** 
 276:Generated_Source\PSoC6\pdl\drivers/peripheral/gpio/cy_gpio.h **** /** \cond INTERNAL */
 277:Generated_Source\PSoC6\pdl\drivers/peripheral/gpio/cy_gpio.h **** 
 278:Generated_Source\PSoC6\pdl\drivers/peripheral/gpio/cy_gpio.h **** /* General Constants */
 279:Generated_Source\PSoC6\pdl\drivers/peripheral/gpio/cy_gpio.h **** #define CY_GPIO_PRT_HALF                       (4UL)      /**< Half-way point of a GPIO port */
 280:Generated_Source\PSoC6\pdl\drivers/peripheral/gpio/cy_gpio.h **** #define CY_GPIO_PRT_DEINIT                     (0UL)      /**< De-init value for port registers */
 281:Generated_Source\PSoC6\pdl\drivers/peripheral/gpio/cy_gpio.h **** 
 282:Generated_Source\PSoC6\pdl\drivers/peripheral/gpio/cy_gpio.h **** /* GPIO Masks */
 283:Generated_Source\PSoC6\pdl\drivers/peripheral/gpio/cy_gpio.h **** #define CY_GPIO_HSIOM_MASK                     (0x1FUL)   /**< HSIOM selection mask */
 284:Generated_Source\PSoC6\pdl\drivers/peripheral/gpio/cy_gpio.h **** #define CY_GPIO_OUT_MASK                       (0x01UL)   /**< Single pin mask for OUT register */
 285:Generated_Source\PSoC6\pdl\drivers/peripheral/gpio/cy_gpio.h **** #define CY_GPIO_IN_MASK                        (0x01UL)   /**< Single pin mask for IN register */
 286:Generated_Source\PSoC6\pdl\drivers/peripheral/gpio/cy_gpio.h **** #define CY_GPIO_CFG_DM_MASK                    (0x0FUL)   /**< Single pin mask for drive mode in CF
 287:Generated_Source\PSoC6\pdl\drivers/peripheral/gpio/cy_gpio.h **** #define CY_GPIO_CFG_IN_VTRIP_SEL_MASK          (0x01UL)   /**< Single pin mask for VTRIP selection 
 288:Generated_Source\PSoC6\pdl\drivers/peripheral/gpio/cy_gpio.h **** #define CY_GPIO_CFG_OUT_SLOW_MASK              (0x01UL)   /**< Single pin mask for slew rate in CFG
 289:Generated_Source\PSoC6\pdl\drivers/peripheral/gpio/cy_gpio.h **** #define CY_GPIO_CFG_OUT_DRIVE_SEL_MASK         (0x03UL)   /**< Single pin mask for drive strength i
 290:Generated_Source\PSoC6\pdl\drivers/peripheral/gpio/cy_gpio.h **** #define CY_GPIO_INTR_STATUS_MASK               (0x01UL)   /**< Single pin mask for interrupt status
 291:Generated_Source\PSoC6\pdl\drivers/peripheral/gpio/cy_gpio.h **** #define CY_GPIO_INTR_EN_MASK                   (0x01UL)   /**< Single pin mask for interrupt status
 292:Generated_Source\PSoC6\pdl\drivers/peripheral/gpio/cy_gpio.h **** #define CY_GPIO_INTR_MASKED_MASK               (0x01UL)   /**< Single pin mask for masked interrupt
 293:Generated_Source\PSoC6\pdl\drivers/peripheral/gpio/cy_gpio.h **** #define CY_GPIO_INTR_SET_MASK                  (0x01UL)   /**< Single pin mask for setting the inte
 294:Generated_Source\PSoC6\pdl\drivers/peripheral/gpio/cy_gpio.h **** #define CY_GPIO_INTR_EDGE_MASK                 (0x03UL)   /**< Single pin mask for interrupt edge t
 295:Generated_Source\PSoC6\pdl\drivers/peripheral/gpio/cy_gpio.h **** #define CY_GPIO_INTR_FLT_EDGE_MASK             (0x07UL)   /**< Single pin mask for setting filtered
 296:Generated_Source\PSoC6\pdl\drivers/peripheral/gpio/cy_gpio.h **** 
 297:Generated_Source\PSoC6\pdl\drivers/peripheral/gpio/cy_gpio.h **** /* SIO Masks */
 298:Generated_Source\PSoC6\pdl\drivers/peripheral/gpio/cy_gpio.h **** #define CY_GPIO_VREG_EN_MASK                   (0x01UL)   /**< Single SIO pin mask for voltage regu
 299:Generated_Source\PSoC6\pdl\drivers/peripheral/gpio/cy_gpio.h **** #define CY_GPIO_IBUF_MASK                      (0x01UL)   /**< Single SIO pin mask for input buffer
 300:Generated_Source\PSoC6\pdl\drivers/peripheral/gpio/cy_gpio.h **** #define CY_GPIO_IBUF_SHIFT                     (0x01UL)   /**< Single SIO pin shift for input buffe
 301:Generated_Source\PSoC6\pdl\drivers/peripheral/gpio/cy_gpio.h **** #define CY_GPIO_VTRIP_SEL_MASK                 (0x01UL)   /**< Single SIO pin mask for the input bu
 302:Generated_Source\PSoC6\pdl\drivers/peripheral/gpio/cy_gpio.h **** #define CY_GPIO_VTRIP_SEL_SHIFT                (0x02UL)   /**< Single SIO pin shift for the input b
 303:Generated_Source\PSoC6\pdl\drivers/peripheral/gpio/cy_gpio.h **** #define CY_GPIO_VREF_SEL_MASK                  (0x03UL)   /**< Single SIO pin mask for voltage refe
 304:Generated_Source\PSoC6\pdl\drivers/peripheral/gpio/cy_gpio.h **** #define CY_GPIO_VREF_SEL_SHIFT                 (0x03UL)   /**< Single SIO pin shift for voltage ref
 305:Generated_Source\PSoC6\pdl\drivers/peripheral/gpio/cy_gpio.h **** #define CY_GPIO_VOH_SEL_MASK                   (0x07UL)   /**< Single SIO pin mask for VOH */
 306:Generated_Source\PSoC6\pdl\drivers/peripheral/gpio/cy_gpio.h **** #define CY_GPIO_VOH_SEL_SHIFT                  (0x05UL)   /**< Single SIO pin shift for VOH */
 307:Generated_Source\PSoC6\pdl\drivers/peripheral/gpio/cy_gpio.h **** 
 308:Generated_Source\PSoC6\pdl\drivers/peripheral/gpio/cy_gpio.h **** /* Special mask for SIO pin pair setting */
 309:Generated_Source\PSoC6\pdl\drivers/peripheral/gpio/cy_gpio.h **** #define CY_GPIO_SIO_ODD_PIN_MASK               (0x00FEUL) /**< SIO pin pair selection mask */
 310:Generated_Source\PSoC6\pdl\drivers/peripheral/gpio/cy_gpio.h **** #define CY_GPIO_SIO_PIN_MASK                   (0x00FFUL) /**< SIO pin pair mask */
 311:Generated_Source\PSoC6\pdl\drivers/peripheral/gpio/cy_gpio.h **** 
 312:Generated_Source\PSoC6\pdl\drivers/peripheral/gpio/cy_gpio.h **** /* Offsets */
 313:Generated_Source\PSoC6\pdl\drivers/peripheral/gpio/cy_gpio.h **** #define CY_GPIO_HSIOM_OFFSET                   (3UL)      /**< Offset for HSIOM */
 314:Generated_Source\PSoC6\pdl\drivers/peripheral/gpio/cy_gpio.h **** #define CY_GPIO_DRIVE_MODE_OFFSET              (2UL)      /**< Offset for Drive mode */
 315:Generated_Source\PSoC6\pdl\drivers/peripheral/gpio/cy_gpio.h **** #define CY_GPIO_INBUF_OFFSET                   (3UL)      /**< Offset for input buffer */
 316:Generated_Source\PSoC6\pdl\drivers/peripheral/gpio/cy_gpio.h **** #define CY_GPIO_CFG_OUT_DRIVE_OFFSET           (16UL)     /**< Offset for drive strength */
 317:Generated_Source\PSoC6\pdl\drivers/peripheral/gpio/cy_gpio.h **** #define CY_GPIO_INTR_CFG_OFFSET                (1UL)      /**< Offset for interrupt config */
 318:Generated_Source\PSoC6\pdl\drivers/peripheral/gpio/cy_gpio.h **** #define CY_GPIO_INTR_FILT_OFFSET               (18UL)     /**< Offset for filtered interrupt config
 319:Generated_Source\PSoC6\pdl\drivers/peripheral/gpio/cy_gpio.h **** #define CY_GPIO_CFG_SIO_OFFSET                 (2UL)      /**< Offset for SIO config */
 320:Generated_Source\PSoC6\pdl\drivers/peripheral/gpio/cy_gpio.h **** 
 321:Generated_Source\PSoC6\pdl\drivers/peripheral/gpio/cy_gpio.h **** /* Parameter validation constants */
 322:Generated_Source\PSoC6\pdl\drivers/peripheral/gpio/cy_gpio.h **** #define CY_GPIO_PINS_MAX                       (8UL)      /**< Number of pins in the port */
 323:Generated_Source\PSoC6\pdl\drivers/peripheral/gpio/cy_gpio.h **** #define CY_GPIO_PRT_PINS_MASK                  (0x0000000FFUL)
 324:Generated_Source\PSoC6\pdl\drivers/peripheral/gpio/cy_gpio.h **** #define CY_GPIO_PRT_INTR_CFG_EDGE_SEL_MASK     (GPIO_PRT_INTR_CFG_EDGE0_SEL_Msk | \
 325:Generated_Source\PSoC6\pdl\drivers/peripheral/gpio/cy_gpio.h ****                                                 GPIO_PRT_INTR_CFG_EDGE1_SEL_Msk | \
 326:Generated_Source\PSoC6\pdl\drivers/peripheral/gpio/cy_gpio.h ****                                                 GPIO_PRT_INTR_CFG_EDGE2_SEL_Msk | \
 327:Generated_Source\PSoC6\pdl\drivers/peripheral/gpio/cy_gpio.h ****                                                 GPIO_PRT_INTR_CFG_EDGE3_SEL_Msk | \
 328:Generated_Source\PSoC6\pdl\drivers/peripheral/gpio/cy_gpio.h ****                                                 GPIO_PRT_INTR_CFG_EDGE4_SEL_Msk | \
ARM GAS  C:\Users\seeho\AppData\Local\Temp\ccUkk7Dc.s 			page 32


 329:Generated_Source\PSoC6\pdl\drivers/peripheral/gpio/cy_gpio.h ****                                                 GPIO_PRT_INTR_CFG_EDGE5_SEL_Msk | \
 330:Generated_Source\PSoC6\pdl\drivers/peripheral/gpio/cy_gpio.h ****                                                 GPIO_PRT_INTR_CFG_EDGE6_SEL_Msk | \
 331:Generated_Source\PSoC6\pdl\drivers/peripheral/gpio/cy_gpio.h ****                                                 GPIO_PRT_INTR_CFG_EDGE7_SEL_Msk)
 332:Generated_Source\PSoC6\pdl\drivers/peripheral/gpio/cy_gpio.h **** #define CY_GPIO_PRT_INTR_CFG_RANGE_MASK        (CY_GPIO_PRT_INTR_CFG_EDGE_SEL_MASK | \
 333:Generated_Source\PSoC6\pdl\drivers/peripheral/gpio/cy_gpio.h ****                                                 GPIO_PRT_INTR_CFG_FLT_EDGE_SEL_Msk | \
 334:Generated_Source\PSoC6\pdl\drivers/peripheral/gpio/cy_gpio.h ****                                                 GPIO_PRT_INTR_CFG_FLT_SEL_Msk)
 335:Generated_Source\PSoC6\pdl\drivers/peripheral/gpio/cy_gpio.h **** #define CY_GPIO_PRT_INT_MASK_MASK              (0x0000001FFUL)
 336:Generated_Source\PSoC6\pdl\drivers/peripheral/gpio/cy_gpio.h **** #define CY_GPIO_PRT_SEL_ACTIVE_MASK            (0x1FFFFFFFUL)
 337:Generated_Source\PSoC6\pdl\drivers/peripheral/gpio/cy_gpio.h **** 
 338:Generated_Source\PSoC6\pdl\drivers/peripheral/gpio/cy_gpio.h **** #define GPIO_MAX_SPLIT_CELL_SEGMENTS           (9U)
 339:Generated_Source\PSoC6\pdl\drivers/peripheral/gpio/cy_gpio.h **** 
 340:Generated_Source\PSoC6\pdl\drivers/peripheral/gpio/cy_gpio.h **** /* Parameter validation macros */
 341:Generated_Source\PSoC6\pdl\drivers/peripheral/gpio/cy_gpio.h **** #define CY_GPIO_IS_PIN_VALID(pinNum)           (CY_GPIO_PINS_MAX > (pinNum))
 342:Generated_Source\PSoC6\pdl\drivers/peripheral/gpio/cy_gpio.h **** #define CY_GPIO_IS_FILTER_PIN_VALID(pinNum)    (CY_GPIO_PINS_MAX >= (pinNum))
 343:Generated_Source\PSoC6\pdl\drivers/peripheral/gpio/cy_gpio.h **** #define CY_GPIO_IS_VALUE_VALID(outVal)         (1UL >= (outVal))
 344:Generated_Source\PSoC6\pdl\drivers/peripheral/gpio/cy_gpio.h **** #define CY_GPIO_IS_DM_VALID(driveMode)         (0U == ((driveMode) & (uint32_t)~CY_GPIO_CFG_DM_MASK
 345:Generated_Source\PSoC6\pdl\drivers/peripheral/gpio/cy_gpio.h **** 
 346:Generated_Source\PSoC6\pdl\drivers/peripheral/gpio/cy_gpio.h **** #define CY_GPIO_IS_HSIOM_VALID(hsiom)          (0U == ((hsiom) & (uint32_t)~CY_GPIO_HSIOM_MASK))
 347:Generated_Source\PSoC6\pdl\drivers/peripheral/gpio/cy_gpio.h **** 
 348:Generated_Source\PSoC6\pdl\drivers/peripheral/gpio/cy_gpio.h **** #define CY_GPIO_IS_INT_EDGE_VALID(intEdge)     ((CY_GPIO_INTR_DISABLE  == (intEdge)) || \
 349:Generated_Source\PSoC6\pdl\drivers/peripheral/gpio/cy_gpio.h ****                                                 (CY_GPIO_INTR_RISING   == (intEdge)) || \
 350:Generated_Source\PSoC6\pdl\drivers/peripheral/gpio/cy_gpio.h ****                                                 (CY_GPIO_INTR_FALLING  == (intEdge)) || \
 351:Generated_Source\PSoC6\pdl\drivers/peripheral/gpio/cy_gpio.h ****                                                 (CY_GPIO_INTR_BOTH     == (intEdge)))
 352:Generated_Source\PSoC6\pdl\drivers/peripheral/gpio/cy_gpio.h **** 
 353:Generated_Source\PSoC6\pdl\drivers/peripheral/gpio/cy_gpio.h **** #define CY_GPIO_IS_DRIVE_SEL_VALID(driveSel)   ((CY_GPIO_DRIVE_FULL    == (driveSel)) || \
 354:Generated_Source\PSoC6\pdl\drivers/peripheral/gpio/cy_gpio.h ****                                                 (CY_GPIO_DRIVE_1_2     == (driveSel)) || \
 355:Generated_Source\PSoC6\pdl\drivers/peripheral/gpio/cy_gpio.h ****                                                 (CY_GPIO_DRIVE_1_4     == (driveSel)) || \
 356:Generated_Source\PSoC6\pdl\drivers/peripheral/gpio/cy_gpio.h ****                                                 (CY_GPIO_DRIVE_1_8     == (driveSel)))
 357:Generated_Source\PSoC6\pdl\drivers/peripheral/gpio/cy_gpio.h **** 
 358:Generated_Source\PSoC6\pdl\drivers/peripheral/gpio/cy_gpio.h **** #define CY_GPIO_IS_VREF_SEL_VALID(vrefSel)     ((CY_SIO_VREF_PINREF    == (vrefSel)) || \
 359:Generated_Source\PSoC6\pdl\drivers/peripheral/gpio/cy_gpio.h ****                                                 (CY_SIO_VREF_1_2V      == (vrefSel)) || \
 360:Generated_Source\PSoC6\pdl\drivers/peripheral/gpio/cy_gpio.h ****                                                 (CY_SIO_VREF_AMUX_A    == (vrefSel)) || \
 361:Generated_Source\PSoC6\pdl\drivers/peripheral/gpio/cy_gpio.h ****                                                 (CY_SIO_VREF_AMUX_B    == (vrefSel)))
 362:Generated_Source\PSoC6\pdl\drivers/peripheral/gpio/cy_gpio.h **** 
 363:Generated_Source\PSoC6\pdl\drivers/peripheral/gpio/cy_gpio.h **** #define CY_GPIO_IS_VOH_SEL_VALID(vrefSel)      ((CY_SIO_VOH_1_00       == (vrefSel)) || \
 364:Generated_Source\PSoC6\pdl\drivers/peripheral/gpio/cy_gpio.h ****                                                 (CY_SIO_VOH_1_25       == (vrefSel)) || \
 365:Generated_Source\PSoC6\pdl\drivers/peripheral/gpio/cy_gpio.h ****                                                 (CY_SIO_VOH_1_49       == (vrefSel)) || \
 366:Generated_Source\PSoC6\pdl\drivers/peripheral/gpio/cy_gpio.h ****                                                 (CY_SIO_VOH_1_67       == (vrefSel)) || \
 367:Generated_Source\PSoC6\pdl\drivers/peripheral/gpio/cy_gpio.h ****                                                 (CY_SIO_VOH_2_08       == (vrefSel)) || \
 368:Generated_Source\PSoC6\pdl\drivers/peripheral/gpio/cy_gpio.h ****                                                 (CY_SIO_VOH_2_50       == (vrefSel)) || \
 369:Generated_Source\PSoC6\pdl\drivers/peripheral/gpio/cy_gpio.h ****                                                 (CY_SIO_VOH_2_78       == (vrefSel)) || \
 370:Generated_Source\PSoC6\pdl\drivers/peripheral/gpio/cy_gpio.h ****                                                 (CY_SIO_VOH_4_16       == (vrefSel)))
 371:Generated_Source\PSoC6\pdl\drivers/peripheral/gpio/cy_gpio.h ****                    
 372:Generated_Source\PSoC6\pdl\drivers/peripheral/gpio/cy_gpio.h **** #define CY_GPIO_IS_PIN_BIT_VALID(pinBit)       (0U == ((pinBit) & (uint32_t)~CY_GPIO_PRT_PINS_MASK)
 373:Generated_Source\PSoC6\pdl\drivers/peripheral/gpio/cy_gpio.h **** #define CY_GPIO_IS_INTR_CFG_VALID(intrCfg)     (0U == ((intrCfg) & (uint32_t)~CY_GPIO_PRT_INTR_CFG_
 374:Generated_Source\PSoC6\pdl\drivers/peripheral/gpio/cy_gpio.h **** #define CY_GPIO_IS_INTR_MASK_VALID(intrMask)   (0U == ((intrMask) & (uint32_t)~CY_GPIO_PRT_INT_MASK
 375:Generated_Source\PSoC6\pdl\drivers/peripheral/gpio/cy_gpio.h **** #define CY_GPIO_IS_SEL_ACT_VALID(selActive)    (0U == ((selActive) & (uint32_t)~CY_GPIO_PRT_SEL_ACT
 376:Generated_Source\PSoC6\pdl\drivers/peripheral/gpio/cy_gpio.h **** 
 377:Generated_Source\PSoC6\pdl\drivers/peripheral/gpio/cy_gpio.h **** #define CY_GPIO_IS_AMUX_SPLIT_VALID(switchCtrl)       (((uint32_t) (switchCtrl)) < GPIO_MAX_SPLIT_C
 378:Generated_Source\PSoC6\pdl\drivers/peripheral/gpio/cy_gpio.h **** 
 379:Generated_Source\PSoC6\pdl\drivers/peripheral/gpio/cy_gpio.h **** #define CY_GPIO_IS_AMUX_CONNECT_VALID(amuxConnect)    ((CY_GPIO_AMUX_OPENALL == (amuxConnect)) || \
 380:Generated_Source\PSoC6\pdl\drivers/peripheral/gpio/cy_gpio.h ****                                                        (CY_GPIO_AMUX_L       == (amuxConnect)) || \
 381:Generated_Source\PSoC6\pdl\drivers/peripheral/gpio/cy_gpio.h ****                                                        (CY_GPIO_AMUX_R       == (amuxConnect)) || \
 382:Generated_Source\PSoC6\pdl\drivers/peripheral/gpio/cy_gpio.h ****                                                        (CY_GPIO_AMUX_LR      == (amuxConnect)) || \
 383:Generated_Source\PSoC6\pdl\drivers/peripheral/gpio/cy_gpio.h ****                                                        (CY_GPIO_AMUX_G       == (amuxConnect)) || \
 384:Generated_Source\PSoC6\pdl\drivers/peripheral/gpio/cy_gpio.h ****                                                        (CY_GPIO_AMUX_GL      == (amuxConnect)) || \
 385:Generated_Source\PSoC6\pdl\drivers/peripheral/gpio/cy_gpio.h ****                                                        (CY_GPIO_AMUX_GR      == (amuxConnect)) || \
ARM GAS  C:\Users\seeho\AppData\Local\Temp\ccUkk7Dc.s 			page 33


 386:Generated_Source\PSoC6\pdl\drivers/peripheral/gpio/cy_gpio.h ****                                                        (CY_GPIO_AMUX_GLR     == (amuxConnect)))
 387:Generated_Source\PSoC6\pdl\drivers/peripheral/gpio/cy_gpio.h **** 
 388:Generated_Source\PSoC6\pdl\drivers/peripheral/gpio/cy_gpio.h **** #define CY_GPIO_IS_AMUX_SELECT_VALID(amuxBus)       ((CY_GPIO_AMUXBUSA       == (amuxBus)) || \
 389:Generated_Source\PSoC6\pdl\drivers/peripheral/gpio/cy_gpio.h ****                                                      (CY_GPIO_AMUXBUSB       == (amuxBus)))
 390:Generated_Source\PSoC6\pdl\drivers/peripheral/gpio/cy_gpio.h **** /** \endcond */
 391:Generated_Source\PSoC6\pdl\drivers/peripheral/gpio/cy_gpio.h **** 
 392:Generated_Source\PSoC6\pdl\drivers/peripheral/gpio/cy_gpio.h **** 
 393:Generated_Source\PSoC6\pdl\drivers/peripheral/gpio/cy_gpio.h **** /***************************************
 394:Generated_Source\PSoC6\pdl\drivers/peripheral/gpio/cy_gpio.h **** *        Function Constants
 395:Generated_Source\PSoC6\pdl\drivers/peripheral/gpio/cy_gpio.h **** ***************************************/
 396:Generated_Source\PSoC6\pdl\drivers/peripheral/gpio/cy_gpio.h **** 
 397:Generated_Source\PSoC6\pdl\drivers/peripheral/gpio/cy_gpio.h **** /**
 398:Generated_Source\PSoC6\pdl\drivers/peripheral/gpio/cy_gpio.h **** * \addtogroup group_gpio_macros
 399:Generated_Source\PSoC6\pdl\drivers/peripheral/gpio/cy_gpio.h **** * \{
 400:Generated_Source\PSoC6\pdl\drivers/peripheral/gpio/cy_gpio.h **** */
 401:Generated_Source\PSoC6\pdl\drivers/peripheral/gpio/cy_gpio.h **** 
 402:Generated_Source\PSoC6\pdl\drivers/peripheral/gpio/cy_gpio.h **** /**
 403:Generated_Source\PSoC6\pdl\drivers/peripheral/gpio/cy_gpio.h **** * \defgroup group_gpio_driveModes Pin drive mode
 404:Generated_Source\PSoC6\pdl\drivers/peripheral/gpio/cy_gpio.h **** * \{
 405:Generated_Source\PSoC6\pdl\drivers/peripheral/gpio/cy_gpio.h **** * Constants to be used for setting the drive mode of the pin.
 406:Generated_Source\PSoC6\pdl\drivers/peripheral/gpio/cy_gpio.h **** */
 407:Generated_Source\PSoC6\pdl\drivers/peripheral/gpio/cy_gpio.h **** #define CY_GPIO_DM_ANALOG                      (0x00UL) /**< Analog High-Z. Input buffer off */
 408:Generated_Source\PSoC6\pdl\drivers/peripheral/gpio/cy_gpio.h **** #define CY_GPIO_DM_PULLUP_IN_OFF               (0x02UL) /**< Resistive Pull-Up. Input buffer off */
 409:Generated_Source\PSoC6\pdl\drivers/peripheral/gpio/cy_gpio.h **** #define CY_GPIO_DM_PULLDOWN_IN_OFF             (0x03UL) /**< Resistive Pull-Down. Input buffer off 
 410:Generated_Source\PSoC6\pdl\drivers/peripheral/gpio/cy_gpio.h **** #define CY_GPIO_DM_OD_DRIVESLOW_IN_OFF         (0x04UL) /**< Open Drain, Drives Low. Input buffer o
 411:Generated_Source\PSoC6\pdl\drivers/peripheral/gpio/cy_gpio.h **** #define CY_GPIO_DM_OD_DRIVESHIGH_IN_OFF        (0x05UL) /**< Open Drain, Drives High. Input buffer 
 412:Generated_Source\PSoC6\pdl\drivers/peripheral/gpio/cy_gpio.h **** #define CY_GPIO_DM_STRONG_IN_OFF               (0x06UL) /**< Strong Drive. Input buffer off */
 413:Generated_Source\PSoC6\pdl\drivers/peripheral/gpio/cy_gpio.h **** #define CY_GPIO_DM_PULLUP_DOWN_IN_OFF          (0x07UL) /**< Resistive Pull-Up/Down. Input buffer o
 414:Generated_Source\PSoC6\pdl\drivers/peripheral/gpio/cy_gpio.h **** #define CY_GPIO_DM_HIGHZ                       (0x08UL) /**< Digital High-Z. Input buffer on */
 415:Generated_Source\PSoC6\pdl\drivers/peripheral/gpio/cy_gpio.h **** #define CY_GPIO_DM_PULLUP                      (0x0AUL) /**< Resistive Pull-Up. Input buffer on */
 416:Generated_Source\PSoC6\pdl\drivers/peripheral/gpio/cy_gpio.h **** #define CY_GPIO_DM_PULLDOWN                    (0x0BUL) /**< Resistive Pull-Down. Input buffer on *
 417:Generated_Source\PSoC6\pdl\drivers/peripheral/gpio/cy_gpio.h **** #define CY_GPIO_DM_OD_DRIVESLOW                (0x0CUL) /**< Open Drain, Drives Low. Input buffer o
 418:Generated_Source\PSoC6\pdl\drivers/peripheral/gpio/cy_gpio.h **** #define CY_GPIO_DM_OD_DRIVESHIGH               (0x0DUL) /**< Open Drain, Drives High. Input buffer 
 419:Generated_Source\PSoC6\pdl\drivers/peripheral/gpio/cy_gpio.h **** #define CY_GPIO_DM_STRONG                      (0x0EUL) /**< Strong Drive. Input buffer on */
 420:Generated_Source\PSoC6\pdl\drivers/peripheral/gpio/cy_gpio.h **** #define CY_GPIO_DM_PULLUP_DOWN                 (0x0FUL) /**< Resistive Pull-Up/Down. Input buffer o
 421:Generated_Source\PSoC6\pdl\drivers/peripheral/gpio/cy_gpio.h **** /** \} */
 422:Generated_Source\PSoC6\pdl\drivers/peripheral/gpio/cy_gpio.h **** 
 423:Generated_Source\PSoC6\pdl\drivers/peripheral/gpio/cy_gpio.h **** /**
 424:Generated_Source\PSoC6\pdl\drivers/peripheral/gpio/cy_gpio.h **** * \defgroup group_gpio_vtrip Voltage trip mode
 425:Generated_Source\PSoC6\pdl\drivers/peripheral/gpio/cy_gpio.h **** * \{
 426:Generated_Source\PSoC6\pdl\drivers/peripheral/gpio/cy_gpio.h **** * Constants to be used for setting the voltage trip type on the pin.
 427:Generated_Source\PSoC6\pdl\drivers/peripheral/gpio/cy_gpio.h **** */
 428:Generated_Source\PSoC6\pdl\drivers/peripheral/gpio/cy_gpio.h **** #define CY_GPIO_VTRIP_CMOS                     (0x00UL) /**< Input buffer compatible with CMOS and 
 429:Generated_Source\PSoC6\pdl\drivers/peripheral/gpio/cy_gpio.h **** #define CY_GPIO_VTRIP_TTL                      (0x01UL) /**< Input buffer compatible with TTL and M
 430:Generated_Source\PSoC6\pdl\drivers/peripheral/gpio/cy_gpio.h **** /** \} */
 431:Generated_Source\PSoC6\pdl\drivers/peripheral/gpio/cy_gpio.h **** 
 432:Generated_Source\PSoC6\pdl\drivers/peripheral/gpio/cy_gpio.h **** /**
 433:Generated_Source\PSoC6\pdl\drivers/peripheral/gpio/cy_gpio.h **** * \defgroup group_gpio_slewRate Slew Rate Mode
 434:Generated_Source\PSoC6\pdl\drivers/peripheral/gpio/cy_gpio.h **** * \{
 435:Generated_Source\PSoC6\pdl\drivers/peripheral/gpio/cy_gpio.h **** * Constants to be used for setting the slew rate of the pin.
 436:Generated_Source\PSoC6\pdl\drivers/peripheral/gpio/cy_gpio.h **** */
 437:Generated_Source\PSoC6\pdl\drivers/peripheral/gpio/cy_gpio.h **** #define CY_GPIO_SLEW_FAST                      (0x00UL) /**< Fast slew rate */
 438:Generated_Source\PSoC6\pdl\drivers/peripheral/gpio/cy_gpio.h **** #define CY_GPIO_SLEW_SLOW                      (0x01UL) /**< Slow slew rate */
 439:Generated_Source\PSoC6\pdl\drivers/peripheral/gpio/cy_gpio.h **** /** \} */
 440:Generated_Source\PSoC6\pdl\drivers/peripheral/gpio/cy_gpio.h **** 
 441:Generated_Source\PSoC6\pdl\drivers/peripheral/gpio/cy_gpio.h **** /**
 442:Generated_Source\PSoC6\pdl\drivers/peripheral/gpio/cy_gpio.h **** * \defgroup group_gpio_driveStrength Pin drive strength
ARM GAS  C:\Users\seeho\AppData\Local\Temp\ccUkk7Dc.s 			page 34


 443:Generated_Source\PSoC6\pdl\drivers/peripheral/gpio/cy_gpio.h **** * \{
 444:Generated_Source\PSoC6\pdl\drivers/peripheral/gpio/cy_gpio.h **** * Constants to be used for setting the drive strength of the pin.
 445:Generated_Source\PSoC6\pdl\drivers/peripheral/gpio/cy_gpio.h **** */
 446:Generated_Source\PSoC6\pdl\drivers/peripheral/gpio/cy_gpio.h **** #define CY_GPIO_DRIVE_FULL                     (0x00UL) /**< Full drive strength: Max drive current
 447:Generated_Source\PSoC6\pdl\drivers/peripheral/gpio/cy_gpio.h **** #define CY_GPIO_DRIVE_1_2                      (0x01UL) /**< 1/2 drive strength: 1/2 drive current 
 448:Generated_Source\PSoC6\pdl\drivers/peripheral/gpio/cy_gpio.h **** #define CY_GPIO_DRIVE_1_4                      (0x02UL) /**< 1/4 drive strength: 1/4 drive current 
 449:Generated_Source\PSoC6\pdl\drivers/peripheral/gpio/cy_gpio.h **** #define CY_GPIO_DRIVE_1_8                      (0x03UL) /**< 1/8 drive strength: 1/8 drive current 
 450:Generated_Source\PSoC6\pdl\drivers/peripheral/gpio/cy_gpio.h **** /** \} */
 451:Generated_Source\PSoC6\pdl\drivers/peripheral/gpio/cy_gpio.h **** 
 452:Generated_Source\PSoC6\pdl\drivers/peripheral/gpio/cy_gpio.h **** /**
 453:Generated_Source\PSoC6\pdl\drivers/peripheral/gpio/cy_gpio.h **** * \defgroup group_gpio_interruptTrigger Interrupt trigger type
 454:Generated_Source\PSoC6\pdl\drivers/peripheral/gpio/cy_gpio.h **** * \{
 455:Generated_Source\PSoC6\pdl\drivers/peripheral/gpio/cy_gpio.h **** * Constants to be used for setting the interrupt trigger type on the pin.
 456:Generated_Source\PSoC6\pdl\drivers/peripheral/gpio/cy_gpio.h **** */
 457:Generated_Source\PSoC6\pdl\drivers/peripheral/gpio/cy_gpio.h **** #define CY_GPIO_INTR_DISABLE                   (0x00UL) /**< Disable the pin interrupt generation *
 458:Generated_Source\PSoC6\pdl\drivers/peripheral/gpio/cy_gpio.h **** #define CY_GPIO_INTR_RISING                    (0x01UL) /**< Rising-Edge interrupt */
 459:Generated_Source\PSoC6\pdl\drivers/peripheral/gpio/cy_gpio.h **** #define CY_GPIO_INTR_FALLING                   (0x02UL) /**< Falling-Edge interrupt */
 460:Generated_Source\PSoC6\pdl\drivers/peripheral/gpio/cy_gpio.h **** #define CY_GPIO_INTR_BOTH                      (0x03UL) /**< Both-Edge interrupt */
 461:Generated_Source\PSoC6\pdl\drivers/peripheral/gpio/cy_gpio.h **** /** \} */
 462:Generated_Source\PSoC6\pdl\drivers/peripheral/gpio/cy_gpio.h **** 
 463:Generated_Source\PSoC6\pdl\drivers/peripheral/gpio/cy_gpio.h **** /**
 464:Generated_Source\PSoC6\pdl\drivers/peripheral/gpio/cy_gpio.h **** * \defgroup group_gpio_sioVreg SIO output buffer mode
 465:Generated_Source\PSoC6\pdl\drivers/peripheral/gpio/cy_gpio.h **** * \{
 466:Generated_Source\PSoC6\pdl\drivers/peripheral/gpio/cy_gpio.h **** * Constants to be used for setting the SIO output buffer mode on the pin.
 467:Generated_Source\PSoC6\pdl\drivers/peripheral/gpio/cy_gpio.h **** */
 468:Generated_Source\PSoC6\pdl\drivers/peripheral/gpio/cy_gpio.h **** #define CY_SIO_VREG_UNREGULATED                (0x00UL) /**< Unregulated output buffer */
 469:Generated_Source\PSoC6\pdl\drivers/peripheral/gpio/cy_gpio.h **** #define CY_SIO_VREG_REGULATED                  (0x01UL) /**< Regulated output buffer */
 470:Generated_Source\PSoC6\pdl\drivers/peripheral/gpio/cy_gpio.h **** /** \} */
 471:Generated_Source\PSoC6\pdl\drivers/peripheral/gpio/cy_gpio.h **** 
 472:Generated_Source\PSoC6\pdl\drivers/peripheral/gpio/cy_gpio.h **** /**
 473:Generated_Source\PSoC6\pdl\drivers/peripheral/gpio/cy_gpio.h **** * \defgroup group_gpio_sioIbuf SIO input buffer mode
 474:Generated_Source\PSoC6\pdl\drivers/peripheral/gpio/cy_gpio.h **** * \{
 475:Generated_Source\PSoC6\pdl\drivers/peripheral/gpio/cy_gpio.h **** * Constants to be used for setting the SIO input buffer mode on the pin.
 476:Generated_Source\PSoC6\pdl\drivers/peripheral/gpio/cy_gpio.h **** */
 477:Generated_Source\PSoC6\pdl\drivers/peripheral/gpio/cy_gpio.h **** #define CY_SIO_IBUF_SINGLEENDED                (0x00UL) /**< Single ended input buffer */
 478:Generated_Source\PSoC6\pdl\drivers/peripheral/gpio/cy_gpio.h **** #define CY_SIO_IBUF_DIFFERENTIAL               (0x01UL) /**< Differential input buffer */
 479:Generated_Source\PSoC6\pdl\drivers/peripheral/gpio/cy_gpio.h **** /** \} */
 480:Generated_Source\PSoC6\pdl\drivers/peripheral/gpio/cy_gpio.h **** 
 481:Generated_Source\PSoC6\pdl\drivers/peripheral/gpio/cy_gpio.h **** /**
 482:Generated_Source\PSoC6\pdl\drivers/peripheral/gpio/cy_gpio.h **** * \defgroup group_gpio_sioVtrip SIO input buffer trip-point
 483:Generated_Source\PSoC6\pdl\drivers/peripheral/gpio/cy_gpio.h **** * \{
 484:Generated_Source\PSoC6\pdl\drivers/peripheral/gpio/cy_gpio.h **** * Constants to be used for setting the SIO input buffer trip-point of the pin.
 485:Generated_Source\PSoC6\pdl\drivers/peripheral/gpio/cy_gpio.h **** */
 486:Generated_Source\PSoC6\pdl\drivers/peripheral/gpio/cy_gpio.h **** #define CY_SIO_VTRIP_CMOS                      (0x00UL) /**< CMOS input buffer (single-ended) */
 487:Generated_Source\PSoC6\pdl\drivers/peripheral/gpio/cy_gpio.h **** #define CY_SIO_VTRIP_TTL                       (0x01UL) /**< TTL input buffer (single-ended) */
 488:Generated_Source\PSoC6\pdl\drivers/peripheral/gpio/cy_gpio.h **** #define CY_SIO_VTRIP_0_5VDDIO_0_5VOH           (0x00UL) /**< 0.5xVddio or 0.5xVoh (differential) */
 489:Generated_Source\PSoC6\pdl\drivers/peripheral/gpio/cy_gpio.h **** #define CY_SIO_VTRIP_0_4VDDIO_1_0VREF          (0x01UL) /**< 0.4xVddio or 0.4xVoh (differential) */
 490:Generated_Source\PSoC6\pdl\drivers/peripheral/gpio/cy_gpio.h **** /** \} */
 491:Generated_Source\PSoC6\pdl\drivers/peripheral/gpio/cy_gpio.h **** 
 492:Generated_Source\PSoC6\pdl\drivers/peripheral/gpio/cy_gpio.h **** /**
 493:Generated_Source\PSoC6\pdl\drivers/peripheral/gpio/cy_gpio.h **** * \defgroup group_gpio_sioVref SIO reference voltage for input buffer trip-point
 494:Generated_Source\PSoC6\pdl\drivers/peripheral/gpio/cy_gpio.h **** * \{
 495:Generated_Source\PSoC6\pdl\drivers/peripheral/gpio/cy_gpio.h **** * Constants to be used for setting the reference voltage of SIO input buffer trip-point.
 496:Generated_Source\PSoC6\pdl\drivers/peripheral/gpio/cy_gpio.h **** */
 497:Generated_Source\PSoC6\pdl\drivers/peripheral/gpio/cy_gpio.h **** #define CY_SIO_VREF_PINREF                     (0x00UL) /**< Vref from analog pin */
 498:Generated_Source\PSoC6\pdl\drivers/peripheral/gpio/cy_gpio.h **** #define CY_SIO_VREF_1_2V                       (0x01UL) /**< Vref from internal 1.2V reference */
 499:Generated_Source\PSoC6\pdl\drivers/peripheral/gpio/cy_gpio.h **** #define CY_SIO_VREF_AMUX_A                     (0x02UL) /**< Vref from AMUXBUS_A */
ARM GAS  C:\Users\seeho\AppData\Local\Temp\ccUkk7Dc.s 			page 35


 500:Generated_Source\PSoC6\pdl\drivers/peripheral/gpio/cy_gpio.h **** #define CY_SIO_VREF_AMUX_B                     (0x03UL) /**< Vref from AMUXBUS_B */
 501:Generated_Source\PSoC6\pdl\drivers/peripheral/gpio/cy_gpio.h **** /** \} */
 502:Generated_Source\PSoC6\pdl\drivers/peripheral/gpio/cy_gpio.h **** 
 503:Generated_Source\PSoC6\pdl\drivers/peripheral/gpio/cy_gpio.h **** /**
 504:Generated_Source\PSoC6\pdl\drivers/peripheral/gpio/cy_gpio.h **** * \defgroup group_gpio_sioVoh Regulated output voltage level (Voh) and input buffer trip-point of a
 505:Generated_Source\PSoC6\pdl\drivers/peripheral/gpio/cy_gpio.h **** * \{
 506:Generated_Source\PSoC6\pdl\drivers/peripheral/gpio/cy_gpio.h **** * Constants to be used for setting the Voh and input buffer trip-point of an SIO pair
 507:Generated_Source\PSoC6\pdl\drivers/peripheral/gpio/cy_gpio.h **** */
 508:Generated_Source\PSoC6\pdl\drivers/peripheral/gpio/cy_gpio.h **** #define CY_SIO_VOH_1_00                        (0x00UL) /**< Voh = 1 x Reference */
 509:Generated_Source\PSoC6\pdl\drivers/peripheral/gpio/cy_gpio.h **** #define CY_SIO_VOH_1_25                        (0x01UL) /**< Voh = 1.25 x Reference */
 510:Generated_Source\PSoC6\pdl\drivers/peripheral/gpio/cy_gpio.h **** #define CY_SIO_VOH_1_49                        (0x02UL) /**< Voh = 1.49 x Reference */
 511:Generated_Source\PSoC6\pdl\drivers/peripheral/gpio/cy_gpio.h **** #define CY_SIO_VOH_1_67                        (0x03UL) /**< Voh = 1.67 x Reference */
 512:Generated_Source\PSoC6\pdl\drivers/peripheral/gpio/cy_gpio.h **** #define CY_SIO_VOH_2_08                        (0x04UL) /**< Voh = 2.08 x Reference */
 513:Generated_Source\PSoC6\pdl\drivers/peripheral/gpio/cy_gpio.h **** #define CY_SIO_VOH_2_50                        (0x05UL) /**< Voh = 2.50 x Reference */
 514:Generated_Source\PSoC6\pdl\drivers/peripheral/gpio/cy_gpio.h **** #define CY_SIO_VOH_2_78                        (0x06UL) /**< Voh = 2.78 x Reference */
 515:Generated_Source\PSoC6\pdl\drivers/peripheral/gpio/cy_gpio.h **** #define CY_SIO_VOH_4_16                        (0x07UL) /**< Voh = 4.16 x Reference */
 516:Generated_Source\PSoC6\pdl\drivers/peripheral/gpio/cy_gpio.h **** /** \} */
 517:Generated_Source\PSoC6\pdl\drivers/peripheral/gpio/cy_gpio.h **** 
 518:Generated_Source\PSoC6\pdl\drivers/peripheral/gpio/cy_gpio.h **** /** \} group_gpio_macros */
 519:Generated_Source\PSoC6\pdl\drivers/peripheral/gpio/cy_gpio.h **** 
 520:Generated_Source\PSoC6\pdl\drivers/peripheral/gpio/cy_gpio.h **** /***************************************
 521:Generated_Source\PSoC6\pdl\drivers/peripheral/gpio/cy_gpio.h **** *        Function Prototypes
 522:Generated_Source\PSoC6\pdl\drivers/peripheral/gpio/cy_gpio.h **** ***************************************/
 523:Generated_Source\PSoC6\pdl\drivers/peripheral/gpio/cy_gpio.h **** 
 524:Generated_Source\PSoC6\pdl\drivers/peripheral/gpio/cy_gpio.h **** /**
 525:Generated_Source\PSoC6\pdl\drivers/peripheral/gpio/cy_gpio.h **** * \addtogroup group_gpio_functions
 526:Generated_Source\PSoC6\pdl\drivers/peripheral/gpio/cy_gpio.h **** * \{
 527:Generated_Source\PSoC6\pdl\drivers/peripheral/gpio/cy_gpio.h **** */
 528:Generated_Source\PSoC6\pdl\drivers/peripheral/gpio/cy_gpio.h **** 
 529:Generated_Source\PSoC6\pdl\drivers/peripheral/gpio/cy_gpio.h **** /**
 530:Generated_Source\PSoC6\pdl\drivers/peripheral/gpio/cy_gpio.h **** * \addtogroup group_gpio_functions_init
 531:Generated_Source\PSoC6\pdl\drivers/peripheral/gpio/cy_gpio.h **** * \{
 532:Generated_Source\PSoC6\pdl\drivers/peripheral/gpio/cy_gpio.h **** */
 533:Generated_Source\PSoC6\pdl\drivers/peripheral/gpio/cy_gpio.h **** 
 534:Generated_Source\PSoC6\pdl\drivers/peripheral/gpio/cy_gpio.h **** cy_en_gpio_status_t Cy_GPIO_Pin_Init(GPIO_PRT_Type* base, uint32_t pinNum, const cy_stc_gpio_pin_co
 535:Generated_Source\PSoC6\pdl\drivers/peripheral/gpio/cy_gpio.h **** cy_en_gpio_status_t Cy_GPIO_Port_Init(GPIO_PRT_Type* base, const cy_stc_gpio_prt_config_t *config);
 536:Generated_Source\PSoC6\pdl\drivers/peripheral/gpio/cy_gpio.h **** void Cy_GPIO_Pin_FastInit(GPIO_PRT_Type* base, uint32_t pinNum, uint32_t driveMode, uint32_t outVal
 537:Generated_Source\PSoC6\pdl\drivers/peripheral/gpio/cy_gpio.h **** void Cy_GPIO_Port_Deinit(GPIO_PRT_Type* base);
 538:Generated_Source\PSoC6\pdl\drivers/peripheral/gpio/cy_gpio.h **** __STATIC_INLINE void Cy_GPIO_SetHSIOM(GPIO_PRT_Type* base, uint32_t pinNum, en_hsiom_sel_t value);
 539:Generated_Source\PSoC6\pdl\drivers/peripheral/gpio/cy_gpio.h **** __STATIC_INLINE en_hsiom_sel_t Cy_GPIO_GetHSIOM(GPIO_PRT_Type* base, uint32_t pinNum);
 540:Generated_Source\PSoC6\pdl\drivers/peripheral/gpio/cy_gpio.h **** __STATIC_INLINE GPIO_PRT_Type* Cy_GPIO_PortToAddr(uint32_t portNum);
 541:Generated_Source\PSoC6\pdl\drivers/peripheral/gpio/cy_gpio.h **** 
 542:Generated_Source\PSoC6\pdl\drivers/peripheral/gpio/cy_gpio.h **** /** \} group_gpio_functions_init */
 543:Generated_Source\PSoC6\pdl\drivers/peripheral/gpio/cy_gpio.h **** 
 544:Generated_Source\PSoC6\pdl\drivers/peripheral/gpio/cy_gpio.h **** /**
 545:Generated_Source\PSoC6\pdl\drivers/peripheral/gpio/cy_gpio.h **** * \addtogroup group_gpio_functions_gpio
 546:Generated_Source\PSoC6\pdl\drivers/peripheral/gpio/cy_gpio.h **** * \{
 547:Generated_Source\PSoC6\pdl\drivers/peripheral/gpio/cy_gpio.h **** */
 548:Generated_Source\PSoC6\pdl\drivers/peripheral/gpio/cy_gpio.h **** 
 549:Generated_Source\PSoC6\pdl\drivers/peripheral/gpio/cy_gpio.h **** void Cy_GPIO_SetAmuxSplit(cy_en_amux_split_t switchCtrl, cy_en_gpio_amuxconnect_t amuxConnect, cy_e
 550:Generated_Source\PSoC6\pdl\drivers/peripheral/gpio/cy_gpio.h **** cy_en_gpio_amuxconnect_t Cy_GPIO_GetAmuxSplit(cy_en_amux_split_t switchCtrl, cy_en_gpio_amuxselect_
 551:Generated_Source\PSoC6\pdl\drivers/peripheral/gpio/cy_gpio.h **** 
 552:Generated_Source\PSoC6\pdl\drivers/peripheral/gpio/cy_gpio.h **** __STATIC_INLINE uint32_t Cy_GPIO_Read(GPIO_PRT_Type* base, uint32_t pinNum);
 553:Generated_Source\PSoC6\pdl\drivers/peripheral/gpio/cy_gpio.h **** __STATIC_INLINE void Cy_GPIO_Write(GPIO_PRT_Type* base, uint32_t pinNum, uint32_t value);
 554:Generated_Source\PSoC6\pdl\drivers/peripheral/gpio/cy_gpio.h **** __STATIC_INLINE uint32_t Cy_GPIO_ReadOut(GPIO_PRT_Type* base, uint32_t pinNum);
 555:Generated_Source\PSoC6\pdl\drivers/peripheral/gpio/cy_gpio.h **** __STATIC_INLINE void Cy_GPIO_Set(GPIO_PRT_Type* base, uint32_t pinNum);
 556:Generated_Source\PSoC6\pdl\drivers/peripheral/gpio/cy_gpio.h **** __STATIC_INLINE void Cy_GPIO_Clr(GPIO_PRT_Type* base, uint32_t pinNum);
ARM GAS  C:\Users\seeho\AppData\Local\Temp\ccUkk7Dc.s 			page 36


 557:Generated_Source\PSoC6\pdl\drivers/peripheral/gpio/cy_gpio.h **** __STATIC_INLINE void Cy_GPIO_Inv(GPIO_PRT_Type* base, uint32_t pinNum);
 558:Generated_Source\PSoC6\pdl\drivers/peripheral/gpio/cy_gpio.h **** __STATIC_INLINE void Cy_GPIO_SetDrivemode(GPIO_PRT_Type* base, uint32_t pinNum, uint32_t value);
 559:Generated_Source\PSoC6\pdl\drivers/peripheral/gpio/cy_gpio.h **** __STATIC_INLINE uint32_t Cy_GPIO_GetDrivemode(GPIO_PRT_Type* base, uint32_t pinNum);
 560:Generated_Source\PSoC6\pdl\drivers/peripheral/gpio/cy_gpio.h **** __STATIC_INLINE void Cy_GPIO_SetVtrip(GPIO_PRT_Type* base, uint32_t pinNum, uint32_t value);
 561:Generated_Source\PSoC6\pdl\drivers/peripheral/gpio/cy_gpio.h **** __STATIC_INLINE uint32_t Cy_GPIO_GetVtrip(GPIO_PRT_Type* base, uint32_t pinNum);
 562:Generated_Source\PSoC6\pdl\drivers/peripheral/gpio/cy_gpio.h **** __STATIC_INLINE void Cy_GPIO_SetSlewRate(GPIO_PRT_Type* base, uint32_t pinNum, uint32_t value);
 563:Generated_Source\PSoC6\pdl\drivers/peripheral/gpio/cy_gpio.h **** __STATIC_INLINE uint32_t Cy_GPIO_GetSlewRate(GPIO_PRT_Type* base, uint32_t pinNum);
 564:Generated_Source\PSoC6\pdl\drivers/peripheral/gpio/cy_gpio.h **** __STATIC_INLINE void Cy_GPIO_SetDriveSel(GPIO_PRT_Type* base, uint32_t pinNum, uint32_t value);
 565:Generated_Source\PSoC6\pdl\drivers/peripheral/gpio/cy_gpio.h **** __STATIC_INLINE uint32_t Cy_GPIO_GetDriveSel(GPIO_PRT_Type* base, uint32_t pinNum);
 566:Generated_Source\PSoC6\pdl\drivers/peripheral/gpio/cy_gpio.h **** 
 567:Generated_Source\PSoC6\pdl\drivers/peripheral/gpio/cy_gpio.h **** /** \} group_gpio_functions_gpio */
 568:Generated_Source\PSoC6\pdl\drivers/peripheral/gpio/cy_gpio.h **** 
 569:Generated_Source\PSoC6\pdl\drivers/peripheral/gpio/cy_gpio.h **** /**
 570:Generated_Source\PSoC6\pdl\drivers/peripheral/gpio/cy_gpio.h **** * \addtogroup group_gpio_functions_sio
 571:Generated_Source\PSoC6\pdl\drivers/peripheral/gpio/cy_gpio.h **** * \{
 572:Generated_Source\PSoC6\pdl\drivers/peripheral/gpio/cy_gpio.h **** */
 573:Generated_Source\PSoC6\pdl\drivers/peripheral/gpio/cy_gpio.h **** 
 574:Generated_Source\PSoC6\pdl\drivers/peripheral/gpio/cy_gpio.h **** __STATIC_INLINE void Cy_GPIO_SetVregEn(GPIO_PRT_Type* base, uint32_t pinNum, uint32_t value);
 575:Generated_Source\PSoC6\pdl\drivers/peripheral/gpio/cy_gpio.h **** __STATIC_INLINE uint32_t Cy_GPIO_GetVregEn(GPIO_PRT_Type* base, uint32_t pinNum);
 576:Generated_Source\PSoC6\pdl\drivers/peripheral/gpio/cy_gpio.h **** __STATIC_INLINE void Cy_GPIO_SetIbufMode(GPIO_PRT_Type* base, uint32_t pinNum, uint32_t value);
 577:Generated_Source\PSoC6\pdl\drivers/peripheral/gpio/cy_gpio.h **** __STATIC_INLINE uint32_t Cy_GPIO_GetIbufMode(GPIO_PRT_Type* base, uint32_t pinNum);
 578:Generated_Source\PSoC6\pdl\drivers/peripheral/gpio/cy_gpio.h **** __STATIC_INLINE void Cy_GPIO_SetVtripSel(GPIO_PRT_Type* base, uint32_t pinNum, uint32_t value);
 579:Generated_Source\PSoC6\pdl\drivers/peripheral/gpio/cy_gpio.h **** __STATIC_INLINE uint32_t Cy_GPIO_GetVtripSel(GPIO_PRT_Type* base, uint32_t pinNum);
 580:Generated_Source\PSoC6\pdl\drivers/peripheral/gpio/cy_gpio.h **** __STATIC_INLINE void Cy_GPIO_SetVrefSel(GPIO_PRT_Type* base, uint32_t pinNum, uint32_t value);
 581:Generated_Source\PSoC6\pdl\drivers/peripheral/gpio/cy_gpio.h **** __STATIC_INLINE uint32_t Cy_GPIO_GetVrefSel(GPIO_PRT_Type* base, uint32_t pinNum);
 582:Generated_Source\PSoC6\pdl\drivers/peripheral/gpio/cy_gpio.h **** __STATIC_INLINE void Cy_GPIO_SetVohSel(GPIO_PRT_Type* base, uint32_t pinNum, uint32_t value);
 583:Generated_Source\PSoC6\pdl\drivers/peripheral/gpio/cy_gpio.h **** __STATIC_INLINE uint32_t Cy_GPIO_GetVohSel(GPIO_PRT_Type* base, uint32_t pinNum);
 584:Generated_Source\PSoC6\pdl\drivers/peripheral/gpio/cy_gpio.h **** 
 585:Generated_Source\PSoC6\pdl\drivers/peripheral/gpio/cy_gpio.h **** /** \} group_gpio_functions_sio */
 586:Generated_Source\PSoC6\pdl\drivers/peripheral/gpio/cy_gpio.h **** 
 587:Generated_Source\PSoC6\pdl\drivers/peripheral/gpio/cy_gpio.h **** /**
 588:Generated_Source\PSoC6\pdl\drivers/peripheral/gpio/cy_gpio.h **** * \addtogroup group_gpio_functions_interrupt
 589:Generated_Source\PSoC6\pdl\drivers/peripheral/gpio/cy_gpio.h **** * \{
 590:Generated_Source\PSoC6\pdl\drivers/peripheral/gpio/cy_gpio.h **** */
 591:Generated_Source\PSoC6\pdl\drivers/peripheral/gpio/cy_gpio.h **** 
 592:Generated_Source\PSoC6\pdl\drivers/peripheral/gpio/cy_gpio.h **** __STATIC_INLINE uint32_t Cy_GPIO_GetInterruptStatus(GPIO_PRT_Type* base, uint32_t pinNum);
 593:Generated_Source\PSoC6\pdl\drivers/peripheral/gpio/cy_gpio.h **** __STATIC_INLINE void Cy_GPIO_ClearInterrupt(GPIO_PRT_Type* base, uint32_t pinNum);
 594:Generated_Source\PSoC6\pdl\drivers/peripheral/gpio/cy_gpio.h **** __STATIC_INLINE void Cy_GPIO_SetInterruptMask(GPIO_PRT_Type* base, uint32_t pinNum, uint32_t value)
 595:Generated_Source\PSoC6\pdl\drivers/peripheral/gpio/cy_gpio.h **** __STATIC_INLINE uint32_t Cy_GPIO_GetInterruptMask(GPIO_PRT_Type* base, uint32_t pinNum);
 596:Generated_Source\PSoC6\pdl\drivers/peripheral/gpio/cy_gpio.h **** __STATIC_INLINE uint32_t Cy_GPIO_GetInterruptStatusMasked(GPIO_PRT_Type* base, uint32_t pinNum);
 597:Generated_Source\PSoC6\pdl\drivers/peripheral/gpio/cy_gpio.h **** __STATIC_INLINE void Cy_GPIO_SetSwInterrupt(GPIO_PRT_Type* base, uint32_t pinNum);
 598:Generated_Source\PSoC6\pdl\drivers/peripheral/gpio/cy_gpio.h **** __STATIC_INLINE void Cy_GPIO_SetInterruptEdge(GPIO_PRT_Type* base, uint32_t pinNum, uint32_t value)
 599:Generated_Source\PSoC6\pdl\drivers/peripheral/gpio/cy_gpio.h **** __STATIC_INLINE uint32_t Cy_GPIO_GetInterruptEdge(GPIO_PRT_Type* base, uint32_t pinNum);
 600:Generated_Source\PSoC6\pdl\drivers/peripheral/gpio/cy_gpio.h **** __STATIC_INLINE void Cy_GPIO_SetFilter(GPIO_PRT_Type* base, uint32_t value);
 601:Generated_Source\PSoC6\pdl\drivers/peripheral/gpio/cy_gpio.h **** __STATIC_INLINE uint32_t Cy_GPIO_GetFilter(GPIO_PRT_Type* base);
 602:Generated_Source\PSoC6\pdl\drivers/peripheral/gpio/cy_gpio.h **** 
 603:Generated_Source\PSoC6\pdl\drivers/peripheral/gpio/cy_gpio.h **** __STATIC_INLINE uint32_t Cy_GPIO_GetInterruptCause0(void);
 604:Generated_Source\PSoC6\pdl\drivers/peripheral/gpio/cy_gpio.h **** __STATIC_INLINE uint32_t Cy_GPIO_GetInterruptCause1(void);
 605:Generated_Source\PSoC6\pdl\drivers/peripheral/gpio/cy_gpio.h **** __STATIC_INLINE uint32_t Cy_GPIO_GetInterruptCause2(void);
 606:Generated_Source\PSoC6\pdl\drivers/peripheral/gpio/cy_gpio.h **** __STATIC_INLINE uint32_t Cy_GPIO_GetInterruptCause3(void);
 607:Generated_Source\PSoC6\pdl\drivers/peripheral/gpio/cy_gpio.h **** 
 608:Generated_Source\PSoC6\pdl\drivers/peripheral/gpio/cy_gpio.h **** /** \} group_gpio_functions_interrupt */
 609:Generated_Source\PSoC6\pdl\drivers/peripheral/gpio/cy_gpio.h **** 
 610:Generated_Source\PSoC6\pdl\drivers/peripheral/gpio/cy_gpio.h **** 
 611:Generated_Source\PSoC6\pdl\drivers/peripheral/gpio/cy_gpio.h **** /**
 612:Generated_Source\PSoC6\pdl\drivers/peripheral/gpio/cy_gpio.h **** * \addtogroup group_gpio_functions_init
 613:Generated_Source\PSoC6\pdl\drivers/peripheral/gpio/cy_gpio.h **** * \{
ARM GAS  C:\Users\seeho\AppData\Local\Temp\ccUkk7Dc.s 			page 37


 614:Generated_Source\PSoC6\pdl\drivers/peripheral/gpio/cy_gpio.h **** */
 615:Generated_Source\PSoC6\pdl\drivers/peripheral/gpio/cy_gpio.h **** 
 616:Generated_Source\PSoC6\pdl\drivers/peripheral/gpio/cy_gpio.h **** /*******************************************************************************
 617:Generated_Source\PSoC6\pdl\drivers/peripheral/gpio/cy_gpio.h **** * Function Name: Cy_GPIO_SetHSIOM
 618:Generated_Source\PSoC6\pdl\drivers/peripheral/gpio/cy_gpio.h **** ****************************************************************************//**
 619:Generated_Source\PSoC6\pdl\drivers/peripheral/gpio/cy_gpio.h **** *
 620:Generated_Source\PSoC6\pdl\drivers/peripheral/gpio/cy_gpio.h **** * Configures the HSIOM connection to the pin.
 621:Generated_Source\PSoC6\pdl\drivers/peripheral/gpio/cy_gpio.h **** *
 622:Generated_Source\PSoC6\pdl\drivers/peripheral/gpio/cy_gpio.h **** * Connects the specified High-Speed Input Output Multiplexer (HSIOM) selection
 623:Generated_Source\PSoC6\pdl\drivers/peripheral/gpio/cy_gpio.h **** * to the pin.
 624:Generated_Source\PSoC6\pdl\drivers/peripheral/gpio/cy_gpio.h **** *
 625:Generated_Source\PSoC6\pdl\drivers/peripheral/gpio/cy_gpio.h **** * \param base
 626:Generated_Source\PSoC6\pdl\drivers/peripheral/gpio/cy_gpio.h **** * Pointer to the pin's port register base address
 627:Generated_Source\PSoC6\pdl\drivers/peripheral/gpio/cy_gpio.h **** *
 628:Generated_Source\PSoC6\pdl\drivers/peripheral/gpio/cy_gpio.h **** * \param pinNum
 629:Generated_Source\PSoC6\pdl\drivers/peripheral/gpio/cy_gpio.h **** * Position of the pin bit-field within the port register
 630:Generated_Source\PSoC6\pdl\drivers/peripheral/gpio/cy_gpio.h **** *
 631:Generated_Source\PSoC6\pdl\drivers/peripheral/gpio/cy_gpio.h **** * \param value
 632:Generated_Source\PSoC6\pdl\drivers/peripheral/gpio/cy_gpio.h **** * HSIOM input selection
 633:Generated_Source\PSoC6\pdl\drivers/peripheral/gpio/cy_gpio.h **** *
 634:Generated_Source\PSoC6\pdl\drivers/peripheral/gpio/cy_gpio.h **** * \note 
 635:Generated_Source\PSoC6\pdl\drivers/peripheral/gpio/cy_gpio.h **** * This function modifies a port register in a read-modify-write operation. It is
 636:Generated_Source\PSoC6\pdl\drivers/peripheral/gpio/cy_gpio.h **** * not thread safe as the resource is shared among multiple pins on a port.
 637:Generated_Source\PSoC6\pdl\drivers/peripheral/gpio/cy_gpio.h **** *
 638:Generated_Source\PSoC6\pdl\drivers/peripheral/gpio/cy_gpio.h **** * \funcusage
 639:Generated_Source\PSoC6\pdl\drivers/peripheral/gpio/cy_gpio.h **** * \snippet gpio/gpio_v1_10_sut_01.cydsn/main_cm4.c snippet_Cy_GPIO_SetHSIOM
 640:Generated_Source\PSoC6\pdl\drivers/peripheral/gpio/cy_gpio.h **** *
 641:Generated_Source\PSoC6\pdl\drivers/peripheral/gpio/cy_gpio.h **** *******************************************************************************/
 642:Generated_Source\PSoC6\pdl\drivers/peripheral/gpio/cy_gpio.h **** __STATIC_INLINE void Cy_GPIO_SetHSIOM(GPIO_PRT_Type* base, uint32_t pinNum, en_hsiom_sel_t value)
 643:Generated_Source\PSoC6\pdl\drivers/peripheral/gpio/cy_gpio.h **** {
 644:Generated_Source\PSoC6\pdl\drivers/peripheral/gpio/cy_gpio.h ****     uint32_t portNum;
 645:Generated_Source\PSoC6\pdl\drivers/peripheral/gpio/cy_gpio.h ****     uint32_t tempReg;
 646:Generated_Source\PSoC6\pdl\drivers/peripheral/gpio/cy_gpio.h ****     HSIOM_PRT_V1_Type* portAddrHSIOM;
 647:Generated_Source\PSoC6\pdl\drivers/peripheral/gpio/cy_gpio.h **** 
 648:Generated_Source\PSoC6\pdl\drivers/peripheral/gpio/cy_gpio.h ****     CY_ASSERT_L2(CY_GPIO_IS_PIN_VALID(pinNum));
 649:Generated_Source\PSoC6\pdl\drivers/peripheral/gpio/cy_gpio.h ****     CY_ASSERT_L2(CY_GPIO_IS_HSIOM_VALID(value));
 650:Generated_Source\PSoC6\pdl\drivers/peripheral/gpio/cy_gpio.h **** 
 651:Generated_Source\PSoC6\pdl\drivers/peripheral/gpio/cy_gpio.h ****     portNum = ((uint32_t)(base) - CY_GPIO_BASE) / GPIO_PRT_SECTION_SIZE;
 652:Generated_Source\PSoC6\pdl\drivers/peripheral/gpio/cy_gpio.h ****     portAddrHSIOM = (HSIOM_PRT_V1_Type*)(CY_HSIOM_BASE + (HSIOM_PRT_SECTION_SIZE * portNum));
 653:Generated_Source\PSoC6\pdl\drivers/peripheral/gpio/cy_gpio.h **** 
 654:Generated_Source\PSoC6\pdl\drivers/peripheral/gpio/cy_gpio.h ****     if(pinNum < CY_GPIO_PRT_HALF)
 655:Generated_Source\PSoC6\pdl\drivers/peripheral/gpio/cy_gpio.h ****     {
 656:Generated_Source\PSoC6\pdl\drivers/peripheral/gpio/cy_gpio.h ****         tempReg = HSIOM_PRT_PORT_SEL0(portAddrHSIOM) & ~(CY_GPIO_HSIOM_MASK << (pinNum << CY_GPIO_H
 657:Generated_Source\PSoC6\pdl\drivers/peripheral/gpio/cy_gpio.h ****         HSIOM_PRT_PORT_SEL0(portAddrHSIOM) = tempReg | ((value & CY_GPIO_HSIOM_MASK) << (pinNum << 
 658:Generated_Source\PSoC6\pdl\drivers/peripheral/gpio/cy_gpio.h ****     }
 659:Generated_Source\PSoC6\pdl\drivers/peripheral/gpio/cy_gpio.h ****     else
 660:Generated_Source\PSoC6\pdl\drivers/peripheral/gpio/cy_gpio.h ****     {
 661:Generated_Source\PSoC6\pdl\drivers/peripheral/gpio/cy_gpio.h ****         pinNum -= CY_GPIO_PRT_HALF;
 662:Generated_Source\PSoC6\pdl\drivers/peripheral/gpio/cy_gpio.h ****         tempReg = HSIOM_PRT_PORT_SEL1(portAddrHSIOM) & ~(CY_GPIO_HSIOM_MASK << (pinNum << CY_GPIO_H
 663:Generated_Source\PSoC6\pdl\drivers/peripheral/gpio/cy_gpio.h ****         HSIOM_PRT_PORT_SEL1(portAddrHSIOM) = tempReg | ((value & CY_GPIO_HSIOM_MASK) << (pinNum << 
 664:Generated_Source\PSoC6\pdl\drivers/peripheral/gpio/cy_gpio.h ****     }
 665:Generated_Source\PSoC6\pdl\drivers/peripheral/gpio/cy_gpio.h **** }
 666:Generated_Source\PSoC6\pdl\drivers/peripheral/gpio/cy_gpio.h **** 
 667:Generated_Source\PSoC6\pdl\drivers/peripheral/gpio/cy_gpio.h **** 
 668:Generated_Source\PSoC6\pdl\drivers/peripheral/gpio/cy_gpio.h **** /*******************************************************************************
 669:Generated_Source\PSoC6\pdl\drivers/peripheral/gpio/cy_gpio.h **** * Function Name: Cy_GPIO_GetHSIOM
 670:Generated_Source\PSoC6\pdl\drivers/peripheral/gpio/cy_gpio.h **** ****************************************************************************//**
ARM GAS  C:\Users\seeho\AppData\Local\Temp\ccUkk7Dc.s 			page 38


 671:Generated_Source\PSoC6\pdl\drivers/peripheral/gpio/cy_gpio.h **** *
 672:Generated_Source\PSoC6\pdl\drivers/peripheral/gpio/cy_gpio.h **** * Returns the current HSIOM multiplexer connection to the pin.
 673:Generated_Source\PSoC6\pdl\drivers/peripheral/gpio/cy_gpio.h **** *
 674:Generated_Source\PSoC6\pdl\drivers/peripheral/gpio/cy_gpio.h **** * \param base
 675:Generated_Source\PSoC6\pdl\drivers/peripheral/gpio/cy_gpio.h **** * Pointer to the pin's port register base address
 676:Generated_Source\PSoC6\pdl\drivers/peripheral/gpio/cy_gpio.h **** *
 677:Generated_Source\PSoC6\pdl\drivers/peripheral/gpio/cy_gpio.h **** * \param pinNum
 678:Generated_Source\PSoC6\pdl\drivers/peripheral/gpio/cy_gpio.h **** * Position of the pin bit-field within the port register
 679:Generated_Source\PSoC6\pdl\drivers/peripheral/gpio/cy_gpio.h **** *
 680:Generated_Source\PSoC6\pdl\drivers/peripheral/gpio/cy_gpio.h **** * \return
 681:Generated_Source\PSoC6\pdl\drivers/peripheral/gpio/cy_gpio.h **** * HSIOM input selection
 682:Generated_Source\PSoC6\pdl\drivers/peripheral/gpio/cy_gpio.h **** *
 683:Generated_Source\PSoC6\pdl\drivers/peripheral/gpio/cy_gpio.h **** * \funcusage
 684:Generated_Source\PSoC6\pdl\drivers/peripheral/gpio/cy_gpio.h **** * \snippet gpio/gpio_v1_10_sut_01.cydsn/main_cm4.c snippet_Cy_GPIO_SetHSIOM
 685:Generated_Source\PSoC6\pdl\drivers/peripheral/gpio/cy_gpio.h **** *
 686:Generated_Source\PSoC6\pdl\drivers/peripheral/gpio/cy_gpio.h **** *******************************************************************************/
 687:Generated_Source\PSoC6\pdl\drivers/peripheral/gpio/cy_gpio.h **** __STATIC_INLINE en_hsiom_sel_t Cy_GPIO_GetHSIOM(GPIO_PRT_Type* base, uint32_t pinNum)
 688:Generated_Source\PSoC6\pdl\drivers/peripheral/gpio/cy_gpio.h **** {
 689:Generated_Source\PSoC6\pdl\drivers/peripheral/gpio/cy_gpio.h ****     uint32_t returnValue;
 690:Generated_Source\PSoC6\pdl\drivers/peripheral/gpio/cy_gpio.h ****     uint32_t portNum;
 691:Generated_Source\PSoC6\pdl\drivers/peripheral/gpio/cy_gpio.h ****     HSIOM_PRT_V1_Type* portAddrHSIOM;
 692:Generated_Source\PSoC6\pdl\drivers/peripheral/gpio/cy_gpio.h ****     
 693:Generated_Source\PSoC6\pdl\drivers/peripheral/gpio/cy_gpio.h ****     CY_ASSERT_L2(CY_GPIO_IS_PIN_VALID(pinNum));
 694:Generated_Source\PSoC6\pdl\drivers/peripheral/gpio/cy_gpio.h **** 
 695:Generated_Source\PSoC6\pdl\drivers/peripheral/gpio/cy_gpio.h ****     portNum = ((uint32_t)(base) - CY_GPIO_BASE) / GPIO_PRT_SECTION_SIZE;
 696:Generated_Source\PSoC6\pdl\drivers/peripheral/gpio/cy_gpio.h ****     portAddrHSIOM = (HSIOM_PRT_V1_Type*)(CY_HSIOM_BASE + (HSIOM_PRT_SECTION_SIZE * portNum));
 697:Generated_Source\PSoC6\pdl\drivers/peripheral/gpio/cy_gpio.h **** 
 698:Generated_Source\PSoC6\pdl\drivers/peripheral/gpio/cy_gpio.h ****     if(pinNum < CY_GPIO_PRT_HALF)
 699:Generated_Source\PSoC6\pdl\drivers/peripheral/gpio/cy_gpio.h ****     {
 700:Generated_Source\PSoC6\pdl\drivers/peripheral/gpio/cy_gpio.h ****         returnValue = (HSIOM_PRT_PORT_SEL0(portAddrHSIOM) >> (pinNum << CY_GPIO_HSIOM_OFFSET)) & CY
 701:Generated_Source\PSoC6\pdl\drivers/peripheral/gpio/cy_gpio.h ****     }
 702:Generated_Source\PSoC6\pdl\drivers/peripheral/gpio/cy_gpio.h ****     else
 703:Generated_Source\PSoC6\pdl\drivers/peripheral/gpio/cy_gpio.h ****     {
 704:Generated_Source\PSoC6\pdl\drivers/peripheral/gpio/cy_gpio.h ****         pinNum -= CY_GPIO_PRT_HALF;
 705:Generated_Source\PSoC6\pdl\drivers/peripheral/gpio/cy_gpio.h ****         returnValue = (HSIOM_PRT_PORT_SEL1(portAddrHSIOM) >> (pinNum << CY_GPIO_HSIOM_OFFSET)) & CY
 706:Generated_Source\PSoC6\pdl\drivers/peripheral/gpio/cy_gpio.h ****     }
 707:Generated_Source\PSoC6\pdl\drivers/peripheral/gpio/cy_gpio.h **** 
 708:Generated_Source\PSoC6\pdl\drivers/peripheral/gpio/cy_gpio.h ****     return (en_hsiom_sel_t)returnValue;
 709:Generated_Source\PSoC6\pdl\drivers/peripheral/gpio/cy_gpio.h **** }
 710:Generated_Source\PSoC6\pdl\drivers/peripheral/gpio/cy_gpio.h **** 
 711:Generated_Source\PSoC6\pdl\drivers/peripheral/gpio/cy_gpio.h **** 
 712:Generated_Source\PSoC6\pdl\drivers/peripheral/gpio/cy_gpio.h **** /*******************************************************************************
 713:Generated_Source\PSoC6\pdl\drivers/peripheral/gpio/cy_gpio.h **** * Function Name: Cy_GPIO_PortToAddr
 714:Generated_Source\PSoC6\pdl\drivers/peripheral/gpio/cy_gpio.h **** ****************************************************************************//**
 715:Generated_Source\PSoC6\pdl\drivers/peripheral/gpio/cy_gpio.h **** *
 716:Generated_Source\PSoC6\pdl\drivers/peripheral/gpio/cy_gpio.h **** * Retrieves the port address based on the given port number.
 717:Generated_Source\PSoC6\pdl\drivers/peripheral/gpio/cy_gpio.h **** *
 718:Generated_Source\PSoC6\pdl\drivers/peripheral/gpio/cy_gpio.h **** * This is a helper function to calculate the port base address when given a port
 719:Generated_Source\PSoC6\pdl\drivers/peripheral/gpio/cy_gpio.h **** * number. It is to be used when pin access needs to be calculated at runtime.
 720:Generated_Source\PSoC6\pdl\drivers/peripheral/gpio/cy_gpio.h **** *
 721:Generated_Source\PSoC6\pdl\drivers/peripheral/gpio/cy_gpio.h **** * \param portNum
 722:Generated_Source\PSoC6\pdl\drivers/peripheral/gpio/cy_gpio.h **** * Port number
 723:Generated_Source\PSoC6\pdl\drivers/peripheral/gpio/cy_gpio.h **** *
 724:Generated_Source\PSoC6\pdl\drivers/peripheral/gpio/cy_gpio.h **** * \return
 725:Generated_Source\PSoC6\pdl\drivers/peripheral/gpio/cy_gpio.h **** * Base address of the port register structure
 726:Generated_Source\PSoC6\pdl\drivers/peripheral/gpio/cy_gpio.h **** *
 727:Generated_Source\PSoC6\pdl\drivers/peripheral/gpio/cy_gpio.h **** * \funcusage
ARM GAS  C:\Users\seeho\AppData\Local\Temp\ccUkk7Dc.s 			page 39


 728:Generated_Source\PSoC6\pdl\drivers/peripheral/gpio/cy_gpio.h **** * \snippet gpio/gpio_v1_10_sut_01.cydsn/main_cm4.c snippet_Cy_GPIO_PortToAddr
 729:Generated_Source\PSoC6\pdl\drivers/peripheral/gpio/cy_gpio.h **** *
 730:Generated_Source\PSoC6\pdl\drivers/peripheral/gpio/cy_gpio.h **** *******************************************************************************/
 731:Generated_Source\PSoC6\pdl\drivers/peripheral/gpio/cy_gpio.h **** __STATIC_INLINE GPIO_PRT_Type* Cy_GPIO_PortToAddr(uint32_t portNum)
 732:Generated_Source\PSoC6\pdl\drivers/peripheral/gpio/cy_gpio.h **** {
 733:Generated_Source\PSoC6\pdl\drivers/peripheral/gpio/cy_gpio.h ****     GPIO_PRT_Type* portBase;
 734:Generated_Source\PSoC6\pdl\drivers/peripheral/gpio/cy_gpio.h ****     
 735:Generated_Source\PSoC6\pdl\drivers/peripheral/gpio/cy_gpio.h ****     if(portNum < (uint32_t)IOSS_GPIO_GPIO_PORT_NR)
 736:Generated_Source\PSoC6\pdl\drivers/peripheral/gpio/cy_gpio.h ****     {
 737:Generated_Source\PSoC6\pdl\drivers/peripheral/gpio/cy_gpio.h ****         portBase = (GPIO_PRT_Type *)(CY_GPIO_BASE + (GPIO_PRT_SECTION_SIZE * portNum));
 738:Generated_Source\PSoC6\pdl\drivers/peripheral/gpio/cy_gpio.h ****     }
 739:Generated_Source\PSoC6\pdl\drivers/peripheral/gpio/cy_gpio.h ****     else
 740:Generated_Source\PSoC6\pdl\drivers/peripheral/gpio/cy_gpio.h ****     {
 741:Generated_Source\PSoC6\pdl\drivers/peripheral/gpio/cy_gpio.h ****         /* Error: Return default base address */
 742:Generated_Source\PSoC6\pdl\drivers/peripheral/gpio/cy_gpio.h ****         portBase = (GPIO_PRT_Type *)(CY_GPIO_BASE);
 743:Generated_Source\PSoC6\pdl\drivers/peripheral/gpio/cy_gpio.h ****     }
 744:Generated_Source\PSoC6\pdl\drivers/peripheral/gpio/cy_gpio.h **** 
 745:Generated_Source\PSoC6\pdl\drivers/peripheral/gpio/cy_gpio.h ****     return (portBase);
 746:Generated_Source\PSoC6\pdl\drivers/peripheral/gpio/cy_gpio.h **** }
 747:Generated_Source\PSoC6\pdl\drivers/peripheral/gpio/cy_gpio.h **** 
 748:Generated_Source\PSoC6\pdl\drivers/peripheral/gpio/cy_gpio.h **** /** \} group_gpio_functions_init */
 749:Generated_Source\PSoC6\pdl\drivers/peripheral/gpio/cy_gpio.h **** 
 750:Generated_Source\PSoC6\pdl\drivers/peripheral/gpio/cy_gpio.h **** /**
 751:Generated_Source\PSoC6\pdl\drivers/peripheral/gpio/cy_gpio.h **** * \addtogroup group_gpio_functions_gpio
 752:Generated_Source\PSoC6\pdl\drivers/peripheral/gpio/cy_gpio.h **** * \{
 753:Generated_Source\PSoC6\pdl\drivers/peripheral/gpio/cy_gpio.h **** */
 754:Generated_Source\PSoC6\pdl\drivers/peripheral/gpio/cy_gpio.h **** 
 755:Generated_Source\PSoC6\pdl\drivers/peripheral/gpio/cy_gpio.h **** /*******************************************************************************
 756:Generated_Source\PSoC6\pdl\drivers/peripheral/gpio/cy_gpio.h **** * Function Name: Cy_GPIO_Read
 757:Generated_Source\PSoC6\pdl\drivers/peripheral/gpio/cy_gpio.h **** ****************************************************************************//**
 758:Generated_Source\PSoC6\pdl\drivers/peripheral/gpio/cy_gpio.h **** *
 759:Generated_Source\PSoC6\pdl\drivers/peripheral/gpio/cy_gpio.h **** * Reads the current logic level on the input buffer of the pin.
 760:Generated_Source\PSoC6\pdl\drivers/peripheral/gpio/cy_gpio.h **** *
 761:Generated_Source\PSoC6\pdl\drivers/peripheral/gpio/cy_gpio.h **** * \param base
 762:Generated_Source\PSoC6\pdl\drivers/peripheral/gpio/cy_gpio.h **** * Pointer to the pin's port register base address
 763:Generated_Source\PSoC6\pdl\drivers/peripheral/gpio/cy_gpio.h **** *
 764:Generated_Source\PSoC6\pdl\drivers/peripheral/gpio/cy_gpio.h **** * \param pinNum
 765:Generated_Source\PSoC6\pdl\drivers/peripheral/gpio/cy_gpio.h **** * Position of the pin bit-field within the port register.
 766:Generated_Source\PSoC6\pdl\drivers/peripheral/gpio/cy_gpio.h **** * Bit position 8 is the routed pin through the port glitch filter.
 767:Generated_Source\PSoC6\pdl\drivers/peripheral/gpio/cy_gpio.h **** *
 768:Generated_Source\PSoC6\pdl\drivers/peripheral/gpio/cy_gpio.h **** * \return
 769:Generated_Source\PSoC6\pdl\drivers/peripheral/gpio/cy_gpio.h **** * Logic level present on the pin
 770:Generated_Source\PSoC6\pdl\drivers/peripheral/gpio/cy_gpio.h **** *
 771:Generated_Source\PSoC6\pdl\drivers/peripheral/gpio/cy_gpio.h **** * \funcusage
 772:Generated_Source\PSoC6\pdl\drivers/peripheral/gpio/cy_gpio.h **** * \snippet gpio/gpio_v1_10_sut_01.cydsn/main_cm4.c snippet_Cy_GPIO_Read
 773:Generated_Source\PSoC6\pdl\drivers/peripheral/gpio/cy_gpio.h **** *
 774:Generated_Source\PSoC6\pdl\drivers/peripheral/gpio/cy_gpio.h **** *******************************************************************************/
 775:Generated_Source\PSoC6\pdl\drivers/peripheral/gpio/cy_gpio.h **** __STATIC_INLINE uint32_t Cy_GPIO_Read(GPIO_PRT_Type* base, uint32_t pinNum)
 776:Generated_Source\PSoC6\pdl\drivers/peripheral/gpio/cy_gpio.h **** {
 777:Generated_Source\PSoC6\pdl\drivers/peripheral/gpio/cy_gpio.h ****     CY_ASSERT_L2(CY_GPIO_IS_FILTER_PIN_VALID(pinNum));
 778:Generated_Source\PSoC6\pdl\drivers/peripheral/gpio/cy_gpio.h ****     
 779:Generated_Source\PSoC6\pdl\drivers/peripheral/gpio/cy_gpio.h ****     return (GPIO_PRT_IN(base) >> (pinNum)) & CY_GPIO_IN_MASK;
 780:Generated_Source\PSoC6\pdl\drivers/peripheral/gpio/cy_gpio.h **** }
 781:Generated_Source\PSoC6\pdl\drivers/peripheral/gpio/cy_gpio.h **** 
 782:Generated_Source\PSoC6\pdl\drivers/peripheral/gpio/cy_gpio.h **** 
 783:Generated_Source\PSoC6\pdl\drivers/peripheral/gpio/cy_gpio.h **** /*******************************************************************************
 784:Generated_Source\PSoC6\pdl\drivers/peripheral/gpio/cy_gpio.h **** * Function Name: Cy_GPIO_Write
ARM GAS  C:\Users\seeho\AppData\Local\Temp\ccUkk7Dc.s 			page 40


 785:Generated_Source\PSoC6\pdl\drivers/peripheral/gpio/cy_gpio.h **** ****************************************************************************//**
 786:Generated_Source\PSoC6\pdl\drivers/peripheral/gpio/cy_gpio.h **** *
 787:Generated_Source\PSoC6\pdl\drivers/peripheral/gpio/cy_gpio.h **** * Write a logic 0 or logic 1 state to the output driver.
 788:Generated_Source\PSoC6\pdl\drivers/peripheral/gpio/cy_gpio.h **** *
 789:Generated_Source\PSoC6\pdl\drivers/peripheral/gpio/cy_gpio.h **** * This function should be used only for software driven pins. It does not have
 790:Generated_Source\PSoC6\pdl\drivers/peripheral/gpio/cy_gpio.h **** * any effect on peripheral driven pins.
 791:Generated_Source\PSoC6\pdl\drivers/peripheral/gpio/cy_gpio.h **** *
 792:Generated_Source\PSoC6\pdl\drivers/peripheral/gpio/cy_gpio.h **** * \param base
 793:Generated_Source\PSoC6\pdl\drivers/peripheral/gpio/cy_gpio.h **** * Pointer to the pin's port register base address
 794:Generated_Source\PSoC6\pdl\drivers/peripheral/gpio/cy_gpio.h **** *
 795:Generated_Source\PSoC6\pdl\drivers/peripheral/gpio/cy_gpio.h **** * \param pinNum
 796:Generated_Source\PSoC6\pdl\drivers/peripheral/gpio/cy_gpio.h **** * Position of the pin bit-field within the port register
 797:Generated_Source\PSoC6\pdl\drivers/peripheral/gpio/cy_gpio.h **** *
 798:Generated_Source\PSoC6\pdl\drivers/peripheral/gpio/cy_gpio.h **** * \param value
 799:Generated_Source\PSoC6\pdl\drivers/peripheral/gpio/cy_gpio.h **** * Logic level to drive out on the pin
 800:Generated_Source\PSoC6\pdl\drivers/peripheral/gpio/cy_gpio.h **** *
 801:Generated_Source\PSoC6\pdl\drivers/peripheral/gpio/cy_gpio.h **** * \funcusage
 802:Generated_Source\PSoC6\pdl\drivers/peripheral/gpio/cy_gpio.h **** * \snippet gpio/gpio_v1_10_sut_01.cydsn/main_cm4.c snippet_Cy_GPIO_Write
 803:Generated_Source\PSoC6\pdl\drivers/peripheral/gpio/cy_gpio.h **** *
 804:Generated_Source\PSoC6\pdl\drivers/peripheral/gpio/cy_gpio.h **** *******************************************************************************/
 805:Generated_Source\PSoC6\pdl\drivers/peripheral/gpio/cy_gpio.h **** __STATIC_INLINE void Cy_GPIO_Write(GPIO_PRT_Type* base, uint32_t pinNum, uint32_t value)
 806:Generated_Source\PSoC6\pdl\drivers/peripheral/gpio/cy_gpio.h **** {
 807:Generated_Source\PSoC6\pdl\drivers/peripheral/gpio/cy_gpio.h ****     CY_ASSERT_L2(CY_GPIO_IS_PIN_VALID(pinNum));
 808:Generated_Source\PSoC6\pdl\drivers/peripheral/gpio/cy_gpio.h ****     CY_ASSERT_L2(CY_GPIO_IS_VALUE_VALID(value));
 809:Generated_Source\PSoC6\pdl\drivers/peripheral/gpio/cy_gpio.h **** 
 810:Generated_Source\PSoC6\pdl\drivers/peripheral/gpio/cy_gpio.h ****     /* Thread-safe: Directly access the pin registers instead of base->OUT */
 811:Generated_Source\PSoC6\pdl\drivers/peripheral/gpio/cy_gpio.h ****     if(0UL == value)
 812:Generated_Source\PSoC6\pdl\drivers/peripheral/gpio/cy_gpio.h ****     {
 813:Generated_Source\PSoC6\pdl\drivers/peripheral/gpio/cy_gpio.h ****         GPIO_PRT_OUT_CLR(base) = CY_GPIO_OUT_MASK << pinNum;
 592              		.loc 2 813 0
 593 002c 5C4B     		ldr	r3, .L53+12
 594 002e 0822     		movs	r2, #8
 595 0030 5A60     		str	r2, [r3, #4]
 596              	.LVL59:
 597              	.LBE256:
 598              	.LBE255:
 599              	.LBB257:
 600              	.LBB258:
 601 0032 0422     		movs	r2, #4
 602 0034 5A60     		str	r2, [r3, #4]
 603              	.LVL60:
 604              	.LBE258:
 605              	.LBE257:
 606              	.LBB259:
 607              	.LBB260:
 608 0036 0222     		movs	r2, #2
 609 0038 5A60     		str	r2, [r3, #4]
 610              	.LVL61:
 611              	.LBE260:
 612              	.LBE259:
 613              	.LBB261:
 614              	.LBB262:
 615 003a 0122     		movs	r2, #1
 616 003c 5A60     		str	r2, [r3, #4]
 617 003e 10BD     		pop	{r4, pc}
 618              	.LVL62:
 619              	.L39:
ARM GAS  C:\Users\seeho\AppData\Local\Temp\ccUkk7Dc.s 			page 41


 620              	.LBE262:
 621              	.LBE261:
 224:main_cm4.c    ****             Cy_GPIO_Write(PA0_0_PORT, PA0_0_NUM, 1UL);
 622              		.loc 1 224 0
 623 0040 5848     		ldr	r0, .L53+16
 624 0042 FFF7FEFF 		bl	puts
 625              	.LVL63:
 626              	.LBB263:
 627              	.LBB264:
 814:Generated_Source\PSoC6\pdl\drivers/peripheral/gpio/cy_gpio.h ****     }
 815:Generated_Source\PSoC6\pdl\drivers/peripheral/gpio/cy_gpio.h ****     else
 816:Generated_Source\PSoC6\pdl\drivers/peripheral/gpio/cy_gpio.h ****     {
 817:Generated_Source\PSoC6\pdl\drivers/peripheral/gpio/cy_gpio.h ****         GPIO_PRT_OUT_SET(base) = CY_GPIO_OUT_MASK << pinNum;
 628              		.loc 2 817 0
 629 0046 564B     		ldr	r3, .L53+12
 630 0048 0822     		movs	r2, #8
 631 004a 9A60     		str	r2, [r3, #8]
 632              	.LVL64:
 633              	.LBE264:
 634              	.LBE263:
 635              	.LBB265:
 636              	.LBB266:
 813:Generated_Source\PSoC6\pdl\drivers/peripheral/gpio/cy_gpio.h ****     }
 637              		.loc 2 813 0
 638 004c 0422     		movs	r2, #4
 639 004e 5A60     		str	r2, [r3, #4]
 640              	.LVL65:
 641              	.LBE266:
 642              	.LBE265:
 643              	.LBB267:
 644              	.LBB268:
 645 0050 0222     		movs	r2, #2
 646 0052 5A60     		str	r2, [r3, #4]
 647              	.LVL66:
 648              	.LBE268:
 649              	.LBE267:
 650              	.LBB269:
 651              	.LBB270:
 652 0054 0122     		movs	r2, #1
 653 0056 5A60     		str	r2, [r3, #4]
 654 0058 10BD     		pop	{r4, pc}
 655              	.LVL67:
 656              	.L40:
 657              	.LBE270:
 658              	.LBE269:
 232:main_cm4.c    ****             Cy_GPIO_Write(PA0_0_PORT, PA0_0_NUM, 0UL);
 659              		.loc 1 232 0
 660 005a 5348     		ldr	r0, .L53+20
 661 005c FFF7FEFF 		bl	puts
 662              	.LVL68:
 663              	.LBB271:
 664              	.LBB272:
 813:Generated_Source\PSoC6\pdl\drivers/peripheral/gpio/cy_gpio.h ****     }
 665              		.loc 2 813 0
 666 0060 4F4B     		ldr	r3, .L53+12
 667 0062 0822     		movs	r2, #8
 668 0064 5A60     		str	r2, [r3, #4]
ARM GAS  C:\Users\seeho\AppData\Local\Temp\ccUkk7Dc.s 			page 42


 669              	.LVL69:
 670              	.LBE272:
 671              	.LBE271:
 672              	.LBB273:
 673              	.LBB274:
 674              		.loc 2 817 0
 675 0066 0422     		movs	r2, #4
 676 0068 9A60     		str	r2, [r3, #8]
 677              	.LVL70:
 678              	.LBE274:
 679              	.LBE273:
 680              	.LBB275:
 681              	.LBB276:
 813:Generated_Source\PSoC6\pdl\drivers/peripheral/gpio/cy_gpio.h ****     }
 682              		.loc 2 813 0
 683 006a 0222     		movs	r2, #2
 684 006c 5A60     		str	r2, [r3, #4]
 685              	.LVL71:
 686              	.LBE276:
 687              	.LBE275:
 688              	.LBB277:
 689              	.LBB278:
 690 006e 0122     		movs	r2, #1
 691 0070 5A60     		str	r2, [r3, #4]
 692 0072 10BD     		pop	{r4, pc}
 693              	.LVL72:
 694              	.L41:
 695              	.LBE278:
 696              	.LBE277:
 240:main_cm4.c    ****             Cy_GPIO_Write(PA0_0_PORT, PA0_0_NUM, 1UL);
 697              		.loc 1 240 0
 698 0074 4D48     		ldr	r0, .L53+24
 699 0076 FFF7FEFF 		bl	puts
 700              	.LVL73:
 701              	.LBB279:
 702              	.LBB280:
 703              		.loc 2 817 0
 704 007a 494B     		ldr	r3, .L53+12
 705 007c 0822     		movs	r2, #8
 706 007e 9A60     		str	r2, [r3, #8]
 707              	.LVL74:
 708              	.LBE280:
 709              	.LBE279:
 710              	.LBB281:
 711              	.LBB282:
 712 0080 0422     		movs	r2, #4
 713 0082 9A60     		str	r2, [r3, #8]
 714              	.LVL75:
 715              	.LBE282:
 716              	.LBE281:
 717              	.LBB283:
 718              	.LBB284:
 813:Generated_Source\PSoC6\pdl\drivers/peripheral/gpio/cy_gpio.h ****     }
 719              		.loc 2 813 0
 720 0084 0222     		movs	r2, #2
 721 0086 5A60     		str	r2, [r3, #4]
 722              	.LVL76:
ARM GAS  C:\Users\seeho\AppData\Local\Temp\ccUkk7Dc.s 			page 43


 723              	.LBE284:
 724              	.LBE283:
 725              	.LBB285:
 726              	.LBB286:
 727 0088 0122     		movs	r2, #1
 728 008a 5A60     		str	r2, [r3, #4]
 729 008c 10BD     		pop	{r4, pc}
 730              	.LVL77:
 731              	.L42:
 732              	.LBE286:
 733              	.LBE285:
 248:main_cm4.c    ****             Cy_GPIO_Write(PA0_0_PORT, PA0_0_NUM, 0UL);
 734              		.loc 1 248 0
 735 008e 4848     		ldr	r0, .L53+28
 736 0090 FFF7FEFF 		bl	puts
 737              	.LVL78:
 738              	.LBB287:
 739              	.LBB288:
 813:Generated_Source\PSoC6\pdl\drivers/peripheral/gpio/cy_gpio.h ****     }
 740              		.loc 2 813 0
 741 0094 424B     		ldr	r3, .L53+12
 742 0096 0822     		movs	r2, #8
 743 0098 5A60     		str	r2, [r3, #4]
 744              	.LVL79:
 745              	.LBE288:
 746              	.LBE287:
 747              	.LBB289:
 748              	.LBB290:
 749 009a 0422     		movs	r2, #4
 750 009c 5A60     		str	r2, [r3, #4]
 751              	.LVL80:
 752              	.LBE290:
 753              	.LBE289:
 754              	.LBB291:
 755              	.LBB292:
 756              		.loc 2 817 0
 757 009e 0222     		movs	r2, #2
 758 00a0 9A60     		str	r2, [r3, #8]
 759              	.LVL81:
 760              	.LBE292:
 761              	.LBE291:
 762              	.LBB293:
 763              	.LBB294:
 813:Generated_Source\PSoC6\pdl\drivers/peripheral/gpio/cy_gpio.h ****     }
 764              		.loc 2 813 0
 765 00a2 0122     		movs	r2, #1
 766 00a4 5A60     		str	r2, [r3, #4]
 767 00a6 10BD     		pop	{r4, pc}
 768              	.LVL82:
 769              	.L43:
 770              	.LBE294:
 771              	.LBE293:
 256:main_cm4.c    ****             Cy_GPIO_Write(PA0_0_PORT, PA0_0_NUM, 1UL);
 772              		.loc 1 256 0
 773 00a8 4248     		ldr	r0, .L53+32
 774 00aa FFF7FEFF 		bl	puts
 775              	.LVL83:
ARM GAS  C:\Users\seeho\AppData\Local\Temp\ccUkk7Dc.s 			page 44


 776              	.LBB295:
 777              	.LBB296:
 778              		.loc 2 817 0
 779 00ae 3C4B     		ldr	r3, .L53+12
 780 00b0 0822     		movs	r2, #8
 781 00b2 9A60     		str	r2, [r3, #8]
 782              	.LVL84:
 783              	.LBE296:
 784              	.LBE295:
 785              	.LBB297:
 786              	.LBB298:
 813:Generated_Source\PSoC6\pdl\drivers/peripheral/gpio/cy_gpio.h ****     }
 787              		.loc 2 813 0
 788 00b4 0422     		movs	r2, #4
 789 00b6 5A60     		str	r2, [r3, #4]
 790              	.LVL85:
 791              	.LBE298:
 792              	.LBE297:
 793              	.LBB299:
 794              	.LBB300:
 795              		.loc 2 817 0
 796 00b8 0222     		movs	r2, #2
 797 00ba 9A60     		str	r2, [r3, #8]
 798              	.LVL86:
 799              	.LBE300:
 800              	.LBE299:
 801              	.LBB301:
 802              	.LBB302:
 813:Generated_Source\PSoC6\pdl\drivers/peripheral/gpio/cy_gpio.h ****     }
 803              		.loc 2 813 0
 804 00bc 0122     		movs	r2, #1
 805 00be 5A60     		str	r2, [r3, #4]
 806 00c0 10BD     		pop	{r4, pc}
 807              	.LVL87:
 808              	.L44:
 809              	.LBE302:
 810              	.LBE301:
 264:main_cm4.c    ****             Cy_GPIO_Write(PA0_0_PORT, PA0_0_NUM, 0UL);
 811              		.loc 1 264 0
 812 00c2 3D48     		ldr	r0, .L53+36
 813 00c4 FFF7FEFF 		bl	puts
 814              	.LVL88:
 815              	.LBB303:
 816              	.LBB304:
 813:Generated_Source\PSoC6\pdl\drivers/peripheral/gpio/cy_gpio.h ****     }
 817              		.loc 2 813 0
 818 00c8 354B     		ldr	r3, .L53+12
 819 00ca 0822     		movs	r2, #8
 820 00cc 5A60     		str	r2, [r3, #4]
 821              	.LVL89:
 822              	.LBE304:
 823              	.LBE303:
 824              	.LBB305:
 825              	.LBB306:
 826              		.loc 2 817 0
 827 00ce 0422     		movs	r2, #4
 828 00d0 9A60     		str	r2, [r3, #8]
ARM GAS  C:\Users\seeho\AppData\Local\Temp\ccUkk7Dc.s 			page 45


 829              	.LVL90:
 830              	.LBE306:
 831              	.LBE305:
 832              	.LBB307:
 833              	.LBB308:
 834 00d2 0222     		movs	r2, #2
 835 00d4 9A60     		str	r2, [r3, #8]
 836              	.LVL91:
 837              	.LBE308:
 838              	.LBE307:
 839              	.LBB309:
 840              	.LBB310:
 813:Generated_Source\PSoC6\pdl\drivers/peripheral/gpio/cy_gpio.h ****     }
 841              		.loc 2 813 0
 842 00d6 0122     		movs	r2, #1
 843 00d8 5A60     		str	r2, [r3, #4]
 844 00da 10BD     		pop	{r4, pc}
 845              	.LVL92:
 846              	.L45:
 847              	.LBE310:
 848              	.LBE309:
 272:main_cm4.c    ****             Cy_GPIO_Write(PA0_0_PORT, PA0_0_NUM, 1UL);
 849              		.loc 1 272 0
 850 00dc 3748     		ldr	r0, .L53+40
 851 00de FFF7FEFF 		bl	puts
 852              	.LVL93:
 853              	.LBB311:
 854              	.LBB312:
 855              		.loc 2 817 0
 856 00e2 2F4B     		ldr	r3, .L53+12
 857 00e4 0822     		movs	r2, #8
 858 00e6 9A60     		str	r2, [r3, #8]
 859              	.LVL94:
 860              	.LBE312:
 861              	.LBE311:
 862              	.LBB313:
 863              	.LBB314:
 864 00e8 0422     		movs	r2, #4
 865 00ea 9A60     		str	r2, [r3, #8]
 866              	.LVL95:
 867              	.LBE314:
 868              	.LBE313:
 869              	.LBB315:
 870              	.LBB316:
 871 00ec 0222     		movs	r2, #2
 872 00ee 9A60     		str	r2, [r3, #8]
 873              	.LVL96:
 874              	.LBE316:
 875              	.LBE315:
 876              	.LBB317:
 877              	.LBB318:
 813:Generated_Source\PSoC6\pdl\drivers/peripheral/gpio/cy_gpio.h ****     }
 878              		.loc 2 813 0
 879 00f0 0122     		movs	r2, #1
 880 00f2 5A60     		str	r2, [r3, #4]
 881 00f4 10BD     		pop	{r4, pc}
 882              	.LVL97:
ARM GAS  C:\Users\seeho\AppData\Local\Temp\ccUkk7Dc.s 			page 46


 883              	.L46:
 884              	.LBE318:
 885              	.LBE317:
 280:main_cm4.c    ****             Cy_GPIO_Write(PA0_0_PORT, PA0_0_NUM, 0UL);
 886              		.loc 1 280 0
 887 00f6 3248     		ldr	r0, .L53+44
 888 00f8 FFF7FEFF 		bl	puts
 889              	.LVL98:
 890              	.LBB319:
 891              	.LBB320:
 813:Generated_Source\PSoC6\pdl\drivers/peripheral/gpio/cy_gpio.h ****     }
 892              		.loc 2 813 0
 893 00fc 284B     		ldr	r3, .L53+12
 894 00fe 0822     		movs	r2, #8
 895 0100 5A60     		str	r2, [r3, #4]
 896              	.LVL99:
 897              	.LBE320:
 898              	.LBE319:
 899              	.LBB321:
 900              	.LBB322:
 901 0102 0422     		movs	r2, #4
 902 0104 5A60     		str	r2, [r3, #4]
 903              	.LVL100:
 904              	.LBE322:
 905              	.LBE321:
 906              	.LBB323:
 907              	.LBB324:
 908 0106 0222     		movs	r2, #2
 909 0108 5A60     		str	r2, [r3, #4]
 910              	.LVL101:
 911              	.LBE324:
 912              	.LBE323:
 913              	.LBB325:
 914              	.LBB326:
 915              		.loc 2 817 0
 916 010a 0122     		movs	r2, #1
 917 010c 9A60     		str	r2, [r3, #8]
 918 010e 10BD     		pop	{r4, pc}
 919              	.LVL102:
 920              	.L47:
 921              	.LBE326:
 922              	.LBE325:
 288:main_cm4.c    ****             Cy_GPIO_Write(PA0_0_PORT, PA0_0_NUM, 1UL);
 923              		.loc 1 288 0
 924 0110 2C48     		ldr	r0, .L53+48
 925 0112 FFF7FEFF 		bl	puts
 926              	.LVL103:
 927              	.LBB327:
 928              	.LBB328:
 929              		.loc 2 817 0
 930 0116 224B     		ldr	r3, .L53+12
 931 0118 0822     		movs	r2, #8
 932 011a 9A60     		str	r2, [r3, #8]
 933              	.LVL104:
 934              	.LBE328:
 935              	.LBE327:
 936              	.LBB329:
ARM GAS  C:\Users\seeho\AppData\Local\Temp\ccUkk7Dc.s 			page 47


 937              	.LBB330:
 813:Generated_Source\PSoC6\pdl\drivers/peripheral/gpio/cy_gpio.h ****     }
 938              		.loc 2 813 0
 939 011c 0422     		movs	r2, #4
 940 011e 5A60     		str	r2, [r3, #4]
 941              	.LVL105:
 942              	.LBE330:
 943              	.LBE329:
 944              	.LBB331:
 945              	.LBB332:
 946 0120 0222     		movs	r2, #2
 947 0122 5A60     		str	r2, [r3, #4]
 948              	.LVL106:
 949              	.LBE332:
 950              	.LBE331:
 951              	.LBB333:
 952              	.LBB334:
 953              		.loc 2 817 0
 954 0124 0122     		movs	r2, #1
 955 0126 9A60     		str	r2, [r3, #8]
 956 0128 10BD     		pop	{r4, pc}
 957              	.LVL107:
 958              	.L48:
 959              	.LBE334:
 960              	.LBE333:
 296:main_cm4.c    ****             Cy_GPIO_Write(PA0_0_PORT, PA0_0_NUM, 0UL);
 961              		.loc 1 296 0
 962 012a 2748     		ldr	r0, .L53+52
 963 012c FFF7FEFF 		bl	puts
 964              	.LVL108:
 965              	.LBB335:
 966              	.LBB336:
 813:Generated_Source\PSoC6\pdl\drivers/peripheral/gpio/cy_gpio.h ****     }
 967              		.loc 2 813 0
 968 0130 1B4B     		ldr	r3, .L53+12
 969 0132 0822     		movs	r2, #8
 970 0134 5A60     		str	r2, [r3, #4]
 971              	.LVL109:
 972              	.LBE336:
 973              	.LBE335:
 974              	.LBB337:
 975              	.LBB338:
 976              		.loc 2 817 0
 977 0136 0422     		movs	r2, #4
 978 0138 9A60     		str	r2, [r3, #8]
 979              	.LVL110:
 980              	.LBE338:
 981              	.LBE337:
 982              	.LBB339:
 983              	.LBB340:
 813:Generated_Source\PSoC6\pdl\drivers/peripheral/gpio/cy_gpio.h ****     }
 984              		.loc 2 813 0
 985 013a 0222     		movs	r2, #2
 986 013c 5A60     		str	r2, [r3, #4]
 987              	.LVL111:
 988              	.LBE340:
 989              	.LBE339:
ARM GAS  C:\Users\seeho\AppData\Local\Temp\ccUkk7Dc.s 			page 48


 990              	.LBB341:
 991              	.LBB342:
 992              		.loc 2 817 0
 993 013e 0122     		movs	r2, #1
 994 0140 9A60     		str	r2, [r3, #8]
 995 0142 10BD     		pop	{r4, pc}
 996              	.LVL112:
 997              	.L49:
 998              	.LBE342:
 999              	.LBE341:
 304:main_cm4.c    ****             Cy_GPIO_Write(PA0_0_PORT, PA0_0_NUM, 1UL);
 1000              		.loc 1 304 0
 1001 0144 2148     		ldr	r0, .L53+56
 1002 0146 FFF7FEFF 		bl	puts
 1003              	.LVL113:
 1004              	.LBB343:
 1005              	.LBB344:
 1006              		.loc 2 817 0
 1007 014a 154B     		ldr	r3, .L53+12
 1008 014c 0822     		movs	r2, #8
 1009 014e 9A60     		str	r2, [r3, #8]
 1010              	.LVL114:
 1011              	.LBE344:
 1012              	.LBE343:
 1013              	.LBB345:
 1014              	.LBB346:
 1015 0150 0422     		movs	r2, #4
 1016 0152 9A60     		str	r2, [r3, #8]
 1017              	.LVL115:
 1018              	.LBE346:
 1019              	.LBE345:
 1020              	.LBB347:
 1021              	.LBB348:
 813:Generated_Source\PSoC6\pdl\drivers/peripheral/gpio/cy_gpio.h ****     }
 1022              		.loc 2 813 0
 1023 0154 0222     		movs	r2, #2
 1024 0156 5A60     		str	r2, [r3, #4]
 1025              	.LVL116:
 1026              	.LBE348:
 1027              	.LBE347:
 1028              	.LBB349:
 1029              	.LBB350:
 1030              		.loc 2 817 0
 1031 0158 0122     		movs	r2, #1
 1032 015a 9A60     		str	r2, [r3, #8]
 1033 015c 10BD     		pop	{r4, pc}
 1034              	.LVL117:
 1035              	.L50:
 1036              	.LBE350:
 1037              	.LBE349:
 312:main_cm4.c    ****             Cy_GPIO_Write(PA0_0_PORT, PA0_0_NUM, 0UL);
 1038              		.loc 1 312 0
 1039 015e 1C48     		ldr	r0, .L53+60
 1040 0160 FFF7FEFF 		bl	puts
 1041              	.LVL118:
 1042              	.LBB351:
 1043              	.LBB352:
ARM GAS  C:\Users\seeho\AppData\Local\Temp\ccUkk7Dc.s 			page 49


 813:Generated_Source\PSoC6\pdl\drivers/peripheral/gpio/cy_gpio.h ****     }
 1044              		.loc 2 813 0
 1045 0164 0E4B     		ldr	r3, .L53+12
 1046 0166 0822     		movs	r2, #8
 1047 0168 5A60     		str	r2, [r3, #4]
 1048              	.LVL119:
 1049              	.LBE352:
 1050              	.LBE351:
 1051              	.LBB353:
 1052              	.LBB354:
 1053 016a 0422     		movs	r2, #4
 1054 016c 5A60     		str	r2, [r3, #4]
 1055              	.LVL120:
 1056              	.LBE354:
 1057              	.LBE353:
 1058              	.LBB355:
 1059              	.LBB356:
 1060              		.loc 2 817 0
 1061 016e 0222     		movs	r2, #2
 1062 0170 9A60     		str	r2, [r3, #8]
 1063              	.LVL121:
 1064              	.LBE356:
 1065              	.LBE355:
 1066              	.LBB357:
 1067              	.LBB358:
 1068 0172 0122     		movs	r2, #1
 1069 0174 9A60     		str	r2, [r3, #8]
 1070 0176 10BD     		pop	{r4, pc}
 1071              	.LVL122:
 1072              	.L36:
 1073              	.LBE358:
 1074              	.LBE357:
 320:main_cm4.c    ****             Cy_GPIO_Write(PA0_0_PORT, PA0_0_NUM, 1UL);
 1075              		.loc 1 320 0
 1076 0178 1648     		ldr	r0, .L53+64
 1077 017a FFF7FEFF 		bl	puts
 1078              	.LVL123:
 1079              	.LBB359:
 1080              	.LBB360:
 1081              		.loc 2 817 0
 1082 017e 084B     		ldr	r3, .L53+12
 1083 0180 0822     		movs	r2, #8
 1084 0182 9A60     		str	r2, [r3, #8]
 1085              	.LVL124:
 1086              	.LBE360:
 1087              	.LBE359:
 1088              	.LBB361:
 1089              	.LBB362:
 1090 0184 0422     		movs	r2, #4
 1091 0186 9A60     		str	r2, [r3, #8]
 1092              	.LVL125:
 1093              	.LBE362:
 1094              	.LBE361:
 1095              	.LBB363:
 1096              	.LBB364:
 1097 0188 0222     		movs	r2, #2
 1098 018a 9A60     		str	r2, [r3, #8]
ARM GAS  C:\Users\seeho\AppData\Local\Temp\ccUkk7Dc.s 			page 50


 1099              	.LVL126:
 1100              	.LBE364:
 1101              	.LBE363:
 1102              	.LBB365:
 1103              	.LBB366:
 1104 018c 0122     		movs	r2, #1
 1105 018e 9A60     		str	r2, [r3, #8]
 1106 0190 10BD     		pop	{r4, pc}
 1107              	.L54:
 1108 0192 00BF     		.align	2
 1109              	.L53:
 1110 0194 00000000 		.word	.LANCHOR1
 1111 0198 78010000 		.word	.LC11
 1112 019c 90010000 		.word	.LC12
 1113 01a0 80043240 		.word	1077019776
 1114 01a4 9C010000 		.word	.LC13
 1115 01a8 A8010000 		.word	.LC14
 1116 01ac B4010000 		.word	.LC15
 1117 01b0 C0010000 		.word	.LC16
 1118 01b4 CC010000 		.word	.LC17
 1119 01b8 D8010000 		.word	.LC18
 1120 01bc E4010000 		.word	.LC19
 1121 01c0 F0010000 		.word	.LC20
 1122 01c4 FC010000 		.word	.LC21
 1123 01c8 08020000 		.word	.LC22
 1124 01cc 14020000 		.word	.LC23
 1125 01d0 20020000 		.word	.LC24
 1126 01d4 2C020000 		.word	.LC25
 1127              	.LBE366:
 1128              	.LBE365:
 1129              		.cfi_endproc
 1130              	.LFE643:
 1131              		.size	writeDisplayPA, .-writeDisplayPA
 1132              		.section	.text.writeDisplayMUX,"ax",%progbits
 1133              		.align	2
 1134              		.global	writeDisplayMUX
 1135              		.thumb
 1136              		.thumb_func
 1137              		.type	writeDisplayMUX, %function
 1138              	writeDisplayMUX:
 1139              	.LFB644:
 337:main_cm4.c    ****     printf("MUX GATT Client: %x \r\n", valMUX);
 1140              		.loc 1 337 0
 1141              		.cfi_startproc
 1142              		@ args = 0, pretend = 0, frame = 0
 1143              		@ frame_needed = 0, uses_anonymous_args = 0
 1144 0000 10B5     		push	{r4, lr}
 1145              		.cfi_def_cfa_offset 8
 1146              		.cfi_offset 4, -8
 1147              		.cfi_offset 14, -4
 338:main_cm4.c    ****     
 1148              		.loc 1 338 0
 1149 0002 754C     		ldr	r4, .L75
 1150 0004 2168     		ldr	r1, [r4]
 1151 0006 7548     		ldr	r0, .L75+4
 1152 0008 FFF7FEFF 		bl	printf
 1153              	.LVL127:
ARM GAS  C:\Users\seeho\AppData\Local\Temp\ccUkk7Dc.s 			page 51


 340:main_cm4.c    **** 	{
 1154              		.loc 1 340 0
 1155 000c 2368     		ldr	r3, [r4]
 1156 000e 0E2B     		cmp	r3, #14
 1157 0010 00F2D480 		bhi	.L56
 1158 0014 DFE813F0 		tbh	[pc, r3, lsl #1]
 1159              	.L58:
 1160 0018 0F00     		.2byte	(.L57-.L58)/2
 1161 001a 1C00     		.2byte	(.L59-.L58)/2
 1162 001c 2900     		.2byte	(.L60-.L58)/2
 1163 001e 3600     		.2byte	(.L61-.L58)/2
 1164 0020 4300     		.2byte	(.L62-.L58)/2
 1165 0022 5000     		.2byte	(.L63-.L58)/2
 1166 0024 5D00     		.2byte	(.L64-.L58)/2
 1167 0026 6A00     		.2byte	(.L65-.L58)/2
 1168 0028 7700     		.2byte	(.L66-.L58)/2
 1169 002a 8400     		.2byte	(.L67-.L58)/2
 1170 002c 9100     		.2byte	(.L68-.L58)/2
 1171 002e 9E00     		.2byte	(.L69-.L58)/2
 1172 0030 AB00     		.2byte	(.L70-.L58)/2
 1173 0032 B800     		.2byte	(.L71-.L58)/2
 1174 0034 C500     		.2byte	(.L72-.L58)/2
 1175              		.p2align 1
 1176              	.L57:
 343:main_cm4.c    ****             Cy_GPIO_Write(MUX0_0_PORT, MUX0_0_NUM, 0UL);
 1177              		.loc 1 343 0
 1178 0036 6A48     		ldr	r0, .L75+8
 1179 0038 FFF7FEFF 		bl	puts
 1180              	.LVL128:
 1181              	.LBB367:
 1182              	.LBB368:
 813:Generated_Source\PSoC6\pdl\drivers/peripheral/gpio/cy_gpio.h ****     }
 1183              		.loc 2 813 0
 1184 003c 694B     		ldr	r3, .L75+12
 1185 003e 0422     		movs	r2, #4
 1186 0040 5A60     		str	r2, [r3, #4]
 1187              	.LVL129:
 1188              	.LBE368:
 1189              	.LBE367:
 1190              	.LBB369:
 1191              	.LBB370:
 1192 0042 0822     		movs	r2, #8
 1193 0044 5A60     		str	r2, [r3, #4]
 1194              	.LVL130:
 1195              	.LBE370:
 1196              	.LBE369:
 1197              	.LBB371:
 1198              	.LBB372:
 1199 0046 1022     		movs	r2, #16
 1200 0048 5A60     		str	r2, [r3, #4]
 1201              	.LVL131:
 1202              	.LBE372:
 1203              	.LBE371:
 1204              	.LBB373:
 1205              	.LBB374:
 1206 004a 2022     		movs	r2, #32
 1207 004c 5A60     		str	r2, [r3, #4]
ARM GAS  C:\Users\seeho\AppData\Local\Temp\ccUkk7Dc.s 			page 52


 1208 004e 10BD     		pop	{r4, pc}
 1209              	.LVL132:
 1210              	.L59:
 1211              	.LBE374:
 1212              	.LBE373:
 351:main_cm4.c    ****             Cy_GPIO_Write(MUX0_0_PORT, MUX0_0_NUM, 1UL);
 1213              		.loc 1 351 0
 1214 0050 6548     		ldr	r0, .L75+16
 1215 0052 FFF7FEFF 		bl	puts
 1216              	.LVL133:
 1217              	.LBB375:
 1218              	.LBB376:
 1219              		.loc 2 817 0
 1220 0056 634B     		ldr	r3, .L75+12
 1221 0058 0422     		movs	r2, #4
 1222 005a 9A60     		str	r2, [r3, #8]
 1223              	.LVL134:
 1224              	.LBE376:
 1225              	.LBE375:
 1226              	.LBB377:
 1227              	.LBB378:
 813:Generated_Source\PSoC6\pdl\drivers/peripheral/gpio/cy_gpio.h ****     }
 1228              		.loc 2 813 0
 1229 005c 0822     		movs	r2, #8
 1230 005e 5A60     		str	r2, [r3, #4]
 1231              	.LVL135:
 1232              	.LBE378:
 1233              	.LBE377:
 1234              	.LBB379:
 1235              	.LBB380:
 1236 0060 1022     		movs	r2, #16
 1237 0062 5A60     		str	r2, [r3, #4]
 1238              	.LVL136:
 1239              	.LBE380:
 1240              	.LBE379:
 1241              	.LBB381:
 1242              	.LBB382:
 1243 0064 2022     		movs	r2, #32
 1244 0066 5A60     		str	r2, [r3, #4]
 1245 0068 10BD     		pop	{r4, pc}
 1246              	.LVL137:
 1247              	.L60:
 1248              	.LBE382:
 1249              	.LBE381:
 359:main_cm4.c    ****             Cy_GPIO_Write(MUX0_0_PORT, MUX0_0_NUM, 0UL);
 1250              		.loc 1 359 0
 1251 006a 6048     		ldr	r0, .L75+20
 1252 006c FFF7FEFF 		bl	puts
 1253              	.LVL138:
 1254              	.LBB383:
 1255              	.LBB384:
 813:Generated_Source\PSoC6\pdl\drivers/peripheral/gpio/cy_gpio.h ****     }
 1256              		.loc 2 813 0
 1257 0070 5C4B     		ldr	r3, .L75+12
 1258 0072 0422     		movs	r2, #4
 1259 0074 5A60     		str	r2, [r3, #4]
 1260              	.LVL139:
ARM GAS  C:\Users\seeho\AppData\Local\Temp\ccUkk7Dc.s 			page 53


 1261              	.LBE384:
 1262              	.LBE383:
 1263              	.LBB385:
 1264              	.LBB386:
 1265              		.loc 2 817 0
 1266 0076 0822     		movs	r2, #8
 1267 0078 9A60     		str	r2, [r3, #8]
 1268              	.LVL140:
 1269              	.LBE386:
 1270              	.LBE385:
 1271              	.LBB387:
 1272              	.LBB388:
 813:Generated_Source\PSoC6\pdl\drivers/peripheral/gpio/cy_gpio.h ****     }
 1273              		.loc 2 813 0
 1274 007a 1022     		movs	r2, #16
 1275 007c 5A60     		str	r2, [r3, #4]
 1276              	.LVL141:
 1277              	.LBE388:
 1278              	.LBE387:
 1279              	.LBB389:
 1280              	.LBB390:
 1281 007e 2022     		movs	r2, #32
 1282 0080 5A60     		str	r2, [r3, #4]
 1283 0082 10BD     		pop	{r4, pc}
 1284              	.LVL142:
 1285              	.L61:
 1286              	.LBE390:
 1287              	.LBE389:
 367:main_cm4.c    ****             Cy_GPIO_Write(MUX0_0_PORT, MUX0_0_NUM, 1UL);
 1288              		.loc 1 367 0
 1289 0084 5A48     		ldr	r0, .L75+24
 1290 0086 FFF7FEFF 		bl	puts
 1291              	.LVL143:
 1292              	.LBB391:
 1293              	.LBB392:
 1294              		.loc 2 817 0
 1295 008a 564B     		ldr	r3, .L75+12
 1296 008c 0422     		movs	r2, #4
 1297 008e 9A60     		str	r2, [r3, #8]
 1298              	.LVL144:
 1299              	.LBE392:
 1300              	.LBE391:
 1301              	.LBB393:
 1302              	.LBB394:
 1303 0090 0822     		movs	r2, #8
 1304 0092 9A60     		str	r2, [r3, #8]
 1305              	.LVL145:
 1306              	.LBE394:
 1307              	.LBE393:
 1308              	.LBB395:
 1309              	.LBB396:
 813:Generated_Source\PSoC6\pdl\drivers/peripheral/gpio/cy_gpio.h ****     }
 1310              		.loc 2 813 0
 1311 0094 1022     		movs	r2, #16
 1312 0096 5A60     		str	r2, [r3, #4]
 1313              	.LVL146:
 1314              	.LBE396:
ARM GAS  C:\Users\seeho\AppData\Local\Temp\ccUkk7Dc.s 			page 54


 1315              	.LBE395:
 1316              	.LBB397:
 1317              	.LBB398:
 1318 0098 2022     		movs	r2, #32
 1319 009a 5A60     		str	r2, [r3, #4]
 1320 009c 10BD     		pop	{r4, pc}
 1321              	.LVL147:
 1322              	.L62:
 1323              	.LBE398:
 1324              	.LBE397:
 375:main_cm4.c    ****             Cy_GPIO_Write(MUX0_0_PORT, MUX0_0_NUM, 0UL);
 1325              		.loc 1 375 0
 1326 009e 5548     		ldr	r0, .L75+28
 1327 00a0 FFF7FEFF 		bl	puts
 1328              	.LVL148:
 1329              	.LBB399:
 1330              	.LBB400:
 813:Generated_Source\PSoC6\pdl\drivers/peripheral/gpio/cy_gpio.h ****     }
 1331              		.loc 2 813 0
 1332 00a4 4F4B     		ldr	r3, .L75+12
 1333 00a6 0422     		movs	r2, #4
 1334 00a8 5A60     		str	r2, [r3, #4]
 1335              	.LVL149:
 1336              	.LBE400:
 1337              	.LBE399:
 1338              	.LBB401:
 1339              	.LBB402:
 1340 00aa 0822     		movs	r2, #8
 1341 00ac 5A60     		str	r2, [r3, #4]
 1342              	.LVL150:
 1343              	.LBE402:
 1344              	.LBE401:
 1345              	.LBB403:
 1346              	.LBB404:
 1347              		.loc 2 817 0
 1348 00ae 1022     		movs	r2, #16
 1349 00b0 9A60     		str	r2, [r3, #8]
 1350              	.LVL151:
 1351              	.LBE404:
 1352              	.LBE403:
 1353              	.LBB405:
 1354              	.LBB406:
 813:Generated_Source\PSoC6\pdl\drivers/peripheral/gpio/cy_gpio.h ****     }
 1355              		.loc 2 813 0
 1356 00b2 2022     		movs	r2, #32
 1357 00b4 5A60     		str	r2, [r3, #4]
 1358 00b6 10BD     		pop	{r4, pc}
 1359              	.LVL152:
 1360              	.L63:
 1361              	.LBE406:
 1362              	.LBE405:
 383:main_cm4.c    ****             Cy_GPIO_Write(MUX0_0_PORT, MUX0_0_NUM, 1UL);
 1363              		.loc 1 383 0
 1364 00b8 4F48     		ldr	r0, .L75+32
 1365 00ba FFF7FEFF 		bl	puts
 1366              	.LVL153:
 1367              	.LBB407:
ARM GAS  C:\Users\seeho\AppData\Local\Temp\ccUkk7Dc.s 			page 55


 1368              	.LBB408:
 1369              		.loc 2 817 0
 1370 00be 494B     		ldr	r3, .L75+12
 1371 00c0 0422     		movs	r2, #4
 1372 00c2 9A60     		str	r2, [r3, #8]
 1373              	.LVL154:
 1374              	.LBE408:
 1375              	.LBE407:
 1376              	.LBB409:
 1377              	.LBB410:
 813:Generated_Source\PSoC6\pdl\drivers/peripheral/gpio/cy_gpio.h ****     }
 1378              		.loc 2 813 0
 1379 00c4 0822     		movs	r2, #8
 1380 00c6 5A60     		str	r2, [r3, #4]
 1381              	.LVL155:
 1382              	.LBE410:
 1383              	.LBE409:
 1384              	.LBB411:
 1385              	.LBB412:
 1386              		.loc 2 817 0
 1387 00c8 1022     		movs	r2, #16
 1388 00ca 9A60     		str	r2, [r3, #8]
 1389              	.LVL156:
 1390              	.LBE412:
 1391              	.LBE411:
 1392              	.LBB413:
 1393              	.LBB414:
 813:Generated_Source\PSoC6\pdl\drivers/peripheral/gpio/cy_gpio.h ****     }
 1394              		.loc 2 813 0
 1395 00cc 2022     		movs	r2, #32
 1396 00ce 5A60     		str	r2, [r3, #4]
 1397 00d0 10BD     		pop	{r4, pc}
 1398              	.LVL157:
 1399              	.L64:
 1400              	.LBE414:
 1401              	.LBE413:
 391:main_cm4.c    ****             Cy_GPIO_Write(MUX0_0_PORT, MUX0_0_NUM, 0UL);
 1402              		.loc 1 391 0
 1403 00d2 4A48     		ldr	r0, .L75+36
 1404 00d4 FFF7FEFF 		bl	puts
 1405              	.LVL158:
 1406              	.LBB415:
 1407              	.LBB416:
 813:Generated_Source\PSoC6\pdl\drivers/peripheral/gpio/cy_gpio.h ****     }
 1408              		.loc 2 813 0
 1409 00d8 424B     		ldr	r3, .L75+12
 1410 00da 0422     		movs	r2, #4
 1411 00dc 5A60     		str	r2, [r3, #4]
 1412              	.LVL159:
 1413              	.LBE416:
 1414              	.LBE415:
 1415              	.LBB417:
 1416              	.LBB418:
 1417              		.loc 2 817 0
 1418 00de 0822     		movs	r2, #8
 1419 00e0 9A60     		str	r2, [r3, #8]
 1420              	.LVL160:
ARM GAS  C:\Users\seeho\AppData\Local\Temp\ccUkk7Dc.s 			page 56


 1421              	.LBE418:
 1422              	.LBE417:
 1423              	.LBB419:
 1424              	.LBB420:
 1425 00e2 1022     		movs	r2, #16
 1426 00e4 9A60     		str	r2, [r3, #8]
 1427              	.LVL161:
 1428              	.LBE420:
 1429              	.LBE419:
 1430              	.LBB421:
 1431              	.LBB422:
 813:Generated_Source\PSoC6\pdl\drivers/peripheral/gpio/cy_gpio.h ****     }
 1432              		.loc 2 813 0
 1433 00e6 2022     		movs	r2, #32
 1434 00e8 5A60     		str	r2, [r3, #4]
 1435 00ea 10BD     		pop	{r4, pc}
 1436              	.LVL162:
 1437              	.L65:
 1438              	.LBE422:
 1439              	.LBE421:
 399:main_cm4.c    ****             Cy_GPIO_Write(MUX0_0_PORT, MUX0_0_NUM, 1UL);
 1440              		.loc 1 399 0
 1441 00ec 4448     		ldr	r0, .L75+40
 1442 00ee FFF7FEFF 		bl	puts
 1443              	.LVL163:
 1444              	.LBB423:
 1445              	.LBB424:
 1446              		.loc 2 817 0
 1447 00f2 3C4B     		ldr	r3, .L75+12
 1448 00f4 0422     		movs	r2, #4
 1449 00f6 9A60     		str	r2, [r3, #8]
 1450              	.LVL164:
 1451              	.LBE424:
 1452              	.LBE423:
 1453              	.LBB425:
 1454              	.LBB426:
 1455 00f8 0822     		movs	r2, #8
 1456 00fa 9A60     		str	r2, [r3, #8]
 1457              	.LVL165:
 1458              	.LBE426:
 1459              	.LBE425:
 1460              	.LBB427:
 1461              	.LBB428:
 1462 00fc 1022     		movs	r2, #16
 1463 00fe 9A60     		str	r2, [r3, #8]
 1464              	.LVL166:
 1465              	.LBE428:
 1466              	.LBE427:
 1467              	.LBB429:
 1468              	.LBB430:
 813:Generated_Source\PSoC6\pdl\drivers/peripheral/gpio/cy_gpio.h ****     }
 1469              		.loc 2 813 0
 1470 0100 2022     		movs	r2, #32
 1471 0102 5A60     		str	r2, [r3, #4]
 1472 0104 10BD     		pop	{r4, pc}
 1473              	.LVL167:
 1474              	.L66:
ARM GAS  C:\Users\seeho\AppData\Local\Temp\ccUkk7Dc.s 			page 57


 1475              	.LBE430:
 1476              	.LBE429:
 407:main_cm4.c    ****             Cy_GPIO_Write(MUX0_0_PORT, MUX0_0_NUM, 0UL);
 1477              		.loc 1 407 0
 1478 0106 3F48     		ldr	r0, .L75+44
 1479 0108 FFF7FEFF 		bl	puts
 1480              	.LVL168:
 1481              	.LBB431:
 1482              	.LBB432:
 813:Generated_Source\PSoC6\pdl\drivers/peripheral/gpio/cy_gpio.h ****     }
 1483              		.loc 2 813 0
 1484 010c 354B     		ldr	r3, .L75+12
 1485 010e 0422     		movs	r2, #4
 1486 0110 5A60     		str	r2, [r3, #4]
 1487              	.LVL169:
 1488              	.LBE432:
 1489              	.LBE431:
 1490              	.LBB433:
 1491              	.LBB434:
 1492 0112 0822     		movs	r2, #8
 1493 0114 5A60     		str	r2, [r3, #4]
 1494              	.LVL170:
 1495              	.LBE434:
 1496              	.LBE433:
 1497              	.LBB435:
 1498              	.LBB436:
 1499 0116 1022     		movs	r2, #16
 1500 0118 5A60     		str	r2, [r3, #4]
 1501              	.LVL171:
 1502              	.LBE436:
 1503              	.LBE435:
 1504              	.LBB437:
 1505              	.LBB438:
 1506              		.loc 2 817 0
 1507 011a 2022     		movs	r2, #32
 1508 011c 9A60     		str	r2, [r3, #8]
 1509 011e 10BD     		pop	{r4, pc}
 1510              	.LVL172:
 1511              	.L67:
 1512              	.LBE438:
 1513              	.LBE437:
 415:main_cm4.c    ****             Cy_GPIO_Write(MUX0_0_PORT, MUX0_0_NUM, 1UL);
 1514              		.loc 1 415 0
 1515 0120 3948     		ldr	r0, .L75+48
 1516 0122 FFF7FEFF 		bl	puts
 1517              	.LVL173:
 1518              	.LBB439:
 1519              	.LBB440:
 1520              		.loc 2 817 0
 1521 0126 2F4B     		ldr	r3, .L75+12
 1522 0128 0422     		movs	r2, #4
 1523 012a 9A60     		str	r2, [r3, #8]
 1524              	.LVL174:
 1525              	.LBE440:
 1526              	.LBE439:
 1527              	.LBB441:
 1528              	.LBB442:
ARM GAS  C:\Users\seeho\AppData\Local\Temp\ccUkk7Dc.s 			page 58


 813:Generated_Source\PSoC6\pdl\drivers/peripheral/gpio/cy_gpio.h ****     }
 1529              		.loc 2 813 0
 1530 012c 0822     		movs	r2, #8
 1531 012e 5A60     		str	r2, [r3, #4]
 1532              	.LVL175:
 1533              	.LBE442:
 1534              	.LBE441:
 1535              	.LBB443:
 1536              	.LBB444:
 1537 0130 1022     		movs	r2, #16
 1538 0132 5A60     		str	r2, [r3, #4]
 1539              	.LVL176:
 1540              	.LBE444:
 1541              	.LBE443:
 1542              	.LBB445:
 1543              	.LBB446:
 1544              		.loc 2 817 0
 1545 0134 2022     		movs	r2, #32
 1546 0136 9A60     		str	r2, [r3, #8]
 1547 0138 10BD     		pop	{r4, pc}
 1548              	.LVL177:
 1549              	.L68:
 1550              	.LBE446:
 1551              	.LBE445:
 423:main_cm4.c    ****             Cy_GPIO_Write(MUX0_0_PORT, MUX0_0_NUM, 0UL);
 1552              		.loc 1 423 0
 1553 013a 3448     		ldr	r0, .L75+52
 1554 013c FFF7FEFF 		bl	puts
 1555              	.LVL178:
 1556              	.LBB447:
 1557              	.LBB448:
 813:Generated_Source\PSoC6\pdl\drivers/peripheral/gpio/cy_gpio.h ****     }
 1558              		.loc 2 813 0
 1559 0140 284B     		ldr	r3, .L75+12
 1560 0142 0422     		movs	r2, #4
 1561 0144 5A60     		str	r2, [r3, #4]
 1562              	.LVL179:
 1563              	.LBE448:
 1564              	.LBE447:
 1565              	.LBB449:
 1566              	.LBB450:
 1567              		.loc 2 817 0
 1568 0146 0822     		movs	r2, #8
 1569 0148 9A60     		str	r2, [r3, #8]
 1570              	.LVL180:
 1571              	.LBE450:
 1572              	.LBE449:
 1573              	.LBB451:
 1574              	.LBB452:
 813:Generated_Source\PSoC6\pdl\drivers/peripheral/gpio/cy_gpio.h ****     }
 1575              		.loc 2 813 0
 1576 014a 1022     		movs	r2, #16
 1577 014c 5A60     		str	r2, [r3, #4]
 1578              	.LVL181:
 1579              	.LBE452:
 1580              	.LBE451:
 1581              	.LBB453:
ARM GAS  C:\Users\seeho\AppData\Local\Temp\ccUkk7Dc.s 			page 59


 1582              	.LBB454:
 1583              		.loc 2 817 0
 1584 014e 2022     		movs	r2, #32
 1585 0150 9A60     		str	r2, [r3, #8]
 1586 0152 10BD     		pop	{r4, pc}
 1587              	.LVL182:
 1588              	.L69:
 1589              	.LBE454:
 1590              	.LBE453:
 431:main_cm4.c    ****             Cy_GPIO_Write(MUX0_0_PORT, MUX0_0_NUM, 1UL);
 1591              		.loc 1 431 0
 1592 0154 2E48     		ldr	r0, .L75+56
 1593 0156 FFF7FEFF 		bl	puts
 1594              	.LVL183:
 1595              	.LBB455:
 1596              	.LBB456:
 1597              		.loc 2 817 0
 1598 015a 224B     		ldr	r3, .L75+12
 1599 015c 0422     		movs	r2, #4
 1600 015e 9A60     		str	r2, [r3, #8]
 1601              	.LVL184:
 1602              	.LBE456:
 1603              	.LBE455:
 1604              	.LBB457:
 1605              	.LBB458:
 1606 0160 0822     		movs	r2, #8
 1607 0162 9A60     		str	r2, [r3, #8]
 1608              	.LVL185:
 1609              	.LBE458:
 1610              	.LBE457:
 1611              	.LBB459:
 1612              	.LBB460:
 813:Generated_Source\PSoC6\pdl\drivers/peripheral/gpio/cy_gpio.h ****     }
 1613              		.loc 2 813 0
 1614 0164 1022     		movs	r2, #16
 1615 0166 5A60     		str	r2, [r3, #4]
 1616              	.LVL186:
 1617              	.LBE460:
 1618              	.LBE459:
 1619              	.LBB461:
 1620              	.LBB462:
 1621              		.loc 2 817 0
 1622 0168 2022     		movs	r2, #32
 1623 016a 9A60     		str	r2, [r3, #8]
 1624 016c 10BD     		pop	{r4, pc}
 1625              	.LVL187:
 1626              	.L70:
 1627              	.LBE462:
 1628              	.LBE461:
 439:main_cm4.c    ****             Cy_GPIO_Write(MUX0_0_PORT, MUX0_0_NUM, 0UL);
 1629              		.loc 1 439 0
 1630 016e 2948     		ldr	r0, .L75+60
 1631 0170 FFF7FEFF 		bl	puts
 1632              	.LVL188:
 1633              	.LBB463:
 1634              	.LBB464:
 813:Generated_Source\PSoC6\pdl\drivers/peripheral/gpio/cy_gpio.h ****     }
ARM GAS  C:\Users\seeho\AppData\Local\Temp\ccUkk7Dc.s 			page 60


 1635              		.loc 2 813 0
 1636 0174 1B4B     		ldr	r3, .L75+12
 1637 0176 0422     		movs	r2, #4
 1638 0178 5A60     		str	r2, [r3, #4]
 1639              	.LVL189:
 1640              	.LBE464:
 1641              	.LBE463:
 1642              	.LBB465:
 1643              	.LBB466:
 1644 017a 0822     		movs	r2, #8
 1645 017c 5A60     		str	r2, [r3, #4]
 1646              	.LVL190:
 1647              	.LBE466:
 1648              	.LBE465:
 1649              	.LBB467:
 1650              	.LBB468:
 1651              		.loc 2 817 0
 1652 017e 1022     		movs	r2, #16
 1653 0180 9A60     		str	r2, [r3, #8]
 1654              	.LVL191:
 1655              	.LBE468:
 1656              	.LBE467:
 1657              	.LBB469:
 1658              	.LBB470:
 1659 0182 2022     		movs	r2, #32
 1660 0184 9A60     		str	r2, [r3, #8]
 1661 0186 10BD     		pop	{r4, pc}
 1662              	.LVL192:
 1663              	.L71:
 1664              	.LBE470:
 1665              	.LBE469:
 447:main_cm4.c    ****             Cy_GPIO_Write(MUX0_0_PORT, MUX0_0_NUM, 1UL);
 1666              		.loc 1 447 0
 1667 0188 2348     		ldr	r0, .L75+64
 1668 018a FFF7FEFF 		bl	puts
 1669              	.LVL193:
 1670              	.LBB471:
 1671              	.LBB472:
 1672              		.loc 2 817 0
 1673 018e 154B     		ldr	r3, .L75+12
 1674 0190 0422     		movs	r2, #4
 1675 0192 9A60     		str	r2, [r3, #8]
 1676              	.LVL194:
 1677              	.LBE472:
 1678              	.LBE471:
 1679              	.LBB473:
 1680              	.LBB474:
 813:Generated_Source\PSoC6\pdl\drivers/peripheral/gpio/cy_gpio.h ****     }
 1681              		.loc 2 813 0
 1682 0194 0822     		movs	r2, #8
 1683 0196 5A60     		str	r2, [r3, #4]
 1684              	.LVL195:
 1685              	.LBE474:
 1686              	.LBE473:
 1687              	.LBB475:
 1688              	.LBB476:
 1689              		.loc 2 817 0
ARM GAS  C:\Users\seeho\AppData\Local\Temp\ccUkk7Dc.s 			page 61


 1690 0198 1022     		movs	r2, #16
 1691 019a 9A60     		str	r2, [r3, #8]
 1692              	.LVL196:
 1693              	.LBE476:
 1694              	.LBE475:
 1695              	.LBB477:
 1696              	.LBB478:
 1697 019c 2022     		movs	r2, #32
 1698 019e 9A60     		str	r2, [r3, #8]
 1699 01a0 10BD     		pop	{r4, pc}
 1700              	.LVL197:
 1701              	.L72:
 1702              	.LBE478:
 1703              	.LBE477:
 455:main_cm4.c    ****             Cy_GPIO_Write(MUX0_0_PORT, MUX0_0_NUM, 0UL);
 1704              		.loc 1 455 0
 1705 01a2 1E48     		ldr	r0, .L75+68
 1706 01a4 FFF7FEFF 		bl	puts
 1707              	.LVL198:
 1708              	.LBB479:
 1709              	.LBB480:
 813:Generated_Source\PSoC6\pdl\drivers/peripheral/gpio/cy_gpio.h ****     }
 1710              		.loc 2 813 0
 1711 01a8 0E4B     		ldr	r3, .L75+12
 1712 01aa 0422     		movs	r2, #4
 1713 01ac 5A60     		str	r2, [r3, #4]
 1714              	.LVL199:
 1715              	.LBE480:
 1716              	.LBE479:
 1717              	.LBB481:
 1718              	.LBB482:
 1719              		.loc 2 817 0
 1720 01ae 0822     		movs	r2, #8
 1721 01b0 9A60     		str	r2, [r3, #8]
 1722              	.LVL200:
 1723              	.LBE482:
 1724              	.LBE481:
 1725              	.LBB483:
 1726              	.LBB484:
 1727 01b2 1022     		movs	r2, #16
 1728 01b4 9A60     		str	r2, [r3, #8]
 1729              	.LVL201:
 1730              	.LBE484:
 1731              	.LBE483:
 1732              	.LBB485:
 1733              	.LBB486:
 1734 01b6 2022     		movs	r2, #32
 1735 01b8 9A60     		str	r2, [r3, #8]
 1736 01ba 10BD     		pop	{r4, pc}
 1737              	.LVL202:
 1738              	.L56:
 1739              	.LBE486:
 1740              	.LBE485:
 463:main_cm4.c    ****             Cy_GPIO_Write(MUX0_0_PORT, MUX0_0_NUM, 1UL);
 1741              		.loc 1 463 0
 1742 01bc 1848     		ldr	r0, .L75+72
 1743 01be FFF7FEFF 		bl	puts
ARM GAS  C:\Users\seeho\AppData\Local\Temp\ccUkk7Dc.s 			page 62


 1744              	.LVL203:
 1745              	.LBB487:
 1746              	.LBB488:
 1747              		.loc 2 817 0
 1748 01c2 084B     		ldr	r3, .L75+12
 1749 01c4 0422     		movs	r2, #4
 1750 01c6 9A60     		str	r2, [r3, #8]
 1751              	.LVL204:
 1752              	.LBE488:
 1753              	.LBE487:
 1754              	.LBB489:
 1755              	.LBB490:
 1756 01c8 0822     		movs	r2, #8
 1757 01ca 9A60     		str	r2, [r3, #8]
 1758              	.LVL205:
 1759              	.LBE490:
 1760              	.LBE489:
 1761              	.LBB491:
 1762              	.LBB492:
 1763 01cc 1022     		movs	r2, #16
 1764 01ce 9A60     		str	r2, [r3, #8]
 1765              	.LVL206:
 1766              	.LBE492:
 1767              	.LBE491:
 1768              	.LBB493:
 1769              	.LBB494:
 1770 01d0 2022     		movs	r2, #32
 1771 01d2 9A60     		str	r2, [r3, #8]
 1772 01d4 10BD     		pop	{r4, pc}
 1773              	.L76:
 1774 01d6 00BF     		.align	2
 1775              	.L75:
 1776 01d8 00000000 		.word	.LANCHOR0
 1777 01dc 38020000 		.word	.LC26
 1778 01e0 50020000 		.word	.LC27
 1779 01e4 80023240 		.word	1077019264
 1780 01e8 60020000 		.word	.LC28
 1781 01ec 70020000 		.word	.LC29
 1782 01f0 80020000 		.word	.LC30
 1783 01f4 90020000 		.word	.LC31
 1784 01f8 A0020000 		.word	.LC32
 1785 01fc B0020000 		.word	.LC33
 1786 0200 C0020000 		.word	.LC34
 1787 0204 D0020000 		.word	.LC35
 1788 0208 E0020000 		.word	.LC36
 1789 020c F0020000 		.word	.LC37
 1790 0210 00030000 		.word	.LC38
 1791 0214 10030000 		.word	.LC39
 1792 0218 20030000 		.word	.LC40
 1793 021c 30030000 		.word	.LC41
 1794 0220 40030000 		.word	.LC42
 1795              	.LBE494:
 1796              	.LBE493:
 1797              		.cfi_endproc
 1798              	.LFE644:
 1799              		.size	writeDisplayMUX, .-writeDisplayMUX
 1800              		.section	.text.writeDisplayOSC,"ax",%progbits
ARM GAS  C:\Users\seeho\AppData\Local\Temp\ccUkk7Dc.s 			page 63


 1801              		.align	2
 1802              		.global	writeDisplayOSC
 1803              		.thumb
 1804              		.thumb_func
 1805              		.type	writeDisplayOSC, %function
 1806              	writeDisplayOSC:
 1807              	.LFB645:
 480:main_cm4.c    ****     printf("OSC Client: %x \r\n", valOSC);
 1808              		.loc 1 480 0
 1809              		.cfi_startproc
 1810              		@ args = 0, pretend = 0, frame = 0
 1811              		@ frame_needed = 0, uses_anonymous_args = 0
 1812 0000 08B5     		push	{r3, lr}
 1813              		.cfi_def_cfa_offset 8
 1814              		.cfi_offset 3, -8
 1815              		.cfi_offset 14, -4
 481:main_cm4.c    ****     /* Empty for now */
 1816              		.loc 1 481 0
 1817 0002 034B     		ldr	r3, .L79
 1818 0004 5968     		ldr	r1, [r3, #4]
 1819 0006 0348     		ldr	r0, .L79+4
 1820 0008 FFF7FEFF 		bl	printf
 1821              	.LVL207:
 1822 000c 08BD     		pop	{r3, pc}
 1823              	.L80:
 1824 000e 00BF     		.align	2
 1825              	.L79:
 1826 0010 00000000 		.word	.LANCHOR1
 1827 0014 50030000 		.word	.LC43
 1828              		.cfi_endproc
 1829              	.LFE645:
 1830              		.size	writeDisplayOSC, .-writeDisplayOSC
 1831              		.section	.text.writeDisplayMISC,"ax",%progbits
 1832              		.align	2
 1833              		.global	writeDisplayMISC
 1834              		.thumb
 1835              		.thumb_func
 1836              		.type	writeDisplayMISC, %function
 1837              	writeDisplayMISC:
 1838              	.LFB646:
 495:main_cm4.c    ****     printf("MISC GATT Client: %x \r\n", valMISC);
 1839              		.loc 1 495 0
 1840              		.cfi_startproc
 1841              		@ args = 0, pretend = 0, frame = 0
 1842              		@ frame_needed = 0, uses_anonymous_args = 0
 1843 0000 08B5     		push	{r3, lr}
 1844              		.cfi_def_cfa_offset 8
 1845              		.cfi_offset 3, -8
 1846              		.cfi_offset 14, -4
 496:main_cm4.c    ****     /* Empty for now */
 1847              		.loc 1 496 0
 1848 0002 034B     		ldr	r3, .L83
 1849 0004 9968     		ldr	r1, [r3, #8]
 1850 0006 0348     		ldr	r0, .L83+4
 1851 0008 FFF7FEFF 		bl	printf
 1852              	.LVL208:
 1853 000c 08BD     		pop	{r3, pc}
ARM GAS  C:\Users\seeho\AppData\Local\Temp\ccUkk7Dc.s 			page 64


 1854              	.L84:
 1855 000e 00BF     		.align	2
 1856              	.L83:
 1857 0010 00000000 		.word	.LANCHOR0
 1858 0014 64030000 		.word	.LC44
 1859              		.cfi_endproc
 1860              	.LFE646:
 1861              		.size	writeDisplayMISC, .-writeDisplayMISC
 1862              		.section	.text.genericEventHandler,"ax",%progbits
 1863              		.align	2
 1864              		.global	genericEventHandler
 1865              		.thumb
 1866              		.thumb_func
 1867              		.type	genericEventHandler, %function
 1868              	genericEventHandler:
 1869              	.LFB647:
 511:main_cm4.c    ****     cy_stc_ble_gatts_write_cmd_req_param_t *writeReqParameter;
 1870              		.loc 1 511 0
 1871              		.cfi_startproc
 1872              		@ args = 0, pretend = 0, frame = 0
 1873              		@ frame_needed = 0, uses_anonymous_args = 0
 1874              	.LVL209:
 1875 0000 70B5     		push	{r4, r5, r6, lr}
 1876              		.cfi_def_cfa_offset 16
 1877              		.cfi_offset 4, -16
 1878              		.cfi_offset 5, -12
 1879              		.cfi_offset 6, -8
 1880              		.cfi_offset 14, -4
 515:main_cm4.c    **** 	{
 1881              		.loc 1 515 0
 1882 0002 44F20603 		movw	r3, #16390
 1883 0006 9842     		cmp	r0, r3
 1884 0008 00F08480 		beq	.L87
 1885 000c 0D46     		mov	r5, r1
 1886 000e 1ED8     		bhi	.L88
 1887 0010 B0F5005F 		cmp	r0, #8192
 1888 0014 53D0     		beq	.L89
 1889 0016 0CD8     		bhi	.L90
 1890 0018 41F20103 		movw	r3, #4097
 1891 001c 9842     		cmp	r0, r3
 1892 001e 4AD0     		beq	.L91
 1893 0020 41F20203 		movw	r3, #4098
 1894 0024 9842     		cmp	r0, r3
 1895 0026 4ED0     		beq	.L92
 1896 0028 B0F5805F 		cmp	r0, #4096
 1897 002c 40F0F080 		bne	.L86
 1898 0030 2CE0     		b	.L93
 1899              	.L90:
 1900 0032 43F20303 		movw	r3, #12291
 1901 0036 9842     		cmp	r0, r3
 1902 0038 4ED0     		beq	.L94
 1903 003a 43F20603 		movw	r3, #12294
 1904 003e 9842     		cmp	r0, r3
 1905 0040 64D0     		beq	.L95
 1906 0042 43F20203 		movw	r3, #12290
 1907 0046 9842     		cmp	r0, r3
 1908 0048 40F0E280 		bne	.L86
ARM GAS  C:\Users\seeho\AppData\Local\Temp\ccUkk7Dc.s 			page 65


 1909 004c 40E0     		b	.L96
 1910              	.L88:
 1911 004e 45F20103 		movw	r3, #20481
 1912 0052 9842     		cmp	r0, r3
 1913 0054 6AD0     		beq	.L97
 1914 0056 09D8     		bhi	.L98
 1915 0058 44F20803 		movw	r3, #16392
 1916 005c 9842     		cmp	r0, r3
 1917 005e 18D0     		beq	.L99
 1918 0060 5CD3     		bcc	.L100
 1919 0062 44F20A03 		movw	r3, #16394
 1920 0066 9842     		cmp	r0, r3
 1921 0068 5CD0     		beq	.L101
 1922 006a D1E0     		b	.L86
 1923              	.L98:
 1924 006c 45F20303 		movw	r3, #20483
 1925 0070 9842     		cmp	r0, r3
 1926 0072 00F0C580 		beq	.L102
 1927 0076 6AD3     		bcc	.L103
 1928 0078 45F20C03 		movw	r3, #20492
 1929 007c 9842     		cmp	r0, r3
 1930 007e 6AD0     		beq	.L104
 1931 0080 45F21703 		movw	r3, #20503
 1932 0084 9842     		cmp	r0, r3
 1933 0086 00F0BF80 		beq	.L105
 1934 008a C1E0     		b	.L86
 1935              	.L93:
 527:main_cm4.c    ****             
 1936              		.loc 1 527 0
 1937 008c 6348     		ldr	r0, .L118
 1938              	.LVL210:
 1939 008e FFF7FEFF 		bl	puts
 1940              	.LVL211:
 1941              	.L99:
 530:main_cm4.c    ****             Cy_BLE_GAPP_StartAdvertisement(CY_BLE_ADVERTISING_FAST, CY_BLE_PERIPHERAL_CONFIGURATION
 1942              		.loc 1 530 0
 1943 0092 FFF7FEFF 		bl	PWM_BLINK_Start
 1944              	.LVL212:
 531:main_cm4.c    ****             Cy_TCPWM_TriggerReloadOrIndex(PWM_DIM_HW,PWM_DIM_CNT_NUM);
 1945              		.loc 1 531 0
 1946 0096 0021     		movs	r1, #0
 1947 0098 0846     		mov	r0, r1
 1948 009a FFF7FEFF 		bl	Cy_BLE_GAPP_StartAdvertisement
 1949              	.LVL213:
 1950              	.LBB495:
 1951              	.LBB496:
 1952              		.file 3 "Generated_Source\\PSoC6\\pdl\\drivers/peripheral/tcpwm/cy_tcpwm.h"
   1:Generated_Source\PSoC6\pdl\drivers/peripheral/tcpwm/cy_tcpwm.h **** /***************************************************************************//**
   2:Generated_Source\PSoC6\pdl\drivers/peripheral/tcpwm/cy_tcpwm.h **** * \file cy_tcpwm.h
   3:Generated_Source\PSoC6\pdl\drivers/peripheral/tcpwm/cy_tcpwm.h **** * \version 1.10
   4:Generated_Source\PSoC6\pdl\drivers/peripheral/tcpwm/cy_tcpwm.h **** *
   5:Generated_Source\PSoC6\pdl\drivers/peripheral/tcpwm/cy_tcpwm.h **** * The header file of the TCPWM driver.
   6:Generated_Source\PSoC6\pdl\drivers/peripheral/tcpwm/cy_tcpwm.h **** *
   7:Generated_Source\PSoC6\pdl\drivers/peripheral/tcpwm/cy_tcpwm.h **** ********************************************************************************
   8:Generated_Source\PSoC6\pdl\drivers/peripheral/tcpwm/cy_tcpwm.h **** * \copyright
   9:Generated_Source\PSoC6\pdl\drivers/peripheral/tcpwm/cy_tcpwm.h **** * Copyright 2016-2018, Cypress Semiconductor Corporation. All rights reserved.
  10:Generated_Source\PSoC6\pdl\drivers/peripheral/tcpwm/cy_tcpwm.h **** * You may use this file only in accordance with the license, terms, conditions,
ARM GAS  C:\Users\seeho\AppData\Local\Temp\ccUkk7Dc.s 			page 66


  11:Generated_Source\PSoC6\pdl\drivers/peripheral/tcpwm/cy_tcpwm.h **** * disclaimers, and limitations in the end user license agreement accompanying
  12:Generated_Source\PSoC6\pdl\drivers/peripheral/tcpwm/cy_tcpwm.h **** * the software package with which this file was provided.
  13:Generated_Source\PSoC6\pdl\drivers/peripheral/tcpwm/cy_tcpwm.h **** *******************************************************************************/
  14:Generated_Source\PSoC6\pdl\drivers/peripheral/tcpwm/cy_tcpwm.h **** 
  15:Generated_Source\PSoC6\pdl\drivers/peripheral/tcpwm/cy_tcpwm.h **** /**
  16:Generated_Source\PSoC6\pdl\drivers/peripheral/tcpwm/cy_tcpwm.h **** * \addtogroup group_tcpwm
  17:Generated_Source\PSoC6\pdl\drivers/peripheral/tcpwm/cy_tcpwm.h **** * \{
  18:Generated_Source\PSoC6\pdl\drivers/peripheral/tcpwm/cy_tcpwm.h **** * \defgroup group_tcpwm_common  Common
  19:Generated_Source\PSoC6\pdl\drivers/peripheral/tcpwm/cy_tcpwm.h **** * \defgroup group_tcpwm_counter Timer/Counter (TCPWM)
  20:Generated_Source\PSoC6\pdl\drivers/peripheral/tcpwm/cy_tcpwm.h **** * \defgroup group_tcpwm_pwm     PWM (TCPWM)
  21:Generated_Source\PSoC6\pdl\drivers/peripheral/tcpwm/cy_tcpwm.h **** * \defgroup group_tcpwm_quaddec Quadrature Decoder (TCPWM)
  22:Generated_Source\PSoC6\pdl\drivers/peripheral/tcpwm/cy_tcpwm.h **** * \} */
  23:Generated_Source\PSoC6\pdl\drivers/peripheral/tcpwm/cy_tcpwm.h **** 
  24:Generated_Source\PSoC6\pdl\drivers/peripheral/tcpwm/cy_tcpwm.h **** /**
  25:Generated_Source\PSoC6\pdl\drivers/peripheral/tcpwm/cy_tcpwm.h **** * \addtogroup group_tcpwm
  26:Generated_Source\PSoC6\pdl\drivers/peripheral/tcpwm/cy_tcpwm.h **** * \{
  27:Generated_Source\PSoC6\pdl\drivers/peripheral/tcpwm/cy_tcpwm.h **** * 
  28:Generated_Source\PSoC6\pdl\drivers/peripheral/tcpwm/cy_tcpwm.h **** * The TCPWM driver is a multifunction driver that implements Timer Counter, 
  29:Generated_Source\PSoC6\pdl\drivers/peripheral/tcpwm/cy_tcpwm.h **** * PWM, and Quadrature Decoder functionality using the TCPWM block.
  30:Generated_Source\PSoC6\pdl\drivers/peripheral/tcpwm/cy_tcpwm.h **** *
  31:Generated_Source\PSoC6\pdl\drivers/peripheral/tcpwm/cy_tcpwm.h **** * The functions and other declarations used in this driver are in cy_tcpwm_counter.h, 
  32:Generated_Source\PSoC6\pdl\drivers/peripheral/tcpwm/cy_tcpwm.h **** * cy_tcpwm_pwm.h, cy_tcpwm_quaddec.h respectively. Include cy_pdl.h 
  33:Generated_Source\PSoC6\pdl\drivers/peripheral/tcpwm/cy_tcpwm.h **** * (ModusToolbox only) to get access to all functions and declarations in the PDL.
  34:Generated_Source\PSoC6\pdl\drivers/peripheral/tcpwm/cy_tcpwm.h **** *
  35:Generated_Source\PSoC6\pdl\drivers/peripheral/tcpwm/cy_tcpwm.h **** * Each TCPWM block is a collection of counters that can all be triggered 
  36:Generated_Source\PSoC6\pdl\drivers/peripheral/tcpwm/cy_tcpwm.h **** * simultaneously. For each function call, the base register address of 
  37:Generated_Source\PSoC6\pdl\drivers/peripheral/tcpwm/cy_tcpwm.h **** * the TCPWM being used must be passed first, followed by the index of 
  38:Generated_Source\PSoC6\pdl\drivers/peripheral/tcpwm/cy_tcpwm.h **** * the counter you want to touch next. 
  39:Generated_Source\PSoC6\pdl\drivers/peripheral/tcpwm/cy_tcpwm.h **** * For some functions, you can manage multiple counters simultaneously. You 
  40:Generated_Source\PSoC6\pdl\drivers/peripheral/tcpwm/cy_tcpwm.h **** * provide a bit field representing each counter, rather than the single counter 
  41:Generated_Source\PSoC6\pdl\drivers/peripheral/tcpwm/cy_tcpwm.h **** * index). 
  42:Generated_Source\PSoC6\pdl\drivers/peripheral/tcpwm/cy_tcpwm.h **** *
  43:Generated_Source\PSoC6\pdl\drivers/peripheral/tcpwm/cy_tcpwm.h **** * The TCPWM supports three operating modes:
  44:Generated_Source\PSoC6\pdl\drivers/peripheral/tcpwm/cy_tcpwm.h **** * * Timer/Counter
  45:Generated_Source\PSoC6\pdl\drivers/peripheral/tcpwm/cy_tcpwm.h **** * * PWM
  46:Generated_Source\PSoC6\pdl\drivers/peripheral/tcpwm/cy_tcpwm.h **** * * Quadrature Decoder
  47:Generated_Source\PSoC6\pdl\drivers/peripheral/tcpwm/cy_tcpwm.h **** *
  48:Generated_Source\PSoC6\pdl\drivers/peripheral/tcpwm/cy_tcpwm.h **** * \n
  49:Generated_Source\PSoC6\pdl\drivers/peripheral/tcpwm/cy_tcpwm.h **** * \b Timer/Counter
  50:Generated_Source\PSoC6\pdl\drivers/peripheral/tcpwm/cy_tcpwm.h **** *
  51:Generated_Source\PSoC6\pdl\drivers/peripheral/tcpwm/cy_tcpwm.h **** * Use this mode whenever a specific timing interval or measurement is 
  52:Generated_Source\PSoC6\pdl\drivers/peripheral/tcpwm/cy_tcpwm.h **** * needed. Examples include:
  53:Generated_Source\PSoC6\pdl\drivers/peripheral/tcpwm/cy_tcpwm.h **** * * Creating a periodic interrupt for running other system tasks
  54:Generated_Source\PSoC6\pdl\drivers/peripheral/tcpwm/cy_tcpwm.h **** * * Measuring frequency of an input signal
  55:Generated_Source\PSoC6\pdl\drivers/peripheral/tcpwm/cy_tcpwm.h **** * * Measuring pulse width of an input signal
  56:Generated_Source\PSoC6\pdl\drivers/peripheral/tcpwm/cy_tcpwm.h **** * * Measuring time between two external events
  57:Generated_Source\PSoC6\pdl\drivers/peripheral/tcpwm/cy_tcpwm.h **** * * Counting events
  58:Generated_Source\PSoC6\pdl\drivers/peripheral/tcpwm/cy_tcpwm.h **** * * Triggering other system resources after x number events
  59:Generated_Source\PSoC6\pdl\drivers/peripheral/tcpwm/cy_tcpwm.h **** * * Capturing time stamps when events occur
  60:Generated_Source\PSoC6\pdl\drivers/peripheral/tcpwm/cy_tcpwm.h **** *
  61:Generated_Source\PSoC6\pdl\drivers/peripheral/tcpwm/cy_tcpwm.h **** * The Timer/Counter has the following features:
  62:Generated_Source\PSoC6\pdl\drivers/peripheral/tcpwm/cy_tcpwm.h **** * * 16- or 32-bit Timer/Counter
  63:Generated_Source\PSoC6\pdl\drivers/peripheral/tcpwm/cy_tcpwm.h **** * * Programmable Period Register
  64:Generated_Source\PSoC6\pdl\drivers/peripheral/tcpwm/cy_tcpwm.h **** * * Programmable Compare Register. Compare value can be swapped with a 
  65:Generated_Source\PSoC6\pdl\drivers/peripheral/tcpwm/cy_tcpwm.h **** * buffered compare value on comparison event
  66:Generated_Source\PSoC6\pdl\drivers/peripheral/tcpwm/cy_tcpwm.h **** * * Capture with buffer register
  67:Generated_Source\PSoC6\pdl\drivers/peripheral/tcpwm/cy_tcpwm.h **** * * Count Up, Count Down, or Count Up and Down Counting modes
ARM GAS  C:\Users\seeho\AppData\Local\Temp\ccUkk7Dc.s 			page 67


  68:Generated_Source\PSoC6\pdl\drivers/peripheral/tcpwm/cy_tcpwm.h **** * * Continuous or One Shot Run modes
  69:Generated_Source\PSoC6\pdl\drivers/peripheral/tcpwm/cy_tcpwm.h **** * * Interrupt and Output on Overflow, Underflow, Capture, or Compare 
  70:Generated_Source\PSoC6\pdl\drivers/peripheral/tcpwm/cy_tcpwm.h **** * * Start, Reload, Stop, Capture, and Count Inputs
  71:Generated_Source\PSoC6\pdl\drivers/peripheral/tcpwm/cy_tcpwm.h **** *
  72:Generated_Source\PSoC6\pdl\drivers/peripheral/tcpwm/cy_tcpwm.h **** * \n
  73:Generated_Source\PSoC6\pdl\drivers/peripheral/tcpwm/cy_tcpwm.h **** * \b PWM
  74:Generated_Source\PSoC6\pdl\drivers/peripheral/tcpwm/cy_tcpwm.h **** *
  75:Generated_Source\PSoC6\pdl\drivers/peripheral/tcpwm/cy_tcpwm.h **** * Use this mode when an output square wave is needed with a specific 
  76:Generated_Source\PSoC6\pdl\drivers/peripheral/tcpwm/cy_tcpwm.h **** * period and duty cycle, such as:
  77:Generated_Source\PSoC6\pdl\drivers/peripheral/tcpwm/cy_tcpwm.h **** * * Creating arbitrary square wave outputs
  78:Generated_Source\PSoC6\pdl\drivers/peripheral/tcpwm/cy_tcpwm.h **** * * Driving an LED (changing the brightness)
  79:Generated_Source\PSoC6\pdl\drivers/peripheral/tcpwm/cy_tcpwm.h **** * * Driving Motors (dead time assertion available)
  80:Generated_Source\PSoC6\pdl\drivers/peripheral/tcpwm/cy_tcpwm.h **** *
  81:Generated_Source\PSoC6\pdl\drivers/peripheral/tcpwm/cy_tcpwm.h **** * The PWM has the following features:
  82:Generated_Source\PSoC6\pdl\drivers/peripheral/tcpwm/cy_tcpwm.h **** * * 16- or 32-bit Counter
  83:Generated_Source\PSoC6\pdl\drivers/peripheral/tcpwm/cy_tcpwm.h **** * * Two Programmable Period registers that can be swapped
  84:Generated_Source\PSoC6\pdl\drivers/peripheral/tcpwm/cy_tcpwm.h **** * * Two Output Compare registers that can be swapped on overflow and/or 
  85:Generated_Source\PSoC6\pdl\drivers/peripheral/tcpwm/cy_tcpwm.h **** * underflow
  86:Generated_Source\PSoC6\pdl\drivers/peripheral/tcpwm/cy_tcpwm.h **** * * Left Aligned, Right Aligned, Center Aligned, and Asymmetric Aligned modes
  87:Generated_Source\PSoC6\pdl\drivers/peripheral/tcpwm/cy_tcpwm.h **** * * Continuous or One Shot run modes
  88:Generated_Source\PSoC6\pdl\drivers/peripheral/tcpwm/cy_tcpwm.h **** * * Pseudo Random mode
  89:Generated_Source\PSoC6\pdl\drivers/peripheral/tcpwm/cy_tcpwm.h **** * * Two PWM outputs with Dead Time insertion, and programmable polarity
  90:Generated_Source\PSoC6\pdl\drivers/peripheral/tcpwm/cy_tcpwm.h **** * * Interrupt and Output on Overflow, Underflow, or Compare 
  91:Generated_Source\PSoC6\pdl\drivers/peripheral/tcpwm/cy_tcpwm.h **** * * Start, Reload, Stop, Swap (Capture), and Count Inputs
  92:Generated_Source\PSoC6\pdl\drivers/peripheral/tcpwm/cy_tcpwm.h **** * * Multiple Components can be synchronized together for applications 
  93:Generated_Source\PSoC6\pdl\drivers/peripheral/tcpwm/cy_tcpwm.h **** * such as three phase motor control
  94:Generated_Source\PSoC6\pdl\drivers/peripheral/tcpwm/cy_tcpwm.h **** *
  95:Generated_Source\PSoC6\pdl\drivers/peripheral/tcpwm/cy_tcpwm.h **** * \n
  96:Generated_Source\PSoC6\pdl\drivers/peripheral/tcpwm/cy_tcpwm.h **** * \b Quadrature \b Decoder
  97:Generated_Source\PSoC6\pdl\drivers/peripheral/tcpwm/cy_tcpwm.h **** *
  98:Generated_Source\PSoC6\pdl\drivers/peripheral/tcpwm/cy_tcpwm.h **** * A quadrature decoder is used to decode the output of a quadrature encoder. 
  99:Generated_Source\PSoC6\pdl\drivers/peripheral/tcpwm/cy_tcpwm.h **** * A quadrature encoder senses the position, velocity, and direction of 
 100:Generated_Source\PSoC6\pdl\drivers/peripheral/tcpwm/cy_tcpwm.h **** * an object (for example a rotating axle, or a spinning mouse ball). 
 101:Generated_Source\PSoC6\pdl\drivers/peripheral/tcpwm/cy_tcpwm.h **** * A quadrature decoder can also be used for precision measurement of speed, 
 102:Generated_Source\PSoC6\pdl\drivers/peripheral/tcpwm/cy_tcpwm.h **** * acceleration, and position of a motor's rotor, or with a rotary switch to 
 103:Generated_Source\PSoC6\pdl\drivers/peripheral/tcpwm/cy_tcpwm.h **** * determine user input. \n
 104:Generated_Source\PSoC6\pdl\drivers/peripheral/tcpwm/cy_tcpwm.h **** * 
 105:Generated_Source\PSoC6\pdl\drivers/peripheral/tcpwm/cy_tcpwm.h **** * The Quadrature Decoder has the following features:
 106:Generated_Source\PSoC6\pdl\drivers/peripheral/tcpwm/cy_tcpwm.h **** * * 16- or 32-bit Counter
 107:Generated_Source\PSoC6\pdl\drivers/peripheral/tcpwm/cy_tcpwm.h **** * * Counter Resolution of x1, x2, and x4 the frequency of the phiA (Count) and 
 108:Generated_Source\PSoC6\pdl\drivers/peripheral/tcpwm/cy_tcpwm.h **** * phiB (Start) inputs
 109:Generated_Source\PSoC6\pdl\drivers/peripheral/tcpwm/cy_tcpwm.h **** * * Index Input to determine absolute position
 110:Generated_Source\PSoC6\pdl\drivers/peripheral/tcpwm/cy_tcpwm.h **** * * A positive edge on phiA increments the counter when phiB is 0 and decrements
 111:Generated_Source\PSoC6\pdl\drivers/peripheral/tcpwm/cy_tcpwm.h **** * the counter when phiB is 1
 112:Generated_Source\PSoC6\pdl\drivers/peripheral/tcpwm/cy_tcpwm.h **** *
 113:Generated_Source\PSoC6\pdl\drivers/peripheral/tcpwm/cy_tcpwm.h **** * \section group_tcpwm_configuration Configuration Considerations
 114:Generated_Source\PSoC6\pdl\drivers/peripheral/tcpwm/cy_tcpwm.h **** *
 115:Generated_Source\PSoC6\pdl\drivers/peripheral/tcpwm/cy_tcpwm.h **** * For each mode, the TCPWM driver has a configuration structure, an Init 
 116:Generated_Source\PSoC6\pdl\drivers/peripheral/tcpwm/cy_tcpwm.h **** * function, and an Enable function. 
 117:Generated_Source\PSoC6\pdl\drivers/peripheral/tcpwm/cy_tcpwm.h **** *
 118:Generated_Source\PSoC6\pdl\drivers/peripheral/tcpwm/cy_tcpwm.h **** * Provide the configuration parameters in the appropriate structure (see
 119:Generated_Source\PSoC6\pdl\drivers/peripheral/tcpwm/cy_tcpwm.h **** * Counter \ref group_tcpwm_data_structures_counter, PWM 
 120:Generated_Source\PSoC6\pdl\drivers/peripheral/tcpwm/cy_tcpwm.h **** * \ref group_tcpwm_data_structures_pwm, or QuadDec 
 121:Generated_Source\PSoC6\pdl\drivers/peripheral/tcpwm/cy_tcpwm.h **** * \ref group_tcpwm_data_structures_quaddec). 
 122:Generated_Source\PSoC6\pdl\drivers/peripheral/tcpwm/cy_tcpwm.h **** * Then call the appropriate Init function: 
 123:Generated_Source\PSoC6\pdl\drivers/peripheral/tcpwm/cy_tcpwm.h **** * \ref Cy_TCPWM_Counter_Init, \ref Cy_TCPWM_PWM_Init, or 
 124:Generated_Source\PSoC6\pdl\drivers/peripheral/tcpwm/cy_tcpwm.h **** * \ref Cy_TCPWM_QuadDec_Init. Provide the address of the filled structure as a 
ARM GAS  C:\Users\seeho\AppData\Local\Temp\ccUkk7Dc.s 			page 68


 125:Generated_Source\PSoC6\pdl\drivers/peripheral/tcpwm/cy_tcpwm.h **** * parameter. To enable the counter, call the appropriate Enable function: 
 126:Generated_Source\PSoC6\pdl\drivers/peripheral/tcpwm/cy_tcpwm.h **** * \ref Cy_TCPWM_Counter_Enable, \ref Cy_TCPWM_PWM_Enable, or 
 127:Generated_Source\PSoC6\pdl\drivers/peripheral/tcpwm/cy_tcpwm.h **** * \ref Cy_TCPWM_QuadDec_Enable).
 128:Generated_Source\PSoC6\pdl\drivers/peripheral/tcpwm/cy_tcpwm.h **** *
 129:Generated_Source\PSoC6\pdl\drivers/peripheral/tcpwm/cy_tcpwm.h **** * Many functions work with an individual counter. You can also manage multiple 
 130:Generated_Source\PSoC6\pdl\drivers/peripheral/tcpwm/cy_tcpwm.h **** * counters simultaneously for certain functions. These are listed in the 
 131:Generated_Source\PSoC6\pdl\drivers/peripheral/tcpwm/cy_tcpwm.h **** * \ref group_tcpwm_functions_common 
 132:Generated_Source\PSoC6\pdl\drivers/peripheral/tcpwm/cy_tcpwm.h **** * section of the TCPWM. You can enable, disable, or trigger (in various ways) 
 133:Generated_Source\PSoC6\pdl\drivers/peripheral/tcpwm/cy_tcpwm.h **** * multiple counters simultaneously. For these functions you provide a bit field 
 134:Generated_Source\PSoC6\pdl\drivers/peripheral/tcpwm/cy_tcpwm.h **** * representing each counter in the TCPWM you want to control. You can 
 135:Generated_Source\PSoC6\pdl\drivers/peripheral/tcpwm/cy_tcpwm.h **** * represent the bit field as an ORed mask of each counter, like 
 136:Generated_Source\PSoC6\pdl\drivers/peripheral/tcpwm/cy_tcpwm.h **** * ((1U << cntNumX) | (1U << cntNumX) | (1U << cntNumX)), where X is the counter 
 137:Generated_Source\PSoC6\pdl\drivers/peripheral/tcpwm/cy_tcpwm.h **** * number from 0 to 31.
 138:Generated_Source\PSoC6\pdl\drivers/peripheral/tcpwm/cy_tcpwm.h **** *
 139:Generated_Source\PSoC6\pdl\drivers/peripheral/tcpwm/cy_tcpwm.h **** * \note
 140:Generated_Source\PSoC6\pdl\drivers/peripheral/tcpwm/cy_tcpwm.h **** * * If none of the input terminals (start, reload(index)) are used, the 
 141:Generated_Source\PSoC6\pdl\drivers/peripheral/tcpwm/cy_tcpwm.h **** * software event \ref Cy_TCPWM_TriggerStart or 
 142:Generated_Source\PSoC6\pdl\drivers/peripheral/tcpwm/cy_tcpwm.h **** * \ref Cy_TCPWM_TriggerReloadOrIndex must be called to start the counting.
 143:Generated_Source\PSoC6\pdl\drivers/peripheral/tcpwm/cy_tcpwm.h **** * * If count input terminal is not used, the \ref CY_TCPWM_INPUT_LEVEL macro 
 144:Generated_Source\PSoC6\pdl\drivers/peripheral/tcpwm/cy_tcpwm.h **** * should be set for the countInputMode parameter and the \ref CY_TCPWM_INPUT_1 
 145:Generated_Source\PSoC6\pdl\drivers/peripheral/tcpwm/cy_tcpwm.h **** * macro should be set for the countInput parameter in the configuration 
 146:Generated_Source\PSoC6\pdl\drivers/peripheral/tcpwm/cy_tcpwm.h **** * structure of the appropriate mode(Counter 
 147:Generated_Source\PSoC6\pdl\drivers/peripheral/tcpwm/cy_tcpwm.h **** * \ref group_tcpwm_data_structures_counter, PWM 
 148:Generated_Source\PSoC6\pdl\drivers/peripheral/tcpwm/cy_tcpwm.h **** * \ref group_tcpwm_data_structures_pwm, or QuadDec 
 149:Generated_Source\PSoC6\pdl\drivers/peripheral/tcpwm/cy_tcpwm.h **** * \ref group_tcpwm_data_structures_quaddec).
 150:Generated_Source\PSoC6\pdl\drivers/peripheral/tcpwm/cy_tcpwm.h **** *
 151:Generated_Source\PSoC6\pdl\drivers/peripheral/tcpwm/cy_tcpwm.h **** * \subsection group_tcpwm_pins Assign and Configure Pins
 152:Generated_Source\PSoC6\pdl\drivers/peripheral/tcpwm/cy_tcpwm.h **** * The dedicated TCPWM pins can be used. The HSIOM register must be configured to
 153:Generated_Source\PSoC6\pdl\drivers/peripheral/tcpwm/cy_tcpwm.h **** * connect the block to the pins. Use the \ref group_gpio driver API to do that.
 154:Generated_Source\PSoC6\pdl\drivers/peripheral/tcpwm/cy_tcpwm.h **** *
 155:Generated_Source\PSoC6\pdl\drivers/peripheral/tcpwm/cy_tcpwm.h **** * \snippet tcpwm\1.10\counter\snippet\main.c snippet_Cy_TCPWM_Pins
 156:Generated_Source\PSoC6\pdl\drivers/peripheral/tcpwm/cy_tcpwm.h **** *
 157:Generated_Source\PSoC6\pdl\drivers/peripheral/tcpwm/cy_tcpwm.h **** * \subsection group_tcpwm_clock Assign Clock Divider
 158:Generated_Source\PSoC6\pdl\drivers/peripheral/tcpwm/cy_tcpwm.h **** * The clock source must be connected to proper working.
 159:Generated_Source\PSoC6\pdl\drivers/peripheral/tcpwm/cy_tcpwm.h **** * Any of the peripheral clock dividers could be used. Use the  
 160:Generated_Source\PSoC6\pdl\drivers/peripheral/tcpwm/cy_tcpwm.h **** * \ref group_sysclk driver API to do that.
 161:Generated_Source\PSoC6\pdl\drivers/peripheral/tcpwm/cy_tcpwm.h **** *
 162:Generated_Source\PSoC6\pdl\drivers/peripheral/tcpwm/cy_tcpwm.h **** * \snippet tcpwm\1.10\counter\snippet\main.c snippet_Cy_TCPWM_Clock
 163:Generated_Source\PSoC6\pdl\drivers/peripheral/tcpwm/cy_tcpwm.h **** *
 164:Generated_Source\PSoC6\pdl\drivers/peripheral/tcpwm/cy_tcpwm.h **** * \section group_tcpwm_more_information More Information
 165:Generated_Source\PSoC6\pdl\drivers/peripheral/tcpwm/cy_tcpwm.h **** *
 166:Generated_Source\PSoC6\pdl\drivers/peripheral/tcpwm/cy_tcpwm.h **** * For more information on the TCPWM peripheral, refer to the technical 
 167:Generated_Source\PSoC6\pdl\drivers/peripheral/tcpwm/cy_tcpwm.h **** * reference manual (TRM).
 168:Generated_Source\PSoC6\pdl\drivers/peripheral/tcpwm/cy_tcpwm.h **** *
 169:Generated_Source\PSoC6\pdl\drivers/peripheral/tcpwm/cy_tcpwm.h **** * \section group_tcpwm_MISRA MISRA-C Compliance 
 170:Generated_Source\PSoC6\pdl\drivers/peripheral/tcpwm/cy_tcpwm.h **** * <table class="doxtable">
 171:Generated_Source\PSoC6\pdl\drivers/peripheral/tcpwm/cy_tcpwm.h **** *   <tr>
 172:Generated_Source\PSoC6\pdl\drivers/peripheral/tcpwm/cy_tcpwm.h **** *     <th>MISRA Rule</th>
 173:Generated_Source\PSoC6\pdl\drivers/peripheral/tcpwm/cy_tcpwm.h **** *     <th>Rule Class (Required/Advisory)</th>
 174:Generated_Source\PSoC6\pdl\drivers/peripheral/tcpwm/cy_tcpwm.h **** *     <th>Rule Description</th>
 175:Generated_Source\PSoC6\pdl\drivers/peripheral/tcpwm/cy_tcpwm.h **** *     <th>Description of Deviation(s)</th>
 176:Generated_Source\PSoC6\pdl\drivers/peripheral/tcpwm/cy_tcpwm.h **** *   </tr>
 177:Generated_Source\PSoC6\pdl\drivers/peripheral/tcpwm/cy_tcpwm.h **** *   <tr>
 178:Generated_Source\PSoC6\pdl\drivers/peripheral/tcpwm/cy_tcpwm.h **** *     <td>14.2</td>
 179:Generated_Source\PSoC6\pdl\drivers/peripheral/tcpwm/cy_tcpwm.h **** *     <td>R</td>
 180:Generated_Source\PSoC6\pdl\drivers/peripheral/tcpwm/cy_tcpwm.h **** *     <td>All non-null statements shall either: a) have at least one side-effect
 181:Generated_Source\PSoC6\pdl\drivers/peripheral/tcpwm/cy_tcpwm.h **** *         however executed, or b) cause control flow to change.</td>
ARM GAS  C:\Users\seeho\AppData\Local\Temp\ccUkk7Dc.s 			page 69


 182:Generated_Source\PSoC6\pdl\drivers/peripheral/tcpwm/cy_tcpwm.h **** *     <td>The unused function parameters are cast to void. This statement
 183:Generated_Source\PSoC6\pdl\drivers/peripheral/tcpwm/cy_tcpwm.h **** *         has no side-effect and is used to suppress a compiler warning.</td>
 184:Generated_Source\PSoC6\pdl\drivers/peripheral/tcpwm/cy_tcpwm.h **** *   </tr>
 185:Generated_Source\PSoC6\pdl\drivers/peripheral/tcpwm/cy_tcpwm.h **** * </table>
 186:Generated_Source\PSoC6\pdl\drivers/peripheral/tcpwm/cy_tcpwm.h **** *
 187:Generated_Source\PSoC6\pdl\drivers/peripheral/tcpwm/cy_tcpwm.h **** * \section group_tcpwm_changelog Changelog
 188:Generated_Source\PSoC6\pdl\drivers/peripheral/tcpwm/cy_tcpwm.h **** * <table class="doxtable">
 189:Generated_Source\PSoC6\pdl\drivers/peripheral/tcpwm/cy_tcpwm.h **** *   <tr><th>Version</th><th>Changes</th><th>Reason for Change</th></tr>
 190:Generated_Source\PSoC6\pdl\drivers/peripheral/tcpwm/cy_tcpwm.h **** *   <tr>
 191:Generated_Source\PSoC6\pdl\drivers/peripheral/tcpwm/cy_tcpwm.h **** *     <td rowspan="2">1.10</td>
 192:Generated_Source\PSoC6\pdl\drivers/peripheral/tcpwm/cy_tcpwm.h **** *     <td>Flattened the organization of the driver source code into the single 
 193:Generated_Source\PSoC6\pdl\drivers/peripheral/tcpwm/cy_tcpwm.h **** *         source directory and the single include directory.
 194:Generated_Source\PSoC6\pdl\drivers/peripheral/tcpwm/cy_tcpwm.h **** *     </td>
 195:Generated_Source\PSoC6\pdl\drivers/peripheral/tcpwm/cy_tcpwm.h **** *     <td>Driver library directory-structure simplification.</td>
 196:Generated_Source\PSoC6\pdl\drivers/peripheral/tcpwm/cy_tcpwm.h **** *   </tr>
 197:Generated_Source\PSoC6\pdl\drivers/peripheral/tcpwm/cy_tcpwm.h **** *   <tr>
 198:Generated_Source\PSoC6\pdl\drivers/peripheral/tcpwm/cy_tcpwm.h **** *     <td>Added register access layer. Use register access macros instead
 199:Generated_Source\PSoC6\pdl\drivers/peripheral/tcpwm/cy_tcpwm.h **** *         of direct register access using dereferenced pointers.</td>
 200:Generated_Source\PSoC6\pdl\drivers/peripheral/tcpwm/cy_tcpwm.h **** *     <td>Makes register access device-independent, so that the PDL does 
 201:Generated_Source\PSoC6\pdl\drivers/peripheral/tcpwm/cy_tcpwm.h **** *         not need to be recompiled for each supported part number.</td>
 202:Generated_Source\PSoC6\pdl\drivers/peripheral/tcpwm/cy_tcpwm.h **** *   </tr>
 203:Generated_Source\PSoC6\pdl\drivers/peripheral/tcpwm/cy_tcpwm.h **** *   <tr>
 204:Generated_Source\PSoC6\pdl\drivers/peripheral/tcpwm/cy_tcpwm.h **** *     <td>1.0.1</td>
 205:Generated_Source\PSoC6\pdl\drivers/peripheral/tcpwm/cy_tcpwm.h **** *     <td>Added a deviation to the MISRA Compliance section.
 206:Generated_Source\PSoC6\pdl\drivers/peripheral/tcpwm/cy_tcpwm.h **** *         Added function-level code snippets.</td>
 207:Generated_Source\PSoC6\pdl\drivers/peripheral/tcpwm/cy_tcpwm.h **** *     <td>Documentation update and clarification</td>
 208:Generated_Source\PSoC6\pdl\drivers/peripheral/tcpwm/cy_tcpwm.h **** *   </tr>
 209:Generated_Source\PSoC6\pdl\drivers/peripheral/tcpwm/cy_tcpwm.h **** *   <tr>
 210:Generated_Source\PSoC6\pdl\drivers/peripheral/tcpwm/cy_tcpwm.h **** *     <td>1.0</td>
 211:Generated_Source\PSoC6\pdl\drivers/peripheral/tcpwm/cy_tcpwm.h **** *     <td>Initial version</td>
 212:Generated_Source\PSoC6\pdl\drivers/peripheral/tcpwm/cy_tcpwm.h **** *     <td></td>
 213:Generated_Source\PSoC6\pdl\drivers/peripheral/tcpwm/cy_tcpwm.h **** *   </tr>
 214:Generated_Source\PSoC6\pdl\drivers/peripheral/tcpwm/cy_tcpwm.h **** * </table>
 215:Generated_Source\PSoC6\pdl\drivers/peripheral/tcpwm/cy_tcpwm.h **** */
 216:Generated_Source\PSoC6\pdl\drivers/peripheral/tcpwm/cy_tcpwm.h **** 
 217:Generated_Source\PSoC6\pdl\drivers/peripheral/tcpwm/cy_tcpwm.h **** /** \} group_tcpwm */
 218:Generated_Source\PSoC6\pdl\drivers/peripheral/tcpwm/cy_tcpwm.h **** 
 219:Generated_Source\PSoC6\pdl\drivers/peripheral/tcpwm/cy_tcpwm.h **** /**
 220:Generated_Source\PSoC6\pdl\drivers/peripheral/tcpwm/cy_tcpwm.h **** * \addtogroup group_tcpwm_common
 221:Generated_Source\PSoC6\pdl\drivers/peripheral/tcpwm/cy_tcpwm.h **** * Common API for the Timer Counter PWM Block.
 222:Generated_Source\PSoC6\pdl\drivers/peripheral/tcpwm/cy_tcpwm.h **** *
 223:Generated_Source\PSoC6\pdl\drivers/peripheral/tcpwm/cy_tcpwm.h **** * This is the common API that provides an interface to the TCPWM hardware.
 224:Generated_Source\PSoC6\pdl\drivers/peripheral/tcpwm/cy_tcpwm.h **** * The Timer Counter, PWM, and Quadrature Decoder drivers use this common API.
 225:Generated_Source\PSoC6\pdl\drivers/peripheral/tcpwm/cy_tcpwm.h **** * Most users will use individual drivers and do not need to use the common
 226:Generated_Source\PSoC6\pdl\drivers/peripheral/tcpwm/cy_tcpwm.h **** * API for the TCPWM.
 227:Generated_Source\PSoC6\pdl\drivers/peripheral/tcpwm/cy_tcpwm.h **** *
 228:Generated_Source\PSoC6\pdl\drivers/peripheral/tcpwm/cy_tcpwm.h **** * The functions and other declarations used in this part of the driver are in cy_tcpwm.h. 
 229:Generated_Source\PSoC6\pdl\drivers/peripheral/tcpwm/cy_tcpwm.h **** * Include either of cy_tcpwm_counter.h, cy_tcpwm_pwm.h, cy_tcpwm_quaddec.h 
